(lp0
(F12026.82
(lp1
I4
aI5
aI53
aI56
aI57
aI65
aI55
aI53
aI47
aI45
aI47
aI65
aI54
aI60
aI63
aI51
aI64
aI37
aI68
aI52
aI53
aI35
aI29
aI43
aI46
aI41
aI33
aI41
aI72
aI62
aI47
aI43
aI71
aI64
aI71
aI35
aI48
aI63
aI35
aI40
aI56
aI46
aI50
aI41
aI8
aI13
aI14
aI16
aI14
aI10
aI17
aI14
aI16
aI13
aI12
aI10
aI10
aI14
aI6
aI7
aI15
aI9
aI11
aI7
aI8
aI9
aI8
aI9
aI7
aI4
aI8
aI5
aI53
aI48
aI55
aI76
aI57
aI59
aI39
aI53
aI53
aI42
aI62
aI50
aI45
aI53
aI51
aI41
aI40
aI47
aI52
aI64
aI69
aI71
aI53
aI68
aI55
aI50
aI44
aI37
aI47
aI66
aI61
aI42
aI81
aI58
aI52
aI47
aI66
aI46
aI60
aI50
aI48
aI65
aI61
aI52
aI28
aI38
aI36
aI37
aI63
aI54
aI70
aI69
aI38
aI30
aI51
aI66
aI43
aI49
aI49
aI58
aI30
aI69
aI63
aI48
aI62
aI64
aI73
aI67
aI45
aI67
aI87
aI47
aI44
aI46
aI40
aI59
aI35
aI43
aI29
aI55
aI28
aI59
aI60
aI52
aI43
aI45
aI60
aI47
aI34
aI62
aI51
aI30
aI27
aI32
aI56
aI38
aI53
aI46
aI62
aI49
aI53
aI53
aI49
aI69
aI44
aI70
aI43
aI68
aI52
aI39
aI34
aI45
aI54
aI52
aI48
aI56
aI49
aI43
aI59
aI49
aI50
aI51
aI39
aI54
aI66
aI62
aI45
aI51
aI35
aI39
aI50
aI61
aI51
aI29
aI48
aI69
aI52
aI39
aI48
aI48
aI49
aI28
aI52
aI17
aI46
aI39
aI48
aI2
aI3
aI4
aI4
aI3
aI3
aI3
aI3
aI3
aI3
aI3
aI2
aI3
aI2
aI4
aI3
aI1
aI2
aI4
aI2
aI3
aI00
tp2
a(F12026.82
(lp3
I4
aI5
aI53
aI56
aI57
aI65
aI55
aI53
aI47
aI45
aI47
aI65
aI54
aI60
aI63
aI51
aI64
aI37
aI68
aI52
aI53
aI35
aI29
aI43
aI46
aI41
aI33
aI41
aI72
aI62
aI47
aI43
aI71
aI64
aI71
aI35
aI48
aI63
aI35
aI40
aI56
aI46
aI50
aI41
aI8
aI13
aI14
aI16
aI14
aI10
aI17
aI14
aI16
aI13
aI12
aI10
aI10
aI14
aI6
aI7
aI15
aI9
aI11
aI7
aI8
aI9
aI8
aI9
aI7
aI4
aI8
aI5
aI53
aI48
aI55
aI76
aI57
aI59
aI39
aI53
aI53
aI42
aI62
aI50
aI45
aI53
aI51
aI41
aI40
aI47
aI52
aI64
aI69
aI71
aI53
aI68
aI55
aI50
aI44
aI37
aI47
aI66
aI61
aI42
aI81
aI58
aI52
aI47
aI66
aI46
aI60
aI50
aI48
aI65
aI61
aI52
aI28
aI38
aI36
aI37
aI63
aI54
aI69
aI69
aI38
aI30
aI51
aI66
aI43
aI49
aI49
aI58
aI30
aI69
aI63
aI48
aI62
aI64
aI73
aI67
aI45
aI67
aI87
aI47
aI44
aI46
aI40
aI59
aI35
aI43
aI29
aI55
aI28
aI59
aI60
aI52
aI43
aI45
aI60
aI47
aI34
aI62
aI51
aI30
aI27
aI32
aI56
aI38
aI53
aI46
aI62
aI49
aI53
aI53
aI49
aI69
aI44
aI70
aI43
aI68
aI52
aI39
aI34
aI45
aI54
aI52
aI48
aI56
aI49
aI43
aI59
aI49
aI50
aI51
aI39
aI54
aI66
aI62
aI45
aI51
aI35
aI39
aI50
aI61
aI51
aI29
aI49
aI69
aI52
aI39
aI48
aI48
aI49
aI28
aI52
aI17
aI46
aI39
aI48
aI2
aI3
aI4
aI4
aI3
aI3
aI3
aI3
aI3
aI3
aI3
aI2
aI3
aI2
aI4
aI3
aI1
aI2
aI4
aI2
aI3
aI00
tp4
a(F12026.82
(lp5
I4
aI5
aI53
aI56
aI57
aI65
aI55
aI53
aI47
aI45
aI47
aI65
aI54
aI60
aI63
aI51
aI64
aI37
aI68
aI52
aI53
aI35
aI29
aI43
aI46
aI41
aI33
aI41
aI72
aI62
aI47
aI43
aI71
aI64
aI71
aI35
aI48
aI63
aI35
aI40
aI56
aI46
aI50
aI41
aI8
aI13
aI14
aI16
aI14
aI10
aI17
aI14
aI16
aI13
aI12
aI10
aI10
aI14
aI6
aI7
aI15
aI9
aI11
aI7
aI8
aI9
aI8
aI9
aI7
aI4
aI8
aI5
aI53
aI48
aI55
aI76
aI57
aI59
aI39
aI53
aI53
aI42
aI62
aI50
aI45
aI53
aI51
aI41
aI40
aI47
aI52
aI64
aI69
aI71
aI53
aI68
aI55
aI50
aI44
aI37
aI47
aI66
aI61
aI42
aI81
aI58
aI52
aI47
aI66
aI46
aI60
aI50
aI48
aI65
aI61
aI52
aI28
aI38
aI36
aI37
aI63
aI54
aI69
aI69
aI38
aI30
aI51
aI66
aI43
aI49
aI49
aI58
aI30
aI69
aI63
aI48
aI62
aI64
aI73
aI67
aI45
aI67
aI87
aI47
aI44
aI46
aI40
aI59
aI35
aI43
aI29
aI55
aI28
aI59
aI60
aI52
aI43
aI45
aI60
aI47
aI34
aI62
aI51
aI30
aI27
aI32
aI56
aI38
aI53
aI46
aI62
aI49
aI53
aI53
aI49
aI69
aI44
aI70
aI43
aI68
aI52
aI39
aI34
aI45
aI54
aI52
aI48
aI56
aI49
aI43
aI59
aI49
aI50
aI51
aI39
aI54
aI66
aI62
aI45
aI51
aI35
aI39
aI50
aI61
aI51
aI29
aI49
aI69
aI52
aI39
aI48
aI48
aI49
aI28
aI52
aI17
aI46
aI39
aI48
aI2
aI3
aI4
aI4
aI3
aI3
aI3
aI3
aI3
aI3
aI3
aI2
aI3
aI2
aI4
aI3
aI1
aI2
aI4
aI2
aI3
aI00
tp6
a(F12026.82
(lp7
I4
aI5
aI53
aI56
aI57
aI65
aI55
aI53
aI47
aI45
aI47
aI65
aI54
aI60
aI63
aI51
aI64
aI37
aI68
aI52
aI53
aI35
aI29
aI43
aI46
aI41
aI33
aI41
aI72
aI62
aI47
aI43
aI71
aI64
aI71
aI35
aI48
aI63
aI35
aI40
aI56
aI46
aI50
aI41
aI8
aI13
aI14
aI16
aI14
aI10
aI17
aI14
aI16
aI13
aI12
aI10
aI10
aI14
aI6
aI7
aI15
aI9
aI11
aI7
aI8
aI9
aI8
aI9
aI7
aI4
aI8
aI5
aI53
aI48
aI55
aI76
aI57
aI59
aI39
aI53
aI53
aI42
aI62
aI50
aI45
aI53
aI51
aI41
aI40
aI47
aI52
aI64
aI69
aI71
aI53
aI68
aI55
aI50
aI44
aI37
aI47
aI66
aI61
aI42
aI81
aI58
aI52
aI47
aI66
aI46
aI60
aI50
aI48
aI65
aI61
aI52
aI28
aI38
aI36
aI37
aI63
aI54
aI69
aI69
aI38
aI30
aI51
aI66
aI43
aI49
aI49
aI58
aI30
aI69
aI63
aI48
aI62
aI64
aI73
aI67
aI45
aI67
aI87
aI47
aI44
aI46
aI40
aI59
aI35
aI43
aI29
aI55
aI28
aI59
aI60
aI52
aI43
aI45
aI60
aI47
aI34
aI62
aI51
aI30
aI27
aI32
aI56
aI38
aI53
aI46
aI62
aI49
aI53
aI53
aI49
aI69
aI44
aI70
aI43
aI68
aI52
aI39
aI34
aI45
aI54
aI52
aI48
aI56
aI49
aI43
aI59
aI49
aI50
aI51
aI39
aI54
aI66
aI62
aI45
aI51
aI35
aI39
aI50
aI61
aI51
aI29
aI49
aI69
aI52
aI39
aI48
aI48
aI49
aI28
aI52
aI17
aI46
aI39
aI48
aI2
aI3
aI4
aI4
aI3
aI3
aI3
aI3
aI3
aI3
aI3
aI2
aI3
aI2
aI4
aI3
aI1
aI2
aI4
aI2
aI3
aI00
tp8
a(F12026.82
(lp9
I4
aI5
aI53
aI56
aI57
aI65
aI55
aI53
aI47
aI45
aI47
aI65
aI54
aI60
aI63
aI51
aI64
aI37
aI68
aI52
aI53
aI35
aI29
aI43
aI46
aI41
aI33
aI41
aI72
aI62
aI47
aI43
aI71
aI64
aI71
aI35
aI48
aI63
aI35
aI40
aI56
aI46
aI50
aI41
aI8
aI13
aI14
aI16
aI14
aI10
aI17
aI14
aI16
aI13
aI12
aI10
aI10
aI14
aI6
aI7
aI15
aI9
aI11
aI7
aI8
aI9
aI8
aI9
aI7
aI4
aI8
aI5
aI53
aI48
aI55
aI76
aI57
aI59
aI39
aI53
aI53
aI42
aI62
aI50
aI45
aI53
aI51
aI41
aI40
aI47
aI52
aI64
aI69
aI71
aI53
aI68
aI55
aI50
aI44
aI37
aI47
aI66
aI61
aI42
aI81
aI58
aI52
aI47
aI66
aI46
aI60
aI50
aI48
aI65
aI61
aI52
aI28
aI38
aI36
aI37
aI63
aI54
aI69
aI69
aI38
aI30
aI51
aI66
aI43
aI49
aI49
aI58
aI30
aI69
aI63
aI48
aI62
aI64
aI73
aI67
aI45
aI67
aI87
aI47
aI44
aI46
aI40
aI59
aI35
aI43
aI29
aI55
aI28
aI59
aI60
aI52
aI43
aI45
aI60
aI47
aI34
aI62
aI51
aI30
aI27
aI32
aI56
aI38
aI53
aI46
aI62
aI49
aI53
aI53
aI49
aI69
aI44
aI70
aI43
aI68
aI52
aI39
aI34
aI45
aI54
aI52
aI48
aI56
aI49
aI43
aI59
aI49
aI50
aI51
aI39
aI54
aI66
aI62
aI45
aI51
aI35
aI39
aI50
aI61
aI51
aI29
aI49
aI69
aI52
aI39
aI48
aI48
aI49
aI28
aI52
aI17
aI46
aI39
aI48
aI2
aI3
aI4
aI4
aI3
aI3
aI3
aI3
aI3
aI3
aI3
aI2
aI3
aI2
aI4
aI3
aI1
aI2
aI4
aI2
aI3
aI00
tp10
a(F12026.82
(lp11
I4
aI5
aI53
aI56
aI57
aI65
aI55
aI53
aI47
aI45
aI47
aI65
aI54
aI60
aI63
aI51
aI64
aI37
aI68
aI52
aI53
aI35
aI29
aI43
aI46
aI41
aI33
aI41
aI72
aI62
aI47
aI43
aI71
aI64
aI71
aI35
aI48
aI63
aI35
aI40
aI56
aI46
aI50
aI41
aI8
aI13
aI14
aI16
aI14
aI10
aI17
aI14
aI16
aI13
aI12
aI10
aI10
aI14
aI6
aI7
aI15
aI9
aI11
aI7
aI8
aI9
aI8
aI9
aI7
aI4
aI8
aI5
aI53
aI48
aI55
aI76
aI57
aI59
aI39
aI53
aI53
aI42
aI62
aI50
aI45
aI53
aI51
aI41
aI40
aI47
aI52
aI64
aI69
aI71
aI53
aI68
aI55
aI50
aI44
aI37
aI47
aI66
aI61
aI42
aI81
aI58
aI52
aI47
aI66
aI46
aI60
aI50
aI48
aI65
aI61
aI52
aI28
aI38
aI36
aI37
aI63
aI54
aI69
aI69
aI38
aI30
aI51
aI66
aI43
aI49
aI49
aI58
aI30
aI69
aI63
aI48
aI62
aI64
aI73
aI67
aI45
aI67
aI87
aI47
aI44
aI46
aI40
aI59
aI35
aI43
aI29
aI55
aI28
aI59
aI60
aI52
aI43
aI45
aI60
aI47
aI34
aI62
aI51
aI30
aI27
aI32
aI56
aI38
aI53
aI46
aI62
aI49
aI53
aI53
aI49
aI69
aI44
aI70
aI43
aI68
aI52
aI39
aI34
aI45
aI54
aI52
aI48
aI56
aI49
aI43
aI59
aI49
aI50
aI51
aI39
aI54
aI66
aI62
aI45
aI51
aI35
aI39
aI50
aI61
aI51
aI29
aI49
aI69
aI52
aI39
aI48
aI48
aI49
aI28
aI52
aI17
aI46
aI39
aI48
aI2
aI3
aI4
aI4
aI3
aI3
aI3
aI3
aI3
aI3
aI3
aI2
aI3
aI2
aI4
aI3
aI1
aI2
aI4
aI2
aI3
aI00
tp12
a(F12026.82
(lp13
I4
aI5
aI53
aI56
aI57
aI65
aI55
aI53
aI47
aI45
aI47
aI65
aI54
aI60
aI63
aI51
aI64
aI37
aI68
aI52
aI53
aI35
aI29
aI43
aI46
aI41
aI33
aI41
aI72
aI62
aI47
aI43
aI71
aI64
aI71
aI35
aI48
aI63
aI35
aI40
aI56
aI46
aI50
aI41
aI8
aI13
aI14
aI16
aI14
aI10
aI17
aI14
aI16
aI13
aI12
aI10
aI10
aI14
aI6
aI7
aI15
aI9
aI11
aI7
aI8
aI9
aI8
aI9
aI7
aI4
aI8
aI5
aI53
aI48
aI55
aI76
aI57
aI59
aI39
aI53
aI53
aI42
aI62
aI50
aI45
aI53
aI51
aI41
aI40
aI47
aI52
aI64
aI69
aI71
aI53
aI68
aI55
aI50
aI44
aI37
aI47
aI66
aI61
aI42
aI81
aI58
aI52
aI47
aI66
aI46
aI60
aI50
aI48
aI65
aI61
aI52
aI28
aI38
aI36
aI37
aI63
aI54
aI69
aI69
aI38
aI30
aI51
aI66
aI43
aI49
aI49
aI58
aI30
aI69
aI63
aI48
aI62
aI64
aI73
aI67
aI45
aI67
aI87
aI47
aI44
aI46
aI40
aI59
aI35
aI43
aI29
aI55
aI28
aI59
aI60
aI52
aI43
aI45
aI60
aI47
aI34
aI62
aI51
aI30
aI27
aI32
aI56
aI38
aI53
aI46
aI62
aI49
aI53
aI53
aI49
aI69
aI44
aI70
aI43
aI68
aI52
aI39
aI34
aI45
aI54
aI52
aI48
aI56
aI49
aI43
aI59
aI49
aI50
aI51
aI39
aI54
aI66
aI62
aI45
aI51
aI35
aI39
aI50
aI61
aI51
aI29
aI49
aI69
aI52
aI39
aI48
aI48
aI49
aI28
aI52
aI17
aI46
aI39
aI48
aI2
aI3
aI4
aI4
aI3
aI3
aI3
aI3
aI3
aI3
aI3
aI2
aI3
aI2
aI4
aI3
aI1
aI2
aI4
aI2
aI3
aI00
tp14
a(F12026.82
(lp15
I4
aI5
aI53
aI56
aI57
aI65
aI55
aI53
aI47
aI45
aI47
aI65
aI54
aI60
aI63
aI51
aI64
aI37
aI68
aI52
aI53
aI35
aI29
aI43
aI46
aI41
aI33
aI41
aI72
aI62
aI47
aI43
aI71
aI64
aI71
aI35
aI48
aI63
aI35
aI40
aI56
aI46
aI50
aI41
aI8
aI13
aI14
aI16
aI14
aI10
aI17
aI14
aI16
aI13
aI12
aI10
aI10
aI14
aI6
aI7
aI15
aI9
aI11
aI7
aI8
aI9
aI8
aI9
aI7
aI4
aI8
aI5
aI53
aI48
aI55
aI76
aI57
aI59
aI39
aI53
aI53
aI42
aI62
aI50
aI45
aI53
aI51
aI41
aI40
aI47
aI52
aI64
aI69
aI71
aI53
aI68
aI55
aI50
aI44
aI37
aI47
aI66
aI61
aI42
aI81
aI58
aI52
aI47
aI66
aI46
aI60
aI50
aI48
aI65
aI61
aI52
aI28
aI38
aI36
aI37
aI63
aI54
aI69
aI69
aI38
aI30
aI51
aI66
aI43
aI49
aI49
aI58
aI30
aI69
aI63
aI48
aI62
aI64
aI73
aI67
aI45
aI67
aI87
aI47
aI44
aI46
aI40
aI59
aI35
aI43
aI29
aI55
aI28
aI59
aI60
aI52
aI43
aI45
aI60
aI47
aI34
aI62
aI51
aI30
aI27
aI32
aI56
aI38
aI53
aI46
aI62
aI49
aI53
aI53
aI49
aI69
aI44
aI70
aI43
aI68
aI52
aI39
aI34
aI45
aI54
aI52
aI48
aI56
aI49
aI43
aI59
aI49
aI50
aI51
aI39
aI54
aI66
aI62
aI45
aI51
aI35
aI39
aI50
aI61
aI51
aI29
aI49
aI69
aI52
aI39
aI48
aI48
aI49
aI28
aI52
aI17
aI46
aI39
aI48
aI2
aI3
aI4
aI4
aI3
aI3
aI3
aI3
aI3
aI3
aI3
aI2
aI3
aI2
aI4
aI3
aI1
aI2
aI4
aI2
aI3
aI00
tp16
a(F12026.82
(lp17
I4
aI5
aI53
aI56
aI57
aI65
aI55
aI53
aI47
aI45
aI47
aI65
aI54
aI60
aI63
aI51
aI64
aI37
aI68
aI52
aI53
aI35
aI29
aI43
aI46
aI41
aI33
aI41
aI72
aI62
aI47
aI43
aI71
aI64
aI71
aI35
aI48
aI63
aI35
aI40
aI56
aI46
aI50
aI41
aI8
aI13
aI14
aI16
aI14
aI10
aI17
aI14
aI16
aI13
aI12
aI10
aI10
aI14
aI6
aI7
aI15
aI9
aI11
aI7
aI8
aI9
aI8
aI9
aI7
aI4
aI8
aI5
aI53
aI48
aI55
aI76
aI57
aI59
aI39
aI53
aI53
aI42
aI62
aI50
aI45
aI53
aI51
aI41
aI40
aI47
aI52
aI64
aI69
aI71
aI53
aI68
aI55
aI50
aI44
aI37
aI47
aI66
aI61
aI42
aI81
aI58
aI52
aI47
aI66
aI46
aI60
aI50
aI48
aI65
aI61
aI52
aI28
aI38
aI36
aI37
aI63
aI54
aI69
aI69
aI38
aI30
aI51
aI66
aI43
aI49
aI49
aI58
aI30
aI69
aI63
aI48
aI62
aI64
aI73
aI67
aI45
aI67
aI87
aI47
aI44
aI46
aI40
aI59
aI35
aI43
aI29
aI55
aI28
aI59
aI60
aI52
aI43
aI45
aI60
aI47
aI34
aI62
aI51
aI30
aI27
aI32
aI56
aI38
aI53
aI46
aI62
aI49
aI53
aI53
aI49
aI69
aI44
aI70
aI43
aI68
aI52
aI39
aI34
aI45
aI54
aI52
aI48
aI56
aI49
aI43
aI59
aI49
aI50
aI51
aI39
aI54
aI66
aI62
aI45
aI51
aI35
aI39
aI50
aI61
aI51
aI29
aI49
aI69
aI52
aI39
aI48
aI48
aI49
aI28
aI52
aI17
aI46
aI39
aI48
aI2
aI3
aI4
aI4
aI3
aI3
aI3
aI3
aI3
aI3
aI3
aI2
aI3
aI2
aI4
aI3
aI1
aI2
aI4
aI2
aI3
aI00
tp18
a(F12025.68
(lp19
I4
aI5
aI53
aI57
aI58
aI64
aI54
aI55
aI47
aI45
aI47
aI65
aI53
aI60
aI64
aI50
aI64
aI37
aI69
aI53
aI54
aI35
aI29
aI43
aI46
aI42
aI34
aI41
aI71
aI62
aI46
aI42
aI70
aI64
aI71
aI35
aI48
aI62
aI34
aI40
aI55
aI47
aI50
aI41
aI7
aI14
aI15
aI16
aI14
aI10
aI18
aI14
aI16
aI13
aI12
aI10
aI10
aI14
aI7
aI7
aI15
aI9
aI11
aI7
aI8
aI9
aI8
aI8
aI7
aI4
aI8
aI5
aI51
aI47
aI54
aI76
aI57
aI59
aI39
aI53
aI53
aI42
aI62
aI52
aI44
aI52
aI50
aI41
aI39
aI46
aI52
aI64
aI69
aI71
aI54
aI67
aI56
aI51
aI45
aI38
aI47
aI66
aI62
aI42
aI81
aI58
aI53
aI48
aI65
aI47
aI61
aI50
aI50
aI64
aI61
aI51
aI28
aI39
aI37
aI37
aI64
aI53
aI70
aI69
aI37
aI31
aI51
aI67
aI42
aI50
aI49
aI58
aI30
aI70
aI62
aI48
aI62
aI64
aI73
aI68
aI44
aI67
aI87
aI46
aI43
aI46
aI41
aI59
aI36
aI43
aI29
aI54
aI28
aI59
aI61
aI52
aI45
aI45
aI60
aI47
aI34
aI62
aI51
aI30
aI27
aI32
aI55
aI38
aI53
aI46
aI63
aI49
aI53
aI53
aI49
aI70
aI45
aI69
aI43
aI67
aI51
aI40
aI33
aI45
aI55
aI51
aI49
aI56
aI50
aI43
aI59
aI49
aI48
aI52
aI38
aI55
aI67
aI61
aI45
aI52
aI35
aI38
aI49
aI61
aI53
aI28
aI49
aI69
aI52
aI39
aI47
aI48
aI49
aI28
aI52
aI17
aI46
aI39
aI48
aI2
aI3
aI4
aI4
aI3
aI3
aI3
aI3
aI3
aI3
aI3
aI2
aI3
aI2
aI4
aI3
aI1
aI2
aI4
aI2
aI3
aI00
tp20
a(F12022.98
(lp21
I4
aI5
aI53
aI56
aI57
aI65
aI54
aI55
aI47
aI45
aI47
aI66
aI54
aI61
aI64
aI51
aI65
aI37
aI69
aI52
aI53
aI35
aI29
aI44
aI46
aI42
aI33
aI41
aI72
aI63
aI46
aI43
aI71
aI64
aI71
aI35
aI48
aI63
aI34
aI39
aI56
aI47
aI50
aI41
aI8
aI13
aI14
aI16
aI14
aI10
aI17
aI14
aI16
aI13
aI12
aI10
aI10
aI14
aI6
aI7
aI15
aI9
aI11
aI7
aI8
aI9
aI8
aI9
aI7
aI4
aI8
aI5
aI52
aI48
aI54
aI76
aI57
aI58
aI38
aI53
aI52
aI41
aI62
aI52
aI44
aI53
aI51
aI41
aI39
aI47
aI52
aI65
aI70
aI71
aI54
aI68
aI56
aI50
aI44
aI37
aI47
aI66
aI61
aI41
aI82
aI57
aI53
aI47
aI66
aI46
aI60
aI51
aI50
aI65
aI61
aI52
aI27
aI38
aI36
aI37
aI64
aI54
aI71
aI69
aI38
aI30
aI51
aI67
aI43
aI49
aI50
aI59
aI29
aI69
aI63
aI47
aI62
aI64
aI73
aI68
aI45
aI68
aI87
aI47
aI44
aI46
aI40
aI60
aI35
aI44
aI28
aI54
aI27
aI60
aI60
aI53
aI44
aI45
aI61
aI47
aI34
aI63
aI51
aI29
aI26
aI32
aI55
aI37
aI53
aI47
aI64
aI49
aI53
aI53
aI49
aI69
aI44
aI70
aI43
aI68
aI52
aI39
aI34
aI45
aI55
aI52
aI48
aI56
aI49
aI43
aI59
aI50
aI49
aI52
aI39
aI54
aI66
aI62
aI45
aI52
aI35
aI38
aI50
aI60
aI52
aI29
aI47
aI71
aI52
aI39
aI48
aI48
aI49
aI27
aI52
aI17
aI45
aI40
aI48
aI2
aI3
aI4
aI4
aI3
aI3
aI3
aI3
aI3
aI3
aI3
aI2
aI3
aI2
aI4
aI3
aI1
aI2
aI4
aI2
aI3
aI00
tp22
a(F12022.98
(lp23
I4
aI5
aI53
aI56
aI57
aI65
aI54
aI54
aI47
aI45
aI47
aI66
aI54
aI61
aI64
aI51
aI65
aI37
aI69
aI51
aI53
aI35
aI29
aI44
aI46
aI41
aI33
aI41
aI72
aI63
aI46
aI43
aI72
aI64
aI72
aI35
aI48
aI63
aI34
aI39
aI56
aI46
aI50
aI41
aI8
aI13
aI14
aI16
aI14
aI10
aI17
aI14
aI16
aI13
aI12
aI10
aI10
aI14
aI6
aI7
aI15
aI9
aI11
aI7
aI8
aI9
aI8
aI9
aI7
aI4
aI8
aI5
aI53
aI48
aI54
aI76
aI57
aI59
aI38
aI53
aI52
aI41
aI62
aI51
aI44
aI54
aI51
aI41
aI39
aI47
aI52
aI65
aI70
aI71
aI54
aI68
aI55
aI50
aI44
aI37
aI47
aI66
aI61
aI41
aI81
aI57
aI53
aI47
aI66
aI46
aI60
aI51
aI49
aI65
aI61
aI52
aI27
aI38
aI36
aI37
aI64
aI54
aI70
aI70
aI38
aI29
aI51
aI67
aI43
aI49
aI50
aI59
aI29
aI69
aI64
aI47
aI62
aI64
aI73
aI67
aI45
aI68
aI87
aI47
aI44
aI46
aI40
aI60
aI35
aI44
aI28
aI55
aI27
aI60
aI60
aI53
aI43
aI45
aI61
aI47
aI34
aI63
aI51
aI29
aI25
aI31
aI56
aI38
aI53
aI47
aI63
aI49
aI53
aI53
aI49
aI69
aI44
aI71
aI43
aI68
aI52
aI38
aI34
aI45
aI55
aI52
aI48
aI56
aI49
aI43
aI59
aI50
aI50
aI52
aI39
aI54
aI66
aI63
aI45
aI52
aI35
aI38
aI50
aI60
aI51
aI29
aI48
aI71
aI52
aI39
aI48
aI48
aI49
aI27
aI52
aI17
aI45
aI40
aI48
aI2
aI3
aI4
aI4
aI3
aI3
aI3
aI3
aI3
aI3
aI3
aI2
aI3
aI2
aI4
aI3
aI1
aI2
aI4
aI2
aI3
aI00
tp24
a(F12022.98
(lp25
I4
aI5
aI53
aI56
aI57
aI65
aI54
aI53
aI47
aI45
aI47
aI66
aI54
aI61
aI64
aI51
aI64
aI37
aI69
aI51
aI53
aI35
aI29
aI44
aI46
aI40
aI33
aI41
aI72
aI63
aI46
aI43
aI72
aI64
aI71
aI35
aI48
aI63
aI34
aI39
aI56
aI45
aI50
aI41
aI8
aI13
aI14
aI16
aI14
aI10
aI17
aI14
aI16
aI13
aI12
aI10
aI10
aI14
aI6
aI7
aI15
aI9
aI11
aI7
aI8
aI9
aI8
aI9
aI7
aI4
aI8
aI5
aI53
aI48
aI55
aI76
aI57
aI59
aI38
aI53
aI52
aI42
aI62
aI50
aI44
aI54
aI51
aI41
aI39
aI47
aI52
aI65
aI70
aI71
aI53
aI68
aI55
aI50
aI44
aI37
aI47
aI66
aI61
aI41
aI81
aI57
aI53
aI47
aI66
aI46
aI60
aI51
aI48
aI65
aI61
aI52
aI27
aI38
aI36
aI37
aI64
aI54
aI70
aI69
aI38
aI29
aI51
aI66
aI43
aI49
aI50
aI59
aI29
aI69
aI64
aI47
aI62
aI64
aI73
aI66
aI45
aI68
aI87
aI47
aI44
aI46
aI40
aI60
aI35
aI44
aI28
aI55
aI27
aI60
aI60
aI53
aI42
aI45
aI61
aI47
aI34
aI63
aI51
aI29
aI25
aI32
aI57
aI38
aI53
aI47
aI62
aI49
aI53
aI53
aI49
aI69
aI44
aI71
aI43
aI68
aI52
aI38
aI34
aI45
aI54
aI52
aI48
aI56
aI49
aI43
aI59
aI49
aI50
aI51
aI39
aI54
aI66
aI63
aI45
aI51
aI35
aI38
aI50
aI60
aI51
aI29
aI48
aI71
aI52
aI39
aI48
aI48
aI49
aI27
aI52
aI17
aI45
aI40
aI48
aI2
aI3
aI4
aI4
aI3
aI3
aI3
aI3
aI3
aI3
aI3
aI2
aI3
aI2
aI4
aI3
aI1
aI2
aI4
aI2
aI3
aI00
tp26
a(F12022.98
(lp27
I4
aI5
aI53
aI56
aI57
aI65
aI54
aI53
aI47
aI45
aI47
aI66
aI54
aI61
aI64
aI51
aI64
aI37
aI69
aI51
aI53
aI35
aI29
aI44
aI46
aI40
aI33
aI41
aI72
aI63
aI46
aI43
aI72
aI64
aI71
aI35
aI48
aI63
aI34
aI39
aI56
aI45
aI50
aI41
aI8
aI13
aI14
aI16
aI14
aI10
aI17
aI14
aI16
aI13
aI12
aI10
aI10
aI14
aI6
aI7
aI15
aI9
aI11
aI7
aI8
aI9
aI8
aI9
aI7
aI4
aI8
aI5
aI53
aI48
aI55
aI76
aI57
aI59
aI38
aI53
aI52
aI42
aI62
aI50
aI44
aI54
aI51
aI41
aI39
aI47
aI52
aI65
aI70
aI71
aI53
aI68
aI55
aI50
aI44
aI37
aI47
aI66
aI61
aI41
aI81
aI57
aI53
aI47
aI66
aI46
aI60
aI51
aI48
aI65
aI61
aI52
aI27
aI38
aI36
aI37
aI64
aI54
aI70
aI69
aI38
aI29
aI51
aI66
aI43
aI49
aI50
aI59
aI29
aI69
aI64
aI47
aI62
aI64
aI73
aI66
aI45
aI68
aI87
aI47
aI44
aI46
aI40
aI60
aI35
aI44
aI28
aI55
aI27
aI60
aI60
aI53
aI42
aI45
aI61
aI47
aI34
aI63
aI51
aI29
aI25
aI32
aI57
aI38
aI53
aI47
aI62
aI49
aI53
aI53
aI49
aI69
aI44
aI71
aI43
aI68
aI52
aI38
aI34
aI45
aI54
aI52
aI48
aI56
aI49
aI43
aI59
aI49
aI50
aI51
aI39
aI54
aI66
aI63
aI45
aI51
aI35
aI38
aI50
aI60
aI51
aI29
aI48
aI71
aI52
aI39
aI48
aI48
aI49
aI27
aI52
aI17
aI45
aI40
aI48
aI2
aI3
aI4
aI4
aI3
aI3
aI3
aI3
aI3
aI3
aI3
aI2
aI3
aI2
aI4
aI3
aI1
aI2
aI4
aI2
aI3
aI00
tp28
a(F12022.98
(lp29
I4
aI5
aI53
aI56
aI57
aI65
aI54
aI53
aI47
aI45
aI47
aI66
aI54
aI61
aI64
aI51
aI64
aI37
aI69
aI51
aI53
aI35
aI29
aI44
aI46
aI40
aI33
aI41
aI72
aI63
aI46
aI43
aI72
aI64
aI71
aI35
aI48
aI63
aI34
aI39
aI56
aI45
aI50
aI41
aI8
aI13
aI14
aI16
aI14
aI10
aI17
aI14
aI16
aI13
aI12
aI10
aI10
aI14
aI6
aI7
aI15
aI9
aI11
aI7
aI8
aI9
aI8
aI9
aI7
aI4
aI8
aI5
aI53
aI48
aI55
aI76
aI57
aI59
aI38
aI53
aI52
aI42
aI62
aI50
aI44
aI54
aI51
aI41
aI39
aI47
aI52
aI65
aI70
aI71
aI53
aI68
aI55
aI50
aI44
aI37
aI47
aI66
aI61
aI41
aI81
aI57
aI53
aI47
aI66
aI46
aI60
aI51
aI48
aI65
aI61
aI52
aI27
aI38
aI36
aI37
aI64
aI54
aI70
aI69
aI38
aI29
aI51
aI66
aI43
aI49
aI50
aI59
aI29
aI69
aI64
aI47
aI62
aI64
aI73
aI66
aI45
aI68
aI87
aI47
aI44
aI46
aI40
aI60
aI35
aI44
aI28
aI55
aI27
aI60
aI60
aI53
aI42
aI45
aI61
aI47
aI34
aI63
aI51
aI29
aI25
aI32
aI57
aI38
aI53
aI47
aI62
aI49
aI53
aI53
aI49
aI69
aI44
aI71
aI43
aI68
aI52
aI38
aI34
aI45
aI54
aI52
aI48
aI56
aI49
aI43
aI59
aI49
aI50
aI51
aI39
aI54
aI66
aI63
aI45
aI51
aI35
aI38
aI50
aI60
aI51
aI29
aI48
aI71
aI52
aI39
aI48
aI48
aI49
aI27
aI52
aI17
aI45
aI40
aI48
aI2
aI3
aI4
aI4
aI3
aI3
aI3
aI3
aI3
aI3
aI3
aI2
aI3
aI2
aI4
aI3
aI1
aI2
aI4
aI2
aI3
aI00
tp30
a(F12022.98
(lp31
I4
aI5
aI53
aI56
aI57
aI65
aI54
aI53
aI47
aI45
aI47
aI66
aI54
aI61
aI64
aI51
aI64
aI37
aI69
aI51
aI53
aI35
aI29
aI44
aI46
aI40
aI33
aI41
aI72
aI63
aI46
aI43
aI72
aI64
aI71
aI35
aI48
aI63
aI34
aI39
aI56
aI45
aI50
aI41
aI8
aI13
aI14
aI16
aI14
aI10
aI17
aI14
aI16
aI13
aI12
aI10
aI10
aI14
aI6
aI7
aI15
aI9
aI11
aI7
aI8
aI9
aI8
aI9
aI7
aI4
aI8
aI5
aI53
aI48
aI55
aI76
aI57
aI59
aI38
aI53
aI52
aI42
aI62
aI50
aI44
aI54
aI51
aI41
aI39
aI47
aI52
aI65
aI70
aI71
aI53
aI68
aI55
aI50
aI44
aI37
aI47
aI66
aI61
aI41
aI81
aI57
aI53
aI47
aI66
aI46
aI60
aI51
aI48
aI65
aI61
aI52
aI27
aI38
aI36
aI37
aI64
aI54
aI70
aI69
aI38
aI29
aI51
aI66
aI43
aI49
aI50
aI59
aI29
aI69
aI64
aI47
aI62
aI64
aI73
aI66
aI45
aI68
aI87
aI47
aI44
aI46
aI40
aI60
aI35
aI44
aI28
aI55
aI27
aI60
aI60
aI53
aI42
aI45
aI61
aI47
aI34
aI63
aI51
aI29
aI25
aI32
aI57
aI38
aI53
aI47
aI62
aI49
aI53
aI53
aI49
aI69
aI44
aI71
aI43
aI68
aI52
aI38
aI34
aI45
aI54
aI52
aI48
aI56
aI49
aI43
aI59
aI49
aI50
aI51
aI39
aI54
aI66
aI63
aI45
aI51
aI35
aI38
aI50
aI60
aI51
aI29
aI48
aI71
aI52
aI39
aI48
aI48
aI49
aI27
aI52
aI17
aI45
aI40
aI48
aI2
aI3
aI4
aI4
aI3
aI3
aI3
aI3
aI3
aI3
aI3
aI2
aI3
aI2
aI4
aI3
aI1
aI2
aI4
aI2
aI3
aI00
tp32
a(F12022.98
(lp33
I4
aI5
aI53
aI56
aI57
aI65
aI54
aI53
aI47
aI45
aI47
aI66
aI54
aI61
aI64
aI51
aI64
aI37
aI69
aI51
aI53
aI35
aI29
aI44
aI46
aI40
aI33
aI41
aI72
aI63
aI46
aI43
aI72
aI64
aI71
aI35
aI48
aI63
aI34
aI39
aI56
aI45
aI50
aI41
aI8
aI13
aI14
aI16
aI14
aI10
aI17
aI14
aI16
aI13
aI12
aI10
aI10
aI14
aI6
aI7
aI15
aI9
aI11
aI7
aI8
aI9
aI8
aI9
aI7
aI4
aI8
aI5
aI53
aI48
aI55
aI76
aI57
aI59
aI38
aI53
aI52
aI42
aI62
aI50
aI44
aI54
aI51
aI41
aI39
aI47
aI52
aI65
aI70
aI71
aI53
aI68
aI55
aI50
aI44
aI37
aI47
aI66
aI61
aI41
aI81
aI57
aI53
aI47
aI66
aI46
aI60
aI51
aI48
aI65
aI61
aI52
aI27
aI38
aI36
aI37
aI64
aI54
aI70
aI69
aI38
aI29
aI51
aI66
aI43
aI49
aI50
aI59
aI29
aI69
aI64
aI47
aI62
aI64
aI73
aI66
aI45
aI68
aI87
aI47
aI44
aI46
aI40
aI60
aI35
aI44
aI28
aI55
aI27
aI60
aI60
aI53
aI42
aI45
aI61
aI47
aI34
aI63
aI51
aI29
aI25
aI32
aI57
aI38
aI53
aI47
aI62
aI49
aI53
aI53
aI49
aI69
aI44
aI71
aI43
aI68
aI52
aI38
aI34
aI45
aI54
aI52
aI48
aI56
aI49
aI43
aI59
aI49
aI50
aI51
aI39
aI54
aI66
aI63
aI45
aI51
aI35
aI38
aI50
aI60
aI51
aI29
aI48
aI71
aI52
aI39
aI48
aI48
aI49
aI27
aI52
aI17
aI45
aI40
aI48
aI2
aI3
aI4
aI4
aI3
aI3
aI3
aI3
aI3
aI3
aI3
aI2
aI3
aI2
aI4
aI3
aI1
aI2
aI4
aI2
aI3
aI00
tp34
a(F12022.55
(lp35
I4
aI5
aI54
aI57
aI57
aI66
aI53
aI55
aI45
aI44
aI47
aI67
aI53
aI60
aI65
aI50
aI67
aI35
aI70
aI53
aI54
aI35
aI31
aI45
aI45
aI42
aI34
aI40
aI72
aI62
aI45
aI42
aI70
aI65
aI73
aI35
aI47
aI64
aI33
aI38
aI56
aI48
aI52
aI39
aI7
aI14
aI15
aI16
aI15
aI10
aI18
aI14
aI17
aI13
aI12
aI10
aI10
aI14
aI6
aI7
aI15
aI9
aI11
aI7
aI7
aI9
aI8
aI8
aI7
aI4
aI8
aI5
aI51
aI47
aI53
aI76
aI59
aI57
aI37
aI51
aI53
aI39
aI64
aI53
aI43
aI53
aI50
aI40
aI38
aI46
aI51
aI64
aI70
aI73
aI55
aI67
aI57
aI51
aI46
aI35
aI48
aI67
aI62
aI42
aI83
aI58
aI54
aI48
aI65
aI47
aI61
aI51
aI50
aI64
aI63
aI51
aI27
aI39
aI37
aI38
aI65
aI53
aI72
aI71
aI37
aI31
aI51
aI69
aI42
aI50
aI50
aI58
aI28
aI71
aI62
aI46
aI64
aI62
aI74
aI69
aI43
aI67
aI88
aI46
aI43
aI46
aI41
aI61
aI35
aI43
aI26
aI54
aI26
aI59
aI62
aI54
aI44
aI45
aI62
aI46
aI33
aI64
aI50
aI30
aI26
aI30
aI55
aI36
aI52
aI47
aI65
aI51
aI54
aI54
aI47
aI70
aI42
aI69
aI44
aI67
aI50
aI39
aI33
aI44
aI56
aI51
aI49
aI55
aI50
aI43
aI60
aI52
aI48
aI53
aI38
aI55
aI67
aI61
aI46
aI53
aI35
aI37
aI51
aI61
aI53
aI28
aI45
aI71
aI53
aI38
aI46
aI47
aI51
aI26
aI51
aI15
aI45
aI39
aI48
aI2
aI3
aI4
aI4
aI3
aI3
aI3
aI3
aI3
aI3
aI3
aI2
aI3
aI2
aI4
aI3
aI1
aI2
aI4
aI2
aI3
aI00
tp36
a(F12022.55
(lp37
I4
aI5
aI53
aI56
aI57
aI65
aI54
aI54
aI46
aI44
aI47
aI66
aI54
aI60
aI65
aI50
aI65
aI36
aI69
aI52
aI54
aI35
aI30
aI45
aI46
aI41
aI33
aI41
aI72
aI62
aI46
aI43
aI71
aI64
aI72
aI35
aI48
aI63
aI33
aI39
aI56
aI46
aI51
aI40
aI8
aI13
aI14
aI16
aI14
aI10
aI17
aI14
aI16
aI13
aI12
aI10
aI10
aI14
aI6
aI7
aI15
aI9
aI11
aI7
aI8
aI9
aI8
aI9
aI7
aI4
aI8
aI5
aI52
aI48
aI54
aI76
aI58
aI58
aI38
aI52
aI53
aI41
aI63
aI51
aI44
aI53
aI51
aI41
aI39
aI46
aI52
aI64
aI70
aI72
aI54
aI67
aI56
aI50
aI45
aI36
aI47
aI66
aI61
aI41
aI82
aI58
aI53
aI47
aI66
aI47
aI60
aI51
aI49
aI65
aI62
aI52
aI27
aI39
aI37
aI37
aI64
aI53
aI71
aI70
aI38
aI30
aI51
aI67
aI43
aI49
aI50
aI59
aI29
aI70
aI63
aI47
aI63
aI63
aI73
aI68
aI44
aI67
aI87
aI46
aI44
aI46
aI40
aI60
aI35
aI43
aI27
aI54
aI27
aI60
aI61
aI53
aI43
aI45
aI62
aI47
aI34
aI63
aI51
aI30
aI26
aI31
aI56
aI37
aI53
aI47
aI63
aI50
aI53
aI53
aI48
aI70
aI43
aI70
aI43
aI67
aI51
aI39
aI34
aI45
aI55
aI52
aI48
aI56
aI49
aI43
aI59
aI50
aI49
aI52
aI39
aI55
aI67
aI62
aI45
aI52
aI35
aI37
aI50
aI60
aI52
aI29
aI47
aI71
aI52
aI39
aI47
aI48
aI50
aI26
aI52
aI16
aI45
aI39
aI48
aI2
aI3
aI4
aI4
aI3
aI3
aI3
aI3
aI3
aI3
aI3
aI2
aI3
aI2
aI4
aI3
aI1
aI2
aI4
aI2
aI3
aI00
tp38
a(F12016.42
(lp39
I4
aI5
aI54
aI57
aI57
aI65
aI53
aI57
aI45
aI43
aI47
aI67
aI53
aI59
aI66
aI49
aI68
aI35
aI69
aI53
aI55
aI35
aI32
aI46
aI45
aI43
aI34
aI40
aI72
aI62
aI45
aI42
aI70
aI65
aI74
aI35
aI47
aI64
aI32
aI38
aI56
aI49
aI52
aI39
aI7
aI14
aI15
aI16
aI15
aI10
aI18
aI14
aI17
aI13
aI12
aI10
aI10
aI14
aI6
aI7
aI15
aI9
aI11
aI7
aI7
aI9
aI8
aI8
aI7
aI4
aI8
aI5
aI50
aI47
aI51
aI76
aI59
aI56
aI38
aI51
aI54
aI38
aI64
aI54
aI44
aI52
aI50
aI40
aI38
aI45
aI52
aI63
aI69
aI73
aI57
aI66
aI57
aI51
aI46
aI35
aI48
aI67
aI61
aI42
aI83
aI59
aI54
aI48
aI65
aI48
aI61
aI50
aI52
aI64
aI63
aI52
aI28
aI40
aI38
aI38
aI65
aI52
aI73
aI72
aI38
aI31
aI51
aI70
aI42
aI50
aI50
aI58
aI29
aI71
aI62
aI47
aI63
aI61
aI74
aI71
aI43
aI67
aI88
aI45
aI43
aI46
aI41
aI60
aI35
aI42
aI25
aI53
aI26
aI59
aI62
aI54
aI45
aI45
aI63
aI46
aI33
aI62
aI50
aI30
aI27
aI29
aI54
aI36
aI52
aI47
aI66
aI51
aI54
aI54
aI47
aI71
aI42
aI69
aI44
aI66
aI50
aI40
aI33
aI44
aI57
aI51
aI49
aI55
aI50
aI43
aI60
aI53
aI48
aI54
aI39
aI56
aI68
aI61
aI46
aI54
aI35
aI36
aI51
aI61
aI53
aI28
aI44
aI71
aI53
aI38
aI46
aI47
aI51
aI25
aI51
aI15
aI45
aI38
aI48
aI2
aI3
aI4
aI4
aI3
aI3
aI3
aI3
aI3
aI3
aI3
aI2
aI3
aI2
aI4
aI3
aI1
aI2
aI4
aI2
aI3
aI00
tp40
a(F12016.42
(lp41
I4
aI5
aI54
aI57
aI57
aI65
aI53
aI57
aI45
aI43
aI47
aI67
aI53
aI59
aI66
aI49
aI68
aI35
aI69
aI53
aI55
aI35
aI32
aI46
aI45
aI43
aI34
aI40
aI72
aI62
aI45
aI42
aI70
aI64
aI74
aI35
aI48
aI64
aI32
aI38
aI56
aI49
aI52
aI39
aI7
aI14
aI15
aI16
aI15
aI10
aI18
aI14
aI17
aI13
aI12
aI10
aI10
aI14
aI6
aI7
aI15
aI9
aI11
aI7
aI7
aI9
aI8
aI8
aI7
aI4
aI8
aI5
aI50
aI47
aI51
aI76
aI58
aI56
aI38
aI51
aI54
aI38
aI64
aI54
aI44
aI52
aI50
aI40
aI38
aI45
aI52
aI63
aI69
aI73
aI57
aI66
aI57
aI51
aI46
aI36
aI47
aI66
aI61
aI42
aI83
aI59
aI54
aI47
aI65
aI48
aI61
aI50
aI52
aI64
aI63
aI52
aI28
aI40
aI38
aI38
aI65
aI52
aI74
aI71
aI38
aI31
aI51
aI70
aI42
aI50
aI50
aI58
aI29
aI71
aI62
aI47
aI63
aI61
aI74
aI71
aI43
aI67
aI88
aI45
aI43
aI46
aI41
aI60
aI35
aI42
aI25
aI53
aI26
aI59
aI62
aI54
aI45
aI45
aI63
aI46
aI33
aI62
aI50
aI30
aI27
aI30
aI54
aI36
aI52
aI47
aI66
aI51
aI53
aI54
aI47
aI71
aI42
aI69
aI44
aI66
aI50
aI40
aI33
aI44
aI57
aI51
aI49
aI55
aI50
aI43
aI60
aI53
aI48
aI54
aI39
aI56
aI68
aI61
aI46
aI54
aI35
aI36
aI51
aI61
aI53
aI28
aI44
aI71
aI53
aI38
aI46
aI47
aI51
aI25
aI51
aI15
aI45
aI38
aI48
aI2
aI3
aI4
aI4
aI3
aI3
aI3
aI3
aI3
aI3
aI3
aI2
aI3
aI2
aI4
aI3
aI1
aI2
aI4
aI2
aI3
aI00
tp42
a(F12013.3
(lp43
I4
aI5
aI53
aI56
aI57
aI65
aI54
aI53
aI47
aI45
aI47
aI65
aI54
aI61
aI63
aI51
aI63
aI37
aI69
aI51
aI53
aI35
aI29
aI43
aI46
aI40
aI33
aI41
aI72
aI63
aI46
aI43
aI72
aI64
aI71
aI35
aI48
aI63
aI35
aI40
aI56
aI45
aI50
aI41
aI8
aI13
aI14
aI16
aI14
aI10
aI17
aI14
aI16
aI13
aI12
aI10
aI10
aI14
aI6
aI7
aI15
aI9
aI11
aI7
aI8
aI9
aI8
aI9
aI7
aI4
aI8
aI5
aI53
aI48
aI55
aI76
aI57
aI59
aI38
aI53
aI52
aI43
aI62
aI50
aI44
aI53
aI51
aI41
aI39
aI47
aI52
aI65
aI70
aI71
aI53
aI68
aI55
aI50
aI44
aI38
aI47
aI66
aI61
aI41
aI81
aI57
aI53
aI47
aI66
aI46
aI60
aI51
aI48
aI65
aI61
aI52
aI27
aI38
aI36
aI37
aI63
aI54
aI69
aI68
aI38
aI29
aI51
aI66
aI43
aI49
aI50
aI59
aI29
aI69
aI64
aI47
aI62
aI64
aI73
aI66
aI45
aI68
aI87
aI47
aI44
aI46
aI40
aI59
aI35
aI44
aI29
aI55
aI28
aI60
aI60
aI53
aI42
aI45
aI60
aI47
aI34
aI63
aI51
aI29
aI26
aI32
aI57
aI38
aI53
aI47
aI62
aI49
aI53
aI53
aI49
aI69
aI45
aI71
aI43
aI68
aI52
aI39
aI34
aI45
aI54
aI52
aI48
aI56
aI49
aI43
aI59
aI48
aI50
aI51
aI39
aI54
aI66
aI63
aI45
aI51
aI35
aI39
aI50
aI60
aI51
aI29
aI49
aI70
aI52
aI39
aI48
aI48
aI49
aI28
aI52
aI17
aI45
aI40
aI48
aI2
aI3
aI4
aI4
aI3
aI3
aI3
aI3
aI3
aI3
aI3
aI2
aI3
aI2
aI4
aI3
aI1
aI2
aI4
aI2
aI3
aI00
tp44
a(F12013.3
(lp45
I4
aI5
aI53
aI56
aI57
aI65
aI54
aI53
aI47
aI45
aI47
aI65
aI54
aI61
aI63
aI51
aI63
aI37
aI69
aI51
aI53
aI35
aI29
aI43
aI46
aI40
aI33
aI41
aI72
aI63
aI46
aI43
aI72
aI64
aI71
aI35
aI48
aI63
aI35
aI40
aI56
aI45
aI50
aI41
aI8
aI13
aI14
aI16
aI14
aI10
aI17
aI14
aI16
aI13
aI12
aI10
aI10
aI14
aI6
aI7
aI15
aI9
aI11
aI7
aI8
aI9
aI8
aI9
aI7
aI4
aI8
aI5
aI53
aI48
aI55
aI76
aI57
aI59
aI38
aI53
aI52
aI43
aI62
aI50
aI44
aI53
aI51
aI41
aI39
aI47
aI52
aI65
aI70
aI71
aI53
aI68
aI55
aI50
aI44
aI38
aI47
aI66
aI61
aI41
aI81
aI57
aI53
aI47
aI66
aI46
aI60
aI51
aI48
aI65
aI61
aI52
aI27
aI38
aI36
aI37
aI63
aI54
aI69
aI68
aI38
aI29
aI51
aI66
aI43
aI49
aI50
aI59
aI29
aI69
aI64
aI47
aI62
aI64
aI73
aI66
aI45
aI68
aI87
aI47
aI44
aI46
aI40
aI59
aI35
aI44
aI29
aI55
aI28
aI60
aI60
aI53
aI42
aI45
aI60
aI47
aI34
aI63
aI51
aI29
aI26
aI32
aI57
aI38
aI53
aI47
aI62
aI49
aI53
aI53
aI49
aI69
aI45
aI71
aI43
aI68
aI52
aI39
aI34
aI45
aI54
aI52
aI48
aI56
aI49
aI43
aI59
aI48
aI50
aI51
aI39
aI54
aI66
aI63
aI45
aI51
aI35
aI39
aI50
aI60
aI51
aI29
aI49
aI70
aI52
aI39
aI48
aI48
aI49
aI28
aI52
aI17
aI45
aI40
aI48
aI2
aI3
aI4
aI4
aI3
aI3
aI3
aI3
aI3
aI3
aI3
aI2
aI3
aI2
aI4
aI3
aI1
aI2
aI4
aI2
aI3
aI00
tp46
a(F12013.3
(lp47
I4
aI5
aI53
aI56
aI57
aI64
aI55
aI54
aI48
aI45
aI47
aI65
aI54
aI60
aI63
aI51
aI64
aI38
aI68
aI52
aI53
aI35
aI29
aI43
aI46
aI41
aI33
aI41
aI72
aI62
aI47
aI43
aI71
aI63
aI71
aI35
aI49
aI62
aI35
aI40
aI56
aI46
aI50
aI41
aI8
aI13
aI14
aI16
aI14
aI10
aI17
aI14
aI16
aI13
aI12
aI10
aI10
aI14
aI6
aI7
aI15
aI9
aI11
aI7
aI8
aI9
aI8
aI9
aI7
aI4
aI8
aI5
aI52
aI48
aI54
aI76
aI56
aI59
aI39
aI54
aI53
aI42
aI62
aI50
aI45
aI52
aI51
aI41
aI40
aI47
aI52
aI64
aI69
aI70
aI54
aI68
aI55
aI50
aI44
aI38
aI47
aI66
aI61
aI42
aI81
aI57
aI52
aI47
aI66
aI46
aI60
aI51
aI49
aI65
aI60
aI52
aI28
aI38
aI36
aI36
aI63
aI54
aI69
aI69
aI38
aI30
aI51
aI66
aI43
aI49
aI50
aI59
aI30
aI69
aI63
aI48
aI61
aI63
aI72
aI67
aI45
aI67
aI86
aI47
aI44
aI46
aI40
aI59
aI35
aI44
aI30
aI55
aI28
aI59
aI60
aI52
aI44
aI45
aI60
aI47
aI35
aI62
aI51
aI30
aI27
aI32
aI56
aI39
aI54
aI46
aI62
aI49
aI53
aI53
aI49
aI69
aI45
aI70
aI43
aI68
aI52
aI40
aI34
aI46
aI54
aI52
aI48
aI56
aI49
aI43
aI58
aI49
aI49
aI51
aI39
aI54
aI66
aI62
aI45
aI52
aI35
aI39
aI49
aI60
aI51
aI29
aI48
aI70
aI52
aI39
aI48
aI48
aI49
aI28
aI52
aI18
aI46
aI40
aI48
aI2
aI3
aI4
aI4
aI3
aI3
aI3
aI3
aI3
aI3
aI3
aI2
aI3
aI2
aI4
aI3
aI1
aI2
aI4
aI2
aI3
aI00
tp48
a(F12012.86
(lp49
I4
aI5
aI53
aI56
aI57
aI65
aI54
aI54
aI47
aI45
aI47
aI66
aI54
aI60
aI64
aI51
aI65
aI37
aI68
aI52
aI53
aI35
aI29
aI44
aI46
aI41
aI33
aI41
aI72
aI62
aI47
aI43
aI71
aI64
aI72
aI35
aI48
aI63
aI34
aI40
aI56
aI46
aI50
aI41
aI8
aI13
aI14
aI16
aI14
aI10
aI17
aI14
aI16
aI13
aI12
aI10
aI10
aI14
aI6
aI7
aI15
aI9
aI11
aI7
aI8
aI9
aI8
aI9
aI7
aI4
aI8
aI5
aI53
aI48
aI54
aI76
aI57
aI59
aI39
aI53
aI53
aI41
aI62
aI51
aI45
aI53
aI51
aI41
aI39
aI47
aI52
aI64
aI69
aI71
aI54
aI68
aI55
aI50
aI44
aI37
aI47
aI66
aI61
aI42
aI81
aI58
aI52
aI47
aI66
aI46
aI60
aI50
aI49
aI65
aI61
aI52
aI28
aI38
aI36
aI37
aI64
aI54
aI70
aI70
aI38
aI30
aI51
aI67
aI43
aI49
aI49
aI58
aI30
aI69
aI63
aI48
aI62
aI64
aI73
aI68
aI45
aI67
aI87
aI47
aI44
aI46
aI40
aI59
aI35
aI43
aI28
aI55
aI28
aI59
aI60
aI52
aI43
aI45
aI61
aI47
aI34
aI62
aI51
aI30
aI27
aI31
aI56
aI38
aI53
aI46
aI63
aI49
aI53
aI53
aI49
aI69
aI44
aI70
aI43
aI68
aI52
aI39
aI34
aI45
aI55
aI52
aI48
aI56
aI49
aI43
aI59
aI50
aI50
aI52
aI39
aI54
aI66
aI62
aI45
aI52
aI35
aI38
aI50
aI61
aI51
aI29
aI48
aI70
aI52
aI39
aI48
aI48
aI49
aI27
aI52
aI17
aI46
aI39
aI48
aI2
aI3
aI4
aI4
aI3
aI3
aI3
aI3
aI3
aI3
aI3
aI2
aI3
aI2
aI4
aI3
aI1
aI2
aI4
aI2
aI3
aI00
tp50
a(F12012.86
(lp51
I4
aI5
aI53
aI56
aI57
aI65
aI54
aI54
aI46
aI45
aI47
aI66
aI54
aI60
aI64
aI50
aI65
aI37
aI69
aI52
aI54
aI35
aI30
aI44
aI46
aI41
aI33
aI41
aI72
aI62
aI46
aI43
aI71
aI64
aI72
aI35
aI48
aI63
aI34
aI39
aI56
aI46
aI51
aI40
aI8
aI13
aI14
aI16
aI14
aI10
aI17
aI14
aI16
aI13
aI12
aI10
aI10
aI14
aI6
aI7
aI15
aI9
aI11
aI7
aI8
aI9
aI8
aI9
aI7
aI4
aI8
aI5
aI52
aI48
aI54
aI76
aI57
aI58
aI38
aI52
aI53
aI41
aI63
aI51
aI44
aI53
aI51
aI41
aI39
aI46
aI52
aI64
aI69
aI71
aI54
aI67
aI56
aI50
aI45
aI37
aI47
aI66
aI61
aI42
aI82
aI58
aI53
aI47
aI66
aI46
aI60
aI51
aI49
aI65
aI61
aI52
aI28
aI39
aI37
aI37
aI64
aI53
aI71
aI70
aI38
aI30
aI51
aI67
aI43
aI49
aI50
aI59
aI29
aI70
aI63
aI47
aI62
aI63
aI73
aI68
aI44
aI67
aI87
aI46
aI44
aI46
aI40
aI60
aI35
aI43
aI28
aI54
aI27
aI59
aI61
aI53
aI44
aI45
aI61
aI47
aI34
aI63
aI51
aI30
aI26
aI31
aI56
aI37
aI53
aI47
aI63
aI50
aI53
aI53
aI49
aI69
aI44
aI70
aI43
aI67
aI51
aI39
aI34
aI45
aI55
aI52
aI48
aI56
aI50
aI43
aI59
aI50
aI49
aI52
aI39
aI55
aI67
aI62
aI45
aI52
aI35
aI38
aI50
aI60
aI52
aI29
aI47
aI70
aI52
aI39
aI47
aI48
aI50
aI27
aI52
aI17
aI46
aI39
aI48
aI2
aI3
aI4
aI4
aI3
aI3
aI3
aI3
aI3
aI3
aI3
aI2
aI3
aI2
aI4
aI3
aI1
aI2
aI4
aI2
aI3
aI00
tp52
a(F12012.86
(lp53
I4
aI5
aI53
aI56
aI57
aI65
aI54
aI54
aI46
aI45
aI47
aI66
aI54
aI60
aI64
aI50
aI65
aI37
aI69
aI52
aI54
aI35
aI30
aI44
aI46
aI41
aI33
aI41
aI72
aI62
aI46
aI43
aI71
aI64
aI72
aI35
aI48
aI63
aI34
aI39
aI56
aI46
aI51
aI40
aI8
aI13
aI14
aI16
aI14
aI10
aI17
aI14
aI16
aI13
aI12
aI10
aI10
aI14
aI6
aI7
aI15
aI9
aI11
aI7
aI8
aI9
aI8
aI9
aI7
aI4
aI8
aI5
aI52
aI48
aI54
aI76
aI57
aI58
aI38
aI52
aI53
aI41
aI63
aI51
aI44
aI53
aI51
aI41
aI39
aI46
aI52
aI64
aI69
aI71
aI54
aI67
aI56
aI50
aI45
aI37
aI47
aI66
aI61
aI42
aI82
aI58
aI53
aI47
aI66
aI46
aI60
aI51
aI49
aI65
aI61
aI52
aI28
aI39
aI37
aI37
aI64
aI53
aI71
aI70
aI38
aI30
aI51
aI67
aI43
aI49
aI50
aI59
aI29
aI70
aI63
aI47
aI62
aI63
aI73
aI68
aI44
aI67
aI87
aI46
aI44
aI46
aI40
aI60
aI35
aI43
aI28
aI54
aI27
aI59
aI61
aI53
aI44
aI45
aI61
aI47
aI34
aI63
aI51
aI30
aI26
aI31
aI56
aI37
aI53
aI47
aI63
aI50
aI53
aI53
aI49
aI69
aI44
aI70
aI43
aI67
aI51
aI39
aI34
aI45
aI55
aI52
aI48
aI56
aI50
aI43
aI59
aI50
aI49
aI52
aI39
aI55
aI67
aI62
aI45
aI52
aI35
aI38
aI50
aI60
aI52
aI29
aI47
aI70
aI52
aI39
aI47
aI48
aI50
aI27
aI52
aI17
aI46
aI39
aI48
aI2
aI3
aI4
aI4
aI3
aI3
aI3
aI3
aI3
aI3
aI3
aI2
aI3
aI2
aI4
aI3
aI1
aI2
aI4
aI2
aI3
aI00
tp54
a(F12012.86
(lp55
I4
aI5
aI53
aI56
aI57
aI65
aI54
aI54
aI46
aI45
aI47
aI66
aI54
aI60
aI64
aI50
aI65
aI37
aI69
aI52
aI54
aI35
aI30
aI44
aI46
aI41
aI33
aI41
aI72
aI62
aI46
aI43
aI71
aI64
aI72
aI35
aI48
aI63
aI34
aI39
aI56
aI46
aI51
aI40
aI8
aI13
aI14
aI16
aI14
aI10
aI17
aI14
aI16
aI13
aI12
aI10
aI10
aI14
aI6
aI7
aI15
aI9
aI11
aI7
aI8
aI9
aI8
aI9
aI7
aI4
aI8
aI5
aI52
aI48
aI54
aI76
aI57
aI58
aI38
aI52
aI53
aI41
aI63
aI51
aI44
aI53
aI51
aI41
aI39
aI46
aI52
aI64
aI69
aI71
aI54
aI67
aI56
aI50
aI45
aI37
aI47
aI66
aI61
aI42
aI82
aI58
aI53
aI47
aI66
aI46
aI60
aI51
aI49
aI65
aI61
aI52
aI28
aI39
aI37
aI37
aI64
aI53
aI70
aI70
aI38
aI30
aI51
aI67
aI43
aI49
aI50
aI59
aI29
aI70
aI63
aI47
aI62
aI63
aI73
aI68
aI44
aI67
aI87
aI46
aI44
aI46
aI40
aI60
aI35
aI43
aI28
aI54
aI27
aI59
aI61
aI53
aI44
aI45
aI61
aI47
aI34
aI63
aI51
aI30
aI26
aI31
aI56
aI37
aI53
aI47
aI63
aI50
aI53
aI53
aI49
aI69
aI44
aI70
aI43
aI67
aI51
aI39
aI34
aI45
aI55
aI52
aI48
aI56
aI50
aI43
aI59
aI50
aI49
aI52
aI39
aI55
aI67
aI62
aI45
aI52
aI35
aI38
aI50
aI60
aI52
aI29
aI48
aI70
aI52
aI39
aI47
aI48
aI50
aI27
aI52
aI17
aI46
aI39
aI48
aI2
aI3
aI4
aI4
aI3
aI3
aI3
aI3
aI3
aI3
aI3
aI2
aI3
aI2
aI4
aI3
aI1
aI2
aI4
aI2
aI3
aI00
tp56
a(F12011.73
(lp57
I4
aI5
aI54
aI57
aI58
aI65
aI53
aI56
aI45
aI44
aI47
aI67
aI53
aI60
aI65
aI50
aI67
aI36
aI69
aI53
aI54
aI35
aI31
aI45
aI45
aI43
aI34
aI41
aI72
aI62
aI45
aI42
aI70
aI64
aI74
aI35
aI48
aI64
aI32
aI38
aI56
aI48
aI51
aI39
aI7
aI14
aI15
aI16
aI15
aI10
aI18
aI14
aI17
aI13
aI12
aI10
aI10
aI14
aI6
aI7
aI15
aI9
aI11
aI7
aI7
aI9
aI8
aI8
aI7
aI4
aI8
aI5
aI51
aI47
aI52
aI76
aI58
aI57
aI38
aI51
aI53
aI38
aI63
aI54
aI44
aI52
aI51
aI40
aI38
aI46
aI52
aI64
aI69
aI72
aI56
aI67
aI57
aI51
aI45
aI36
aI47
aI66
aI62
aI42
aI83
aI58
aI54
aI48
aI65
aI47
aI61
aI50
aI51
aI64
aI62
aI51
aI28
aI39
aI37
aI38
aI65
aI53
aI72
aI71
aI37
aI31
aI51
aI70
aI42
aI50
aI49
aI58
aI29
aI71
aI62
aI47
aI63
aI62
aI74
aI70
aI43
aI67
aI88
aI46
aI43
aI46
aI41
aI60
aI35
aI43
aI27
aI53
aI26
aI59
aI61
aI54
aI45
aI45
aI62
aI46
aI33
aI63
aI50
aI30
aI27
aI30
aI54
aI36
aI52
aI47
aI66
aI50
aI53
aI53
aI48
aI70
aI43
aI69
aI44
aI67
aI51
aI39
aI33
aI44
aI57
aI51
aI49
aI55
aI50
aI43
aI60
aI53
aI48
aI54
aI38
aI55
aI67
aI61
aI46
aI54
aI35
aI37
aI51
aI61
aI53
aI28
aI46
aI70
aI53
aI38
aI46
aI48
aI50
aI26
aI51
aI16
aI46
aI39
aI48
aI2
aI3
aI4
aI4
aI3
aI3
aI3
aI3
aI3
aI3
aI3
aI2
aI3
aI2
aI4
aI3
aI1
aI2
aI4
aI2
aI3
aI00
tp58
a(F12011.73
(lp59
I4
aI5
aI54
aI57
aI58
aI65
aI53
aI55
aI45
aI44
aI47
aI67
aI53
aI60
aI65
aI50
aI66
aI36
aI69
aI53
aI54
aI35
aI31
aI45
aI45
aI42
aI34
aI41
aI72
aI62
aI45
aI42
aI70
aI65
aI73
aI35
aI47
aI64
aI32
aI38
aI56
aI47
aI51
aI39
aI7
aI14
aI15
aI16
aI15
aI10
aI18
aI14
aI17
aI13
aI12
aI10
aI10
aI14
aI6
aI7
aI15
aI9
aI11
aI7
aI7
aI9
aI8
aI8
aI7
aI4
aI8
aI5
aI51
aI47
aI53
aI76
aI58
aI57
aI38
aI51
aI53
aI39
aI63
aI53
aI44
aI52
aI51
aI40
aI38
aI46
aI52
aI64
aI69
aI72
aI55
aI67
aI57
aI51
aI45
aI36
aI47
aI66
aI62
aI42
aI83
aI58
aI54
aI48
aI65
aI47
aI61
aI50
aI50
aI64
aI62
aI51
aI28
aI39
aI37
aI38
aI65
aI53
aI72
aI71
aI37
aI31
aI51
aI69
aI42
aI50
aI49
aI58
aI29
aI71
aI62
aI47
aI63
aI62
aI74
aI69
aI43
aI67
aI88
aI46
aI43
aI46
aI41
aI59
aI36
aI43
aI27
aI54
aI26
aI59
aI61
aI54
aI44
aI45
aI62
aI46
aI33
aI63
aI50
aI30
aI27
aI30
aI55
aI36
aI52
aI47
aI65
aI50
aI53
aI53
aI48
aI70
aI43
aI69
aI44
aI67
aI51
aI39
aI33
aI44
aI56
aI51
aI49
aI55
aI50
aI43
aI60
aI52
aI48
aI53
aI38
aI55
aI67
aI61
aI46
aI53
aI35
aI37
aI51
aI61
aI53
aI28
aI46
aI70
aI53
aI38
aI46
aI48
aI50
aI26
aI51
aI16
aI46
aI39
aI48
aI2
aI3
aI4
aI4
aI3
aI3
aI3
aI3
aI3
aI3
aI3
aI2
aI3
aI2
aI4
aI3
aI1
aI2
aI4
aI2
aI3
aI00
tp60
a(F12011.73
(lp61
I4
aI5
aI54
aI56
aI59
aI65
aI53
aI56
aI46
aI43
aI47
aI67
aI52
aI60
aI65
aI49
aI67
aI35
aI68
aI54
aI55
aI34
aI31
aI44
aI46
aI43
aI34
aI41
aI72
aI62
aI46
aI42
aI69
aI64
aI73
aI35
aI48
aI63
aI32
aI39
aI55
aI48
aI51
aI39
aI7
aI14
aI15
aI16
aI15
aI10
aI18
aI14
aI16
aI13
aI12
aI10
aI10
aI14
aI6
aI7
aI15
aI9
aI11
aI7
aI7
aI9
aI8
aI8
aI7
aI4
aI8
aI5
aI51
aI47
aI52
aI75
aI57
aI56
aI38
aI52
aI53
aI39
aI63
aI54
aI44
aI52
aI52
aI41
aI39
aI45
aI52
aI64
aI69
aI72
aI56
aI66
aI58
aI51
aI46
aI37
aI46
aI65
aI62
aI41
aI84
aI59
aI54
aI47
aI66
aI48
aI61
aI50
aI51
aI65
aI63
aI51
aI28
aI39
aI37
aI37
aI65
aI53
aI73
aI71
aI37
aI31
aI51
aI69
aI42
aI49
aI48
aI58
aI29
aI71
aI63
aI46
aI63
aI63
aI74
aI70
aI43
aI67
aI87
aI46
aI44
aI46
aI40
aI60
aI35
aI42
aI27
aI53
aI26
aI59
aI61
aI53
aI46
aI44
aI61
aI47
aI33
aI62
aI50
aI30
aI26
aI30
aI54
aI35
aI52
aI46
aI66
aI50
aI52
aI53
aI48
aI70
aI43
aI69
aI44
aI67
aI50
aI40
aI34
aI45
aI56
aI50
aI49
aI56
aI50
aI44
aI60
aI52
aI48
aI54
aI38
aI56
aI67
aI61
aI45
aI54
aI35
aI37
aI50
aI61
aI53
aI29
aI45
aI70
aI52
aI38
aI46
aI48
aI50
aI26
aI52
aI16
aI46
aI39
aI48
aI2
aI3
aI4
aI4
aI3
aI3
aI3
aI3
aI3
aI3
aI3
aI2
aI3
aI2
aI4
aI3
aI1
aI2
aI4
aI2
aI3
aI00
tp62
a(F12011.73
(lp63
I4
aI5
aI54
aI56
aI59
aI65
aI53
aI55
aI46
aI43
aI47
aI67
aI52
aI60
aI65
aI49
aI66
aI35
aI68
aI53
aI55
aI34
aI31
aI44
aI46
aI42
aI34
aI41
aI72
aI62
aI46
aI42
aI70
aI63
aI73
aI35
aI49
aI63
aI32
aI39
aI55
aI47
aI51
aI39
aI7
aI14
aI15
aI16
aI15
aI10
aI18
aI14
aI16
aI13
aI12
aI10
aI10
aI14
aI6
aI7
aI15
aI9
aI11
aI7
aI7
aI9
aI8
aI8
aI7
aI4
aI8
aI5
aI51
aI47
aI53
aI75
aI57
aI57
aI38
aI52
aI53
aI40
aI63
aI53
aI44
aI52
aI52
aI41
aI39
aI45
aI52
aI64
aI69
aI72
aI55
aI66
aI57
aI51
aI46
aI37
aI46
aI65
aI62
aI41
aI83
aI59
aI54
aI47
aI66
aI48
aI61
aI50
aI50
aI65
aI63
aI51
aI28
aI39
aI37
aI37
aI65
aI53
aI72
aI70
aI37
aI31
aI51
aI68
aI42
aI49
aI48
aI58
aI29
aI71
aI63
aI46
aI63
aI63
aI74
aI69
aI43
aI67
aI87
aI46
aI44
aI46
aI40
aI61
aI34
aI42
aI27
aI53
aI26
aI59
aI61
aI53
aI45
aI44
aI61
aI47
aI33
aI62
aI50
aI30
aI26
aI31
aI55
aI36
aI52
aI46
aI65
aI50
aI52
aI53
aI48
aI70
aI43
aI69
aI44
aI67
aI50
aI40
aI34
aI45
aI56
aI50
aI49
aI56
aI50
aI44
aI60
aI51
aI48
aI53
aI38
aI56
aI67
aI61
aI45
aI53
aI35
aI37
aI50
aI61
aI53
aI29
aI46
aI70
aI52
aI38
aI46
aI48
aI50
aI26
aI52
aI16
aI46
aI39
aI48
aI2
aI3
aI4
aI4
aI3
aI3
aI3
aI3
aI3
aI3
aI3
aI2
aI3
aI2
aI4
aI3
aI1
aI2
aI4
aI2
aI3
aI00
tp64
a(F12011.73
(lp65
I4
aI5
aI53
aI57
aI58
aI64
aI53
aI56
aI46
aI44
aI47
aI66
aI53
aI60
aI65
aI50
aI66
aI36
aI69
aI53
aI54
aI35
aI30
aI44
aI45
aI43
aI34
aI41
aI71
aI62
aI46
aI42
aI70
aI64
aI72
aI35
aI48
aI63
aI33
aI40
aI55
aI48
aI51
aI40
aI7
aI14
aI15
aI16
aI14
aI10
aI18
aI14
aI16
aI13
aI12
aI10
aI10
aI14
aI7
aI7
aI15
aI9
aI11
aI7
aI8
aI9
aI8
aI8
aI7
aI4
aI8
aI5
aI50
aI47
aI53
aI76
aI58
aI58
aI39
aI52
aI53
aI40
aI63
aI53
aI44
aI52
aI50
aI40
aI38
aI46
aI52
aI64
aI69
aI72
aI55
aI67
aI56
aI51
aI45
aI37
aI47
aI66
aI62
aI42
aI82
aI58
aI53
aI48
aI65
aI47
aI61
aI50
aI51
aI64
aI62
aI51
aI28
aI39
aI37
aI37
aI65
aI53
aI71
aI70
aI37
aI31
aI51
aI68
aI42
aI50
aI49
aI58
aI30
aI70
aI61
aI48
aI63
aI63
aI73
aI69
aI44
aI67
aI87
aI46
aI43
aI46
aI41
aI59
aI36
aI43
aI27
aI54
aI27
aI59
aI61
aI53
aI45
aI45
aI61
aI47
aI34
aI62
aI50
aI30
aI27
aI31
aI54
aI37
aI53
aI46
aI65
aI50
aI53
aI53
aI48
aI70
aI44
aI69
aI44
aI67
aI51
aI40
aI33
aI45
aI56
aI51
aI49
aI56
aI50
aI43
aI59
aI51
aI48
aI53
aI38
aI55
aI67
aI61
aI46
aI53
aI35
aI37
aI50
aI61
aI53
aI28
aI47
aI70
aI53
aI38
aI47
aI48
aI50
aI27
aI51
aI16
aI46
aI39
aI48
aI2
aI3
aI4
aI4
aI3
aI3
aI3
aI3
aI3
aI3
aI3
aI2
aI3
aI2
aI4
aI3
aI1
aI2
aI4
aI2
aI3
aI00
tp66
a(F12011.73
(lp67
I4
aI5
aI53
aI57
aI58
aI64
aI53
aI55
aI46
aI44
aI47
aI66
aI53
aI60
aI65
aI50
aI66
aI36
aI69
aI53
aI54
aI35
aI30
aI44
aI45
aI42
aI34
aI41
aI71
aI62
aI46
aI42
aI70
aI64
aI72
aI35
aI48
aI63
aI33
aI40
aI55
aI47
aI51
aI40
aI7
aI14
aI15
aI16
aI14
aI10
aI18
aI14
aI16
aI13
aI12
aI10
aI10
aI14
aI7
aI7
aI15
aI9
aI11
aI7
aI8
aI9
aI8
aI8
aI7
aI4
aI8
aI5
aI51
aI47
aI53
aI76
aI58
aI58
aI39
aI52
aI53
aI40
aI63
aI52
aI44
aI53
aI50
aI40
aI38
aI46
aI52
aI64
aI69
aI72
aI55
aI67
aI56
aI51
aI45
aI37
aI47
aI66
aI62
aI42
aI82
aI58
aI53
aI48
aI65
aI47
aI61
aI50
aI50
aI64
aI62
aI51
aI28
aI39
aI37
aI37
aI65
aI53
aI71
aI70
aI37
aI30
aI51
aI68
aI42
aI50
aI49
aI58
aI30
aI70
aI62
aI48
aI63
aI63
aI73
aI68
aI44
aI67
aI87
aI46
aI43
aI46
aI41
aI59
aI36
aI43
aI27
aI54
aI27
aI59
aI61
aI53
aI44
aI45
aI61
aI47
aI34
aI62
aI50
aI30
aI26
aI31
aI55
aI37
aI53
aI46
aI64
aI50
aI53
aI53
aI48
aI70
aI44
aI70
aI44
aI67
aI51
aI39
aI33
aI45
aI55
aI51
aI49
aI56
aI50
aI43
aI59
aI51
aI49
aI53
aI38
aI55
aI67
aI62
aI46
aI53
aI35
aI37
aI50
aI61
aI52
aI28
aI47
aI70
aI53
aI38
aI47
aI48
aI50
aI27
aI51
aI16
aI46
aI39
aI48
aI2
aI3
aI4
aI4
aI3
aI3
aI3
aI3
aI3
aI3
aI3
aI2
aI3
aI2
aI4
aI3
aI1
aI2
aI4
aI2
aI3
aI00
tp68
a(F12011.73
(lp69
I4
aI5
aI53
aI56
aI58
aI64
aI54
aI55
aI47
aI44
aI46
aI66
aI53
aI61
aI65
aI49
aI65
aI36
aI69
aI54
aI54
aI35
aI30
aI44
aI46
aI41
aI34
aI42
aI72
aI62
aI46
aI43
aI70
aI62
aI72
aI35
aI49
aI62
aI33
aI40
aI55
aI47
aI51
aI40
aI8
aI13
aI14
aI16
aI14
aI10
aI17
aI14
aI15
aI13
aI12
aI10
aI10
aI14
aI6
aI7
aI15
aI9
aI11
aI7
aI8
aI9
aI8
aI9
aI7
aI4
aI8
aI5
aI51
aI47
aI53
aI75
aI56
aI57
aI38
aI53
aI53
aI41
aI64
aI50
aI44
aI53
aI52
aI41
aI40
aI46
aI52
aI66
aI69
aI72
aI54
aI67
aI57
aI50
aI45
aI38
aI46
aI65
aI62
aI41
aI82
aI59
aI53
aI46
aI66
aI48
aI60
aI51
aI50
aI66
aI62
aI52
aI28
aI39
aI37
aI36
aI63
aI53
aI72
aI69
aI37
aI31
aI51
aI66
aI43
aI48
aI49
aI59
aI30
aI70
aI63
aI47
aI61
aI63
aI73
aI68
aI44
aI67
aI86
aI46
aI45
aI46
aI40
aI59
aI34
aI43
aI28
aI53
aI27
aI59
aI61
aI52
aI44
aI44
aI60
aI47
aI33
aI62
aI51
aI30
aI27
aI32
aI57
aI36
aI53
aI46
aI64
aI50
aI51
aI53
aI49
aI69
aI46
aI70
aI43
aI67
aI51
aI40
aI34
aI45
aI55
aI51
aI49
aI58
aI50
aI44
aI59
aI50
aI48
aI52
aI38
aI56
aI66
aI61
aI45
aI52
aI34
aI38
aI49
aI61
aI53
aI30
aI47
aI70
aI52
aI39
aI46
aI48
aI51
aI27
aI52
aI17
aI45
aI39
aI48
aI2
aI3
aI4
aI4
aI3
aI3
aI3
aI3
aI3
aI3
aI3
aI2
aI3
aI2
aI4
aI3
aI1
aI2
aI4
aI2
aI3
aI00
tp70
a(F12006.84
(lp71
I4
aI5
aI54
aI56
aI58
aI65
aI52
aI57
aI46
aI43
aI47
aI68
aI53
aI60
aI67
aI48
aI68
aI35
aI69
aI54
aI55
aI35
aI32
aI45
aI46
aI43
aI34
aI41
aI72
aI62
aI45
aI42
aI69
aI64
aI74
aI35
aI48
aI63
aI32
aI38
aI55
aI49
aI51
aI38
aI7
aI14
aI15
aI16
aI15
aI10
aI18
aI14
aI16
aI13
aI12
aI10
aI10
aI14
aI6
aI7
aI15
aI9
aI11
aI7
aI7
aI9
aI8
aI8
aI7
aI4
aI8
aI5
aI50
aI47
aI51
aI75
aI58
aI56
aI38
aI51
aI53
aI38
aI64
aI55
aI44
aI52
aI51
aI41
aI38
aI45
aI52
aI64
aI69
aI72
aI56
aI66
aI58
aI51
aI46
aI36
aI47
aI66
aI62
aI41
aI84
aI59
aI54
aI47
aI65
aI49
aI61
aI50
aI52
aI65
aI63
aI51
aI28
aI39
aI37
aI37
aI65
aI52
aI74
aI71
aI37
aI32
aI51
aI69
aI43
aI49
aI49
aI58
aI29
aI71
aI63
aI46
aI63
aI62
aI74
aI70
aI43
aI67
aI87
aI46
aI44
aI46
aI41
aI61
aI34
aI43
aI26
aI52
aI26
aI59
aI62
aI54
aI46
aI44
aI62
aI47
aI33
aI63
aI50
aI30
aI26
aI30
aI54
aI35
aI52
aI47
aI67
aI50
aI53
aI54
aI48
aI70
aI43
aI69
aI44
aI66
aI50
aI40
aI34
aI44
aI57
aI50
aI49
aI56
aI50
aI44
aI60
aI53
aI48
aI54
aI38
aI56
aI67
aI60
aI45
aI54
aI35
aI36
aI51
aI61
aI54
aI29
aI44
aI72
aI52
aI38
aI46
aI47
aI51
aI25
aI52
aI16
aI45
aI39
aI48
aI2
aI3
aI4
aI4
aI3
aI3
aI3
aI3
aI3
aI3
aI3
aI2
aI3
aI2
aI4
aI3
aI1
aI2
aI4
aI2
aI3
aI00
tp72
a(F12006.84
(lp73
I4
aI5
aI54
aI56
aI58
aI65
aI52
aI57
aI46
aI43
aI47
aI68
aI53
aI60
aI67
aI48
aI68
aI35
aI69
aI54
aI55
aI35
aI32
aI45
aI46
aI43
aI34
aI41
aI72
aI62
aI45
aI42
aI69
aI63
aI74
aI35
aI49
aI63
aI32
aI38
aI55
aI49
aI51
aI38
aI7
aI14
aI15
aI16
aI15
aI10
aI18
aI14
aI16
aI13
aI12
aI10
aI10
aI14
aI6
aI7
aI15
aI9
aI11
aI7
aI7
aI9
aI8
aI8
aI7
aI4
aI8
aI5
aI50
aI47
aI51
aI75
aI57
aI56
aI38
aI51
aI53
aI38
aI64
aI55
aI44
aI52
aI51
aI41
aI38
aI45
aI52
aI64
aI69
aI72
aI56
aI66
aI58
aI51
aI46
aI37
aI46
aI65
aI62
aI41
aI84
aI59
aI54
aI46
aI65
aI49
aI61
aI50
aI52
aI65
aI63
aI51
aI28
aI39
aI37
aI37
aI65
aI52
aI75
aI70
aI37
aI32
aI51
aI69
aI43
aI49
aI49
aI58
aI29
aI71
aI63
aI46
aI63
aI62
aI74
aI70
aI43
aI67
aI87
aI46
aI44
aI46
aI41
aI61
aI34
aI43
aI26
aI52
aI26
aI59
aI62
aI54
aI46
aI44
aI62
aI47
aI33
aI63
aI50
aI30
aI26
aI31
aI54
aI35
aI52
aI47
aI67
aI50
aI52
aI54
aI48
aI70
aI43
aI69
aI44
aI66
aI50
aI40
aI34
aI44
aI57
aI50
aI49
aI56
aI50
aI44
aI60
aI53
aI48
aI54
aI38
aI56
aI67
aI60
aI45
aI54
aI35
aI36
aI51
aI61
aI54
aI29
aI44
aI72
aI52
aI38
aI46
aI47
aI51
aI25
aI52
aI16
aI45
aI39
aI48
aI2
aI3
aI4
aI4
aI3
aI3
aI3
aI3
aI3
aI3
aI3
aI2
aI3
aI2
aI4
aI3
aI1
aI2
aI4
aI2
aI3
aI00
tp74
a(F12005.6
(lp75
I4
aI5
aI54
aI57
aI58
aI65
aI53
aI57
aI44
aI43
aI47
aI67
aI53
aI59
aI66
aI49
aI68
aI35
aI69
aI54
aI55
aI35
aI32
aI46
aI45
aI44
aI34
aI41
aI72
aI61
aI45
aI42
aI69
aI65
aI75
aI35
aI47
aI64
aI31
aI38
aI56
aI49
aI52
aI38
aI7
aI14
aI15
aI16
aI15
aI10
aI18
aI14
aI17
aI13
aI12
aI10
aI10
aI14
aI6
aI7
aI15
aI9
aI11
aI7
aI7
aI9
aI8
aI8
aI7
aI4
aI8
aI5
aI50
aI47
aI51
aI76
aI59
aI56
aI38
aI50
aI54
aI37
aI64
aI55
aI44
aI51
aI51
aI40
aI38
aI45
aI52
aI63
aI69
aI73
aI57
aI66
aI58
aI51
aI46
aI35
aI47
aI66
aI62
aI42
aI84
aI59
aI54
aI48
aI65
aI48
aI61
aI50
aI52
aI64
aI63
aI51
aI28
aI40
aI38
aI38
aI65
aI52
aI73
aI73
aI37
aI32
aI51
aI71
aI42
aI50
aI49
aI58
aI29
aI72
aI61
aI47
aI64
aI61
aI74
aI72
aI42
aI66
aI88
aI45
aI43
aI46
aI41
aI59
aI36
aI42
aI26
aI53
aI26
aI59
aI62
aI54
aI46
aI45
aI63
aI46
aI33
aI63
aI50
aI31
aI28
aI28
aI53
aI35
aI52
aI47
aI67
aI51
aI53
aI53
aI47
aI71
aI42
aI68
aI44
aI66
aI50
aI40
aI33
aI44
aI58
aI51
aI49
aI55
aI50
aI43
aI60
aI54
aI47
aI55
aI38
aI56
aI68
aI60
aI46
aI55
aI35
aI36
aI51
aI61
aI54
aI28
aI45
aI70
aI53
aI38
aI45
aI48
aI51
aI25
aI51
aI15
aI46
aI38
aI48
aI2
aI3
aI4
aI4
aI3
aI3
aI3
aI3
aI3
aI3
aI3
aI2
aI3
aI2
aI4
aI3
aI1
aI2
aI4
aI2
aI3
aI00
tp76
a(F12005.6
(lp77
I4
aI5
aI54
aI57
aI58
aI65
aI53
aI57
aI44
aI43
aI47
aI67
aI53
aI59
aI66
aI49
aI68
aI35
aI69
aI54
aI55
aI35
aI32
aI46
aI45
aI44
aI34
aI41
aI72
aI61
aI45
aI42
aI69
aI65
aI75
aI35
aI47
aI64
aI31
aI38
aI56
aI49
aI52
aI38
aI7
aI14
aI15
aI16
aI15
aI10
aI18
aI14
aI17
aI13
aI12
aI10
aI10
aI14
aI6
aI7
aI15
aI9
aI11
aI7
aI7
aI9
aI8
aI8
aI7
aI4
aI8
aI5
aI50
aI47
aI51
aI76
aI59
aI56
aI38
aI50
aI54
aI37
aI64
aI55
aI44
aI51
aI51
aI40
aI38
aI45
aI52
aI63
aI69
aI73
aI57
aI66
aI58
aI51
aI46
aI35
aI47
aI66
aI62
aI42
aI84
aI59
aI54
aI48
aI65
aI48
aI61
aI50
aI52
aI64
aI63
aI51
aI28
aI40
aI38
aI38
aI65
aI52
aI73
aI73
aI37
aI32
aI51
aI71
aI42
aI50
aI49
aI58
aI29
aI72
aI61
aI47
aI64
aI61
aI74
aI72
aI42
aI66
aI88
aI45
aI43
aI46
aI41
aI59
aI36
aI42
aI26
aI53
aI26
aI59
aI62
aI54
aI46
aI45
aI63
aI46
aI33
aI63
aI50
aI31
aI28
aI28
aI53
aI35
aI52
aI47
aI67
aI51
aI53
aI53
aI47
aI71
aI42
aI68
aI44
aI66
aI50
aI40
aI33
aI44
aI58
aI51
aI49
aI55
aI50
aI43
aI60
aI54
aI47
aI55
aI38
aI56
aI68
aI60
aI46
aI55
aI35
aI36
aI51
aI61
aI54
aI28
aI45
aI70
aI53
aI38
aI45
aI48
aI51
aI25
aI51
aI15
aI46
aI38
aI48
aI2
aI3
aI4
aI4
aI3
aI3
aI3
aI3
aI3
aI3
aI3
aI2
aI3
aI2
aI4
aI3
aI1
aI2
aI4
aI2
aI3
aI00
tp78
a(F12004.74
(lp79
I4
aI5
aI53
aI57
aI59
aI63
aI55
aI56
aI46
aI44
aI47
aI65
aI53
aI58
aI64
aI49
aI65
aI37
aI68
aI54
aI55
aI35
aI31
aI44
aI46
aI44
aI34
aI42
aI72
aI60
aI47
aI42
aI69
aI64
aI73
aI35
aI48
aI62
aI33
aI40
aI55
aI49
aI51
aI39
aI7
aI14
aI15
aI16
aI15
aI10
aI18
aI14
aI16
aI13
aI12
aI10
aI10
aI14
aI6
aI7
aI15
aI9
aI11
aI7
aI8
aI9
aI8
aI8
aI7
aI4
aI8
aI5
aI50
aI47
aI52
aI76
aI57
aI58
aI40
aI52
aI55
aI39
aI63
aI53
aI45
aI49
aI50
aI41
aI40
aI45
aI53
aI62
aI67
aI72
aI56
aI66
aI57
aI51
aI45
aI37
aI47
aI65
aI61
aI43
aI83
aI59
aI52
aI49
aI64
aI48
aI61
aI49
aI52
aI63
aI61
aI52
aI30
aI40
aI38
aI37
aI63
aI52
aI71
aI71
aI38
aI32
aI51
aI69
aI42
aI50
aI49
aI58
aI31
aI71
aI60
aI49
aI62
aI62
aI73
aI71
aI43
aI65
aI87
aI45
aI42
aI46
aI41
aI57
aI37
aI42
aI29
aI53
aI28
aI58
aI62
aI52
aI47
aI45
aI61
aI46
aI34
aI61
aI51
aI32
aI30
aI30
aI53
aI36
aI53
aI46
aI65
aI50
aI53
aI53
aI47
aI70
aI44
aI67
aI44
aI66
aI51
aI42
aI33
aI45
aI56
aI51
aI49
aI56
aI50
aI43
aI59
aI51
aI47
aI53
aI39
aI55
aI68
aI60
aI45
aI54
aI36
aI38
aI49
aI62
aI53
aI27
aI48
aI68
aI53
aI39
aI46
aI48
aI50
aI28
aI52
aI16
aI47
aI38
aI48
aI2
aI3
aI4
aI4
aI3
aI3
aI3
aI3
aI3
aI3
aI3
aI2
aI3
aI2
aI4
aI3
aI1
aI2
aI4
aI2
aI3
aI00
tp80
a(F12004.74
(lp81
I4
aI5
aI53
aI57
aI59
aI63
aI55
aI56
aI46
aI44
aI47
aI65
aI53
aI58
aI64
aI49
aI65
aI37
aI68
aI54
aI55
aI35
aI31
aI44
aI46
aI44
aI34
aI42
aI72
aI60
aI47
aI42
aI69
aI64
aI73
aI35
aI48
aI62
aI33
aI40
aI55
aI49
aI51
aI39
aI7
aI14
aI15
aI16
aI15
aI10
aI18
aI14
aI16
aI13
aI12
aI10
aI10
aI14
aI6
aI7
aI15
aI9
aI11
aI7
aI8
aI9
aI8
aI8
aI7
aI4
aI8
aI5
aI50
aI47
aI52
aI76
aI57
aI58
aI40
aI52
aI55
aI39
aI63
aI53
aI45
aI49
aI50
aI41
aI40
aI45
aI53
aI62
aI67
aI72
aI56
aI66
aI57
aI51
aI45
aI37
aI47
aI65
aI61
aI43
aI83
aI59
aI52
aI49
aI64
aI48
aI61
aI49
aI52
aI63
aI61
aI52
aI30
aI40
aI38
aI37
aI63
aI52
aI71
aI71
aI38
aI32
aI51
aI69
aI42
aI50
aI49
aI58
aI31
aI71
aI60
aI49
aI62
aI62
aI73
aI71
aI43
aI65
aI87
aI45
aI42
aI46
aI41
aI57
aI37
aI42
aI29
aI53
aI28
aI58
aI62
aI52
aI47
aI45
aI61
aI46
aI34
aI61
aI51
aI32
aI30
aI30
aI53
aI36
aI53
aI46
aI65
aI50
aI53
aI53
aI47
aI70
aI44
aI67
aI44
aI66
aI51
aI42
aI33
aI45
aI56
aI51
aI49
aI56
aI50
aI43
aI59
aI51
aI47
aI53
aI39
aI55
aI68
aI60
aI45
aI54
aI36
aI38
aI49
aI62
aI53
aI27
aI48
aI68
aI53
aI39
aI46
aI48
aI50
aI28
aI52
aI16
aI47
aI38
aI48
aI2
aI3
aI4
aI4
aI3
aI3
aI3
aI3
aI3
aI3
aI3
aI2
aI3
aI2
aI4
aI3
aI1
aI2
aI4
aI2
aI3
aI00
tp82
a(F12000.67
(lp83
I4
aI5
aI53
aI57
aI58
aI65
aI52
aI57
aI45
aI44
aI47
aI67
aI53
aI59
aI66
aI49
aI68
aI35
aI69
aI54
aI55
aI35
aI32
aI45
aI46
aI44
aI34
aI41
aI71
aI61
aI45
aI42
aI69
aI64
aI73
aI35
aI48
aI63
aI33
aI39
aI56
aI50
aI51
aI38
aI7
aI14
aI15
aI16
aI15
aI10
aI18
aI14
aI16
aI13
aI12
aI10
aI10
aI14
aI6
aI7
aI15
aI9
aI11
aI7
aI8
aI9
aI8
aI8
aI7
aI4
aI8
aI5
aI49
aI47
aI51
aI76
aI58
aI56
aI38
aI51
aI54
aI38
aI64
aI55
aI44
aI52
aI50
aI41
aI38
aI45
aI52
aI63
aI69
aI72
aI56
aI66
aI58
aI51
aI46
aI37
aI47
aI65
aI62
aI43
aI84
aI59
aI53
aI47
aI65
aI48
aI61
aI50
aI53
aI64
aI63
aI51
aI28
aI40
aI38
aI37
aI65
aI52
aI73
aI71
aI37
aI32
aI51
aI69
aI42
aI50
aI50
aI58
aI29
aI71
aI62
aI47
aI63
aI62
aI74
aI71
aI43
aI66
aI87
aI45
aI43
aI46
aI42
aI60
aI35
aI42
aI27
aI53
aI26
aI58
aI62
aI54
aI47
aI45
aI61
aI46
aI33
aI63
aI50
aI31
aI28
aI29
aI53
aI35
aI52
aI46
aI67
aI50
aI52
aI54
aI48
aI70
aI44
aI68
aI44
aI66
aI50
aI40
aI33
aI44
aI57
aI51
aI49
aI56
aI50
aI43
aI60
aI52
aI47
aI54
aI38
aI56
aI68
aI60
aI45
aI54
aI35
aI37
aI51
aI61
aI54
aI28
aI45
aI70
aI53
aI38
aI45
aI48
aI51
aI26
aI51
aI16
aI46
aI38
aI48
aI2
aI3
aI4
aI4
aI3
aI3
aI3
aI3
aI3
aI3
aI3
aI2
aI3
aI2
aI4
aI3
aI1
aI2
aI4
aI2
aI3
aI00
tp84
a(F11999.22
(lp85
I4
aI5
aI54
aI57
aI57
aI66
aI51
aI58
aI44
aI43
aI47
aI69
aI53
aI59
aI68
aI49
aI70
aI34
aI70
aI54
aI55
aI35
aI33
aI46
aI45
aI44
aI34
aI40
aI72
aI62
aI44
aI42
aI69
aI65
aI75
aI35
aI47
aI64
aI31
aI37
aI56
aI50
aI52
aI37
aI7
aI14
aI15
aI16
aI15
aI10
aI18
aI14
aI17
aI13
aI12
aI10
aI10
aI14
aI6
aI7
aI15
aI9
aI11
aI7
aI7
aI9
aI8
aI8
aI7
aI4
aI8
aI5
aI49
aI47
aI50
aI76
aI59
aI55
aI37
aI50
aI54
aI36
aI65
aI56
aI43
aI53
aI50
aI40
aI37
aI45
aI51
aI63
aI70
aI73
aI57
aI66
aI58
aI51
aI47
aI35
aI47
aI66
aI62
aI42
aI85
aI59
aI54
aI47
aI65
aI48
aI61
aI51
aI53
aI64
aI64
aI51
aI27
aI40
aI38
aI38
aI66
aI52
aI75
aI73
aI37
aI32
aI51
aI71
aI42
aI50
aI50
aI58
aI28
aI72
aI62
aI46
aI64
aI61
aI75
aI72
aI42
aI67
aI88
aI45
aI43
aI46
aI42
aI61
aI35
aI42
aI24
aI53
aI25
aI59
aI63
aI55
aI46
aI45
aI63
aI46
aI32
aI64
aI49
aI30
aI26
aI28
aI53
aI34
aI51
aI47
aI68
aI51
aI53
aI54
aI47
aI71
aI42
aI68
aI45
aI66
aI49
aI39
aI33
aI43
aI58
aI51
aI49
aI55
aI50
aI43
aI61
aI54
aI47
aI55
aI38
aI56
aI68
aI60
aI46
aI55
aI35
aI35
aI52
aI61
aI54
aI28
aI43
aI72
aI53
aI37
aI45
aI47
aI52
aI24
aI51
aI15
aI45
aI38
aI48
aI2
aI3
aI4
aI4
aI3
aI3
aI3
aI3
aI3
aI3
aI3
aI2
aI3
aI2
aI4
aI3
aI1
aI2
aI4
aI2
aI3
aI00
tp86
a(F11974.68
(lp87
I4
aI6
aI49
aI56
aI63
aI57
aI64
aI49
aI58
aI49
aI46
aI48
aI52
aI58
aI49
aI51
aI48
aI45
aI62
aI54
aI56
aI35
aI23
aI32
aI50
aI44
aI36
aI46
aI68
aI56
aI55
aI41
aI68
aI54
aI61
aI37
aI55
aI52
aI47
aI53
aI52
aI45
aI45
aI48
aI7
aI10
aI16
aI12
aI11
aI12
aI16
aI16
aI10
aI14
aI12
aI12
aI11
aI12
aI10
aI10
aI16
aI10
aI10
aI7
aI12
aI7
aI8
aI9
aI6
aI4
aI5
aI4
aI53
aI44
aI60
aI74
aI48
aI64
aI49
aI64
aI55
aI56
aI58
aI45
aI52
aI39
aI52
aI46
aI51
aI44
aI57
aI61
aI58
aI65
aI50
aI68
aI52
aI49
aI41
aI51
aI44
aI62
aI59
aI47
aI73
aI63
aI46
aI47
aI63
aI44
aI62
aI45
aI48
aI64
aI54
aI53
aI38
aI38
aI38
aI29
aI52
aI54
aI57
aI57
aI37
aI35
aI49
aI55
aI43
aI49
aI46
aI55
aI39
aI65
aI57
aI56
aI54
aI69
aI64
aI62
aI48
aI60
aI78
aI47
aI44
aI48
aI37
aI48
aI40
aI44
aI49
aI51
aI39
aI53
aI57
aI42
aI51
aI43
aI45
aI50
aI41
aI52
aI55
aI36
aI40
aI42
aI54
aI45
aI61
aI40
aI55
aI45
aI48
aI50
aI55
aI65
aI59
aI67
aI39
aI67
aI55
aI51
aI36
aI52
aI44
aI48
aI52
aI61
aI54
aI45
aI52
aI35
aI50
aI41
aI39
aI55
aI65
aI58
aI41
aI46
aI37
aI49
aI39
aI62
aI52
aI29
aI67
aI54
aI49
aI44
aI49
aI52
aI44
aI44
aI56
aI24
aI55
aI38
aI47
aI3
aI3
aI3
aI3
aI3
aI3
aI2
aI2
aI3
aI4
aI3
aI2
aI3
aI3
aI3
aI3
aI3
aI2
aI4
aI3
aI2
aI00
tp88
a(F11974.68
(lp89
I4
aI6
aI48
aI56
aI62
aI57
aI66
aI49
aI59
aI49
aI47
aI48
aI52
aI57
aI49
aI51
aI47
aI47
aI62
aI54
aI56
aI34
aI23
aI31
aI50
aI44
aI37
aI45
aI67
aI55
aI55
aI41
aI69
aI54
aI60
aI37
aI56
aI51
aI48
aI54
aI53
aI45
aI45
aI49
aI7
aI11
aI16
aI13
aI11
aI11
aI16
aI16
aI10
aI14
aI12
aI12
aI11
aI13
aI10
aI9
aI16
aI10
aI10
aI7
aI12
aI8
aI8
aI9
aI6
aI4
aI5
aI4
aI52
aI44
aI60
aI74
aI47
aI65
aI50
aI64
aI56
aI57
aI57
aI43
aI52
aI39
aI53
aI46
aI51
aI44
aI58
aI61
aI57
aI65
aI49
aI68
aI52
aI49
aI42
aI51
aI44
aI61
aI60
aI48
aI72
aI62
aI45
aI48
aI64
aI43
aI61
aI44
aI48
aI64
aI54
aI54
aI38
aI38
aI38
aI28
aI51
aI54
aI55
aI57
aI37
aI34
aI48
aI55
aI43
aI49
aI46
aI54
aI39
aI65
aI57
aI56
aI53
aI69
aI64
aI61
aI48
aI60
aI77
aI47
aI43
aI49
aI38
aI48
aI40
aI43
aI50
aI52
aI39
aI53
aI58
aI41
aI51
aI44
aI45
aI50
aI41
aI51
aI56
aI36
aI42
aI43
aI54
aI46
aI62
aI39
aI55
aI45
aI48
aI50
aI56
aI66
aI60
aI67
aI40
aI67
aI54
aI52
aI36
aI52
aI43
aI48
aI51
aI61
aI54
aI44
aI52
aI34
aI49
aI41
aI40
aI54
aI64
aI58
aI41
aI46
aI37
aI51
aI39
aI63
aI51
aI29
aI67
aI53
aI49
aI44
aI49
aI53
aI44
aI44
aI56
aI24
aI55
aI38
aI46
aI3
aI3
aI3
aI3
aI3
aI3
aI2
aI2
aI3
aI4
aI3
aI2
aI3
aI3
aI3
aI3
aI3
aI2
aI4
aI3
aI2
aI00
tp90
a(F11974.68
(lp91
I4
aI6
aI48
aI56
aI62
aI57
aI66
aI49
aI59
aI49
aI47
aI48
aI52
aI57
aI49
aI51
aI47
aI47
aI62
aI54
aI56
aI34
aI23
aI31
aI50
aI44
aI37
aI45
aI67
aI55
aI55
aI41
aI69
aI54
aI60
aI37
aI56
aI51
aI48
aI54
aI53
aI45
aI45
aI49
aI7
aI11
aI16
aI13
aI11
aI11
aI16
aI16
aI10
aI14
aI12
aI12
aI11
aI13
aI10
aI9
aI16
aI10
aI10
aI7
aI12
aI8
aI8
aI9
aI6
aI4
aI5
aI4
aI52
aI44
aI60
aI74
aI47
aI65
aI50
aI64
aI56
aI57
aI57
aI43
aI52
aI39
aI53
aI46
aI51
aI44
aI58
aI61
aI57
aI65
aI49
aI68
aI52
aI49
aI42
aI51
aI44
aI61
aI60
aI48
aI72
aI62
aI45
aI48
aI64
aI43
aI61
aI44
aI48
aI64
aI54
aI54
aI38
aI38
aI38
aI28
aI51
aI54
aI55
aI57
aI37
aI34
aI48
aI55
aI43
aI49
aI46
aI54
aI39
aI65
aI57
aI56
aI53
aI69
aI64
aI61
aI48
aI60
aI77
aI47
aI43
aI49
aI38
aI48
aI40
aI43
aI50
aI52
aI39
aI53
aI58
aI41
aI51
aI44
aI44
aI50
aI41
aI51
aI56
aI36
aI42
aI43
aI54
aI46
aI62
aI39
aI55
aI45
aI48
aI50
aI56
aI66
aI60
aI67
aI40
aI67
aI54
aI52
aI36
aI52
aI43
aI48
aI51
aI61
aI54
aI44
aI52
aI34
aI49
aI41
aI40
aI54
aI64
aI58
aI41
aI46
aI37
aI51
aI39
aI63
aI51
aI29
aI67
aI53
aI49
aI44
aI49
aI53
aI44
aI44
aI56
aI24
aI55
aI38
aI46
aI3
aI3
aI3
aI3
aI3
aI3
aI2
aI2
aI3
aI4
aI3
aI2
aI3
aI3
aI3
aI3
aI3
aI2
aI4
aI3
aI2
aI00
tp92
a(F11974.68
(lp93
I4
aI6
aI48
aI56
aI62
aI57
aI66
aI49
aI59
aI49
aI47
aI48
aI52
aI57
aI49
aI51
aI47
aI47
aI62
aI54
aI56
aI34
aI23
aI31
aI50
aI44
aI37
aI45
aI67
aI55
aI55
aI41
aI69
aI54
aI60
aI37
aI56
aI51
aI48
aI54
aI53
aI45
aI45
aI49
aI7
aI11
aI16
aI13
aI11
aI11
aI16
aI16
aI10
aI14
aI12
aI12
aI11
aI13
aI10
aI9
aI16
aI10
aI10
aI7
aI12
aI8
aI8
aI9
aI6
aI4
aI5
aI4
aI52
aI44
aI60
aI74
aI47
aI65
aI50
aI64
aI56
aI57
aI57
aI43
aI52
aI39
aI53
aI46
aI51
aI44
aI58
aI61
aI57
aI65
aI49
aI68
aI52
aI49
aI42
aI51
aI44
aI61
aI60
aI48
aI72
aI62
aI45
aI48
aI64
aI43
aI61
aI44
aI48
aI64
aI54
aI54
aI38
aI38
aI38
aI28
aI51
aI54
aI55
aI57
aI37
aI34
aI48
aI55
aI43
aI49
aI46
aI54
aI39
aI65
aI57
aI56
aI53
aI69
aI64
aI61
aI48
aI60
aI77
aI47
aI43
aI49
aI38
aI48
aI40
aI43
aI50
aI52
aI39
aI53
aI58
aI41
aI51
aI44
aI44
aI50
aI41
aI51
aI56
aI36
aI42
aI43
aI54
aI46
aI62
aI39
aI55
aI45
aI48
aI50
aI56
aI66
aI60
aI67
aI40
aI67
aI54
aI52
aI36
aI52
aI43
aI48
aI51
aI61
aI54
aI44
aI52
aI34
aI49
aI41
aI40
aI54
aI64
aI58
aI41
aI46
aI37
aI51
aI39
aI63
aI51
aI29
aI67
aI53
aI49
aI44
aI49
aI53
aI44
aI44
aI56
aI24
aI55
aI38
aI46
aI3
aI3
aI3
aI3
aI3
aI3
aI2
aI2
aI3
aI4
aI3
aI2
aI3
aI3
aI3
aI3
aI3
aI2
aI4
aI3
aI2
aI00
tp94
a(F11974.68
(lp95
I4
aI5
aI48
aI56
aI62
aI57
aI65
aI48
aI58
aI49
aI47
aI48
aI51
aI57
aI49
aI51
aI48
aI47
aI61
aI55
aI56
aI34
aI23
aI31
aI50
aI45
aI37
aI45
aI67
aI56
aI55
aI41
aI68
aI53
aI60
aI37
aI56
aI51
aI48
aI54
aI53
aI45
aI45
aI49
aI8
aI10
aI16
aI13
aI12
aI11
aI16
aI16
aI10
aI14
aI13
aI11
aI12
aI13
aI10
aI9
aI16
aI10
aI10
aI7
aI12
aI7
aI8
aI9
aI6
aI4
aI5
aI4
aI52
aI44
aI60
aI74
aI48
aI64
aI49
aI64
aI56
aI56
aI57
aI43
aI53
aI39
aI53
aI46
aI50
aI44
aI58
aI61
aI58
aI64
aI49
aI69
aI52
aI49
aI42
aI50
aI44
aI62
aI60
aI48
aI73
aI62
aI45
aI48
aI64
aI44
aI61
aI45
aI48
aI64
aI54
aI54
aI38
aI38
aI38
aI28
aI52
aI54
aI57
aI57
aI37
aI35
aI48
aI56
aI43
aI50
aI46
aI54
aI39
aI64
aI57
aI56
aI54
aI69
aI64
aI62
aI49
aI60
aI77
aI48
aI43
aI49
aI37
aI48
aI40
aI43
aI49
aI52
aI40
aI53
aI57
aI41
aI51
aI45
aI44
aI51
aI41
aI52
aI56
aI37
aI41
aI42
aI55
aI45
aI62
aI39
aI55
aI44
aI48
aI50
aI56
aI65
aI59
aI67
aI40
aI67
aI54
aI51
aI36
aI52
aI44
aI48
aI51
aI61
aI54
aI45
aI52
aI35
aI49
aI42
aI39
aI55
aI64
aI58
aI41
aI47
aI36
aI51
aI39
aI63
aI51
aI29
aI66
aI53
aI49
aI44
aI49
aI52
aI44
aI43
aI56
aI24
aI55
aI37
aI47
aI2
aI3
aI4
aI3
aI3
aI3
aI2
aI2
aI3
aI4
aI4
aI3
aI3
aI3
aI3
aI3
aI3
aI2
aI4
aI3
aI2
aI00
tp96
a(F11970.52
(lp97
I4
aI6
aI49
aI56
aI62
aI57
aI66
aI48
aI59
aI50
aI46
aI48
aI52
aI58
aI48
aI51
aI47
aI47
aI62
aI55
aI56
aI35
aI24
aI31
aI51
aI44
aI36
aI46
aI67
aI56
aI54
aI41
aI68
aI53
aI59
aI37
aI56
aI51
aI49
aI55
aI52
aI45
aI45
aI49
aI7
aI10
aI16
aI12
aI11
aI12
aI16
aI16
aI10
aI14
aI12
aI12
aI11
aI12
aI11
aI10
aI16
aI10
aI10
aI7
aI13
aI7
aI8
aI9
aI6
aI4
aI5
aI4
aI53
aI44
aI60
aI73
aI47
aI64
aI50
aI65
aI55
aI58
aI57
aI44
aI52
aI38
aI52
aI46
aI51
aI44
aI57
aI61
aI58
aI64
aI48
aI68
aI51
aI49
aI41
aI52
aI43
aI61
aI59
aI47
aI72
aI62
aI46
aI47
aI63
aI44
aI62
aI45
aI48
aI64
aI54
aI54
aI37
aI38
aI38
aI28
aI51
aI54
aI55
aI56
aI37
aI35
aI49
aI54
aI44
aI49
aI46
aI55
aI39
aI64
aI58
aI56
aI53
aI69
aI64
aI61
aI50
aI61
aI76
aI47
aI44
aI49
aI37
aI47
aI40
aI44
aI49
aI51
aI40
aI53
aI57
aI41
aI50
aI44
aI44
aI51
aI42
aI52
aI56
aI36
aI41
aI44
aI54
aI45
aI61
aI40
aI54
aI44
aI48
aI50
aI56
aI64
aI60
aI67
aI39
aI66
aI55
aI52
aI37
aI52
aI43
aI47
aI52
aI61
aI54
aI45
aI52
aI33
aI50
aI41
aI39
aI55
aI64
aI58
aI40
aI46
aI37
aI51
aI39
aI62
aI52
aI30
aI67
aI54
aI48
aI44
aI50
aI53
aI44
aI44
aI57
aI25
aI54
aI38
aI47
aI3
aI3
aI3
aI3
aI3
aI3
aI2
aI2
aI3
aI4
aI3
aI2
aI3
aI3
aI3
aI3
aI3
aI2
aI4
aI3
aI2
aI00
tp98
a(F11970.52
(lp99
I4
aI5
aI48
aI56
aI62
aI57
aI65
aI48
aI58
aI49
aI47
aI48
aI51
aI58
aI49
aI50
aI48
aI47
aI61
aI55
aI56
aI34
aI24
aI31
aI51
aI45
aI37
aI45
aI67
aI56
aI54
aI42
aI68
aI53
aI59
aI37
aI56
aI51
aI49
aI54
aI52
aI45
aI45
aI49
aI8
aI10
aI16
aI13
aI12
aI11
aI16
aI16
aI10
aI14
aI13
aI11
aI12
aI13
aI10
aI9
aI16
aI10
aI10
aI7
aI12
aI7
aI8
aI9
aI6
aI4
aI5
aI4
aI52
aI44
aI60
aI73
aI47
aI63
aI49
aI64
aI55
aI57
aI57
aI43
aI53
aI39
aI53
aI46
aI50
aI44
aI58
aI61
aI58
aI64
aI48
aI69
aI52
aI49
aI42
aI51
aI43
aI61
aI60
aI48
aI73
aI62
aI45
aI48
aI64
aI45
aI61
aI45
aI48
aI64
aI54
aI54
aI37
aI38
aI38
aI28
aI52
aI54
aI57
aI56
aI37
aI35
aI48
aI55
aI44
aI49
aI46
aI54
aI39
aI64
aI57
aI56
aI53
aI69
aI63
aI61
aI49
aI61
aI77
aI48
aI44
aI49
aI37
aI48
aI40
aI44
aI49
aI52
aI39
aI53
aI57
aI41
aI51
aI44
aI44
aI51
aI41
aI52
aI56
aI37
aI41
aI43
aI55
aI45
aI62
aI39
aI55
aI44
aI47
aI50
aI57
aI65
aI60
aI67
aI39
aI67
aI54
aI51
aI36
aI53
aI44
aI48
aI51
aI61
aI54
aI46
aI51
aI35
aI49
aI42
aI39
aI55
aI64
aI58
aI41
aI47
aI36
aI51
aI39
aI63
aI52
aI29
aI66
aI53
aI48
aI45
aI49
aI52
aI44
aI43
aI56
aI25
aI54
aI38
aI47
aI2
aI3
aI4
aI3
aI3
aI3
aI2
aI2
aI3
aI4
aI4
aI3
aI3
aI3
aI3
aI3
aI3
aI2
aI4
aI3
aI2
aI00
tp100
a(F11968.43
(lp101
I4
aI6
aI48
aI55
aI62
aI57
aI66
aI49
aI58
aI49
aI47
aI48
aI52
aI57
aI49
aI52
aI49
aI47
aI61
aI53
aI55
aI33
aI22
aI30
aI49
aI45
aI37
aI45
aI67
aI55
aI57
aI40
aI69
aI54
aI61
aI38
aI55
aI52
aI48
aI54
aI54
aI45
aI45
aI49
aI7
aI11
aI16
aI13
aI11
aI11
aI16
aI16
aI10
aI14
aI12
aI12
aI11
aI13
aI10
aI9
aI16
aI10
aI10
aI7
aI12
aI8
aI8
aI9
aI6
aI4
aI5
aI4
aI52
aI44
aI61
aI75
aI48
aI65
aI51
aI64
aI56
aI55
aI57
aI43
aI53
aI39
aI53
aI46
aI51
aI45
aI58
aI60
aI57
aI65
aI50
aI68
aI52
aI48
aI42
aI50
aI44
aI63
aI60
aI48
aI72
aI62
aI45
aI48
aI64
aI43
aI61
aI44
aI47
aI63
aI54
aI54
aI39
aI38
aI39
aI28
aI52
aI55
aI55
aI58
aI37
aI34
aI48
aI57
aI42
aI51
aI45
aI54
aI39
aI65
aI57
aI56
aI54
aI70
aI65
aI63
aI48
aI59
aI78
aI47
aI43
aI49
aI38
aI48
aI40
aI42
aI50
aI52
aI40
aI53
aI58
aI40
aI51
aI45
aI44
aI50
aI41
aI50
aI56
aI37
aI43
aI42
aI54
aI46
aI62
aI38
aI55
aI45
aI49
aI49
aI55
aI66
aI59
aI66
aI40
aI68
aI54
aI51
aI35
aI52
aI43
aI48
aI51
aI61
aI54
aI44
aI52
aI36
aI49
aI41
aI40
aI54
aI64
aI58
aI41
aI46
aI36
aI52
aI39
aI63
aI50
aI28
aI67
aI52
aI50
aI43
aI49
aI53
aI44
aI44
aI55
aI23
aI57
aI37
aI46
aI3
aI3
aI3
aI3
aI3
aI3
aI2
aI2
aI3
aI4
aI3
aI2
aI3
aI3
aI3
aI3
aI3
aI2
aI4
aI3
aI2
aI00
tp102
a(F11968.43
(lp103
I4
aI6
aI48
aI55
aI62
aI57
aI66
aI49
aI58
aI49
aI47
aI48
aI52
aI57
aI49
aI52
aI49
aI47
aI61
aI53
aI55
aI33
aI22
aI30
aI49
aI45
aI37
aI45
aI67
aI55
aI57
aI40
aI69
aI54
aI61
aI38
aI55
aI52
aI48
aI54
aI54
aI45
aI45
aI49
aI7
aI11
aI16
aI13
aI11
aI11
aI16
aI16
aI10
aI14
aI12
aI12
aI11
aI13
aI10
aI9
aI16
aI10
aI10
aI7
aI12
aI8
aI8
aI9
aI6
aI4
aI5
aI4
aI52
aI44
aI61
aI75
aI48
aI65
aI51
aI64
aI56
aI55
aI57
aI43
aI53
aI39
aI53
aI46
aI51
aI45
aI58
aI60
aI57
aI65
aI50
aI68
aI52
aI48
aI42
aI50
aI44
aI63
aI60
aI48
aI72
aI62
aI45
aI48
aI64
aI43
aI61
aI44
aI47
aI63
aI54
aI54
aI39
aI38
aI39
aI28
aI52
aI55
aI55
aI58
aI37
aI34
aI48
aI57
aI42
aI51
aI45
aI54
aI39
aI65
aI57
aI56
aI54
aI70
aI65
aI63
aI48
aI59
aI78
aI47
aI43
aI49
aI38
aI48
aI40
aI42
aI50
aI52
aI40
aI53
aI58
aI40
aI51
aI45
aI44
aI50
aI41
aI50
aI56
aI37
aI43
aI42
aI54
aI46
aI62
aI38
aI55
aI45
aI49
aI49
aI55
aI66
aI59
aI66
aI40
aI68
aI54
aI51
aI35
aI52
aI43
aI48
aI51
aI61
aI54
aI44
aI52
aI36
aI49
aI41
aI40
aI54
aI64
aI58
aI41
aI46
aI36
aI52
aI39
aI63
aI50
aI28
aI67
aI52
aI50
aI43
aI49
aI53
aI44
aI44
aI55
aI23
aI57
aI37
aI46
aI3
aI3
aI3
aI3
aI3
aI3
aI2
aI2
aI3
aI4
aI3
aI2
aI3
aI3
aI3
aI3
aI3
aI2
aI4
aI3
aI2
aI00
tp104
a(F11968.43
(lp105
I4
aI6
aI48
aI55
aI62
aI57
aI66
aI49
aI58
aI49
aI47
aI48
aI52
aI57
aI49
aI52
aI49
aI47
aI61
aI53
aI55
aI33
aI22
aI30
aI49
aI45
aI37
aI45
aI67
aI55
aI57
aI40
aI69
aI54
aI61
aI38
aI55
aI52
aI48
aI54
aI54
aI45
aI45
aI49
aI7
aI11
aI16
aI13
aI11
aI11
aI16
aI16
aI10
aI14
aI12
aI12
aI11
aI13
aI10
aI9
aI16
aI10
aI10
aI7
aI12
aI8
aI8
aI9
aI6
aI4
aI5
aI4
aI52
aI44
aI61
aI75
aI48
aI65
aI51
aI64
aI56
aI55
aI57
aI43
aI53
aI39
aI53
aI46
aI51
aI45
aI58
aI60
aI57
aI65
aI50
aI68
aI52
aI48
aI42
aI50
aI44
aI63
aI60
aI48
aI72
aI62
aI45
aI48
aI64
aI43
aI61
aI44
aI47
aI63
aI54
aI54
aI39
aI38
aI39
aI28
aI52
aI55
aI55
aI58
aI37
aI34
aI48
aI57
aI42
aI51
aI45
aI54
aI39
aI65
aI57
aI56
aI54
aI70
aI65
aI63
aI48
aI59
aI78
aI47
aI43
aI49
aI38
aI48
aI40
aI42
aI50
aI52
aI40
aI53
aI58
aI40
aI51
aI45
aI44
aI50
aI41
aI50
aI56
aI37
aI43
aI42
aI54
aI46
aI62
aI38
aI55
aI45
aI49
aI49
aI55
aI66
aI59
aI66
aI40
aI68
aI54
aI51
aI35
aI52
aI43
aI48
aI51
aI61
aI54
aI44
aI52
aI36
aI49
aI41
aI40
aI54
aI64
aI58
aI41
aI46
aI36
aI52
aI39
aI63
aI50
aI28
aI67
aI52
aI50
aI43
aI49
aI53
aI44
aI44
aI55
aI23
aI57
aI37
aI46
aI3
aI3
aI3
aI3
aI3
aI3
aI2
aI2
aI3
aI4
aI3
aI2
aI3
aI3
aI3
aI3
aI3
aI2
aI4
aI3
aI2
aI00
tp106
a(F11967.82
(lp107
I4
aI5
aI49
aI57
aI62
aI56
aI65
aI48
aI59
aI50
aI47
aI47
aI52
aI58
aI49
aI50
aI47
aI46
aI61
aI56
aI56
aI35
aI25
aI32
aI52
aI44
aI36
aI46
aI67
aI57
aI54
aI42
aI67
aI52
aI59
aI36
aI57
aI50
aI49
aI53
aI51
aI45
aI44
aI49
aI7
aI10
aI16
aI13
aI12
aI12
aI16
aI16
aI10
aI13
aI13
aI11
aI12
aI13
aI10
aI10
aI15
aI10
aI9
aI8
aI12
aI6
aI8
aI9
aI6
aI4
aI5
aI4
aI52
aI44
aI59
aI73
aI47
aI63
aI48
aI65
aI54
aI58
aI58
aI43
aI52
aI39
aI53
aI47
aI51
aI43
aI58
aI62
aI58
aI63
aI48
aI68
aI53
aI50
aI41
aI52
aI43
aI60
aI59
aI47
aI72
aI62
aI44
aI47
aI63
aI46
aI61
aI45
aI49
aI65
aI53
aI53
aI37
aI39
aI37
aI27
aI52
aI53
aI58
aI56
aI37
aI36
aI49
aI54
aI44
aI48
aI47
aI54
aI39
aI64
aI58
aI56
aI53
aI69
aI62
aI61
aI50
aI61
aI76
aI48
aI45
aI49
aI36
aI48
aI39
aI44
aI49
aI51
aI39
aI53
aI56
aI42
aI52
aI43
aI44
aI52
aI42
aI53
aI55
aI36
aI40
aI43
aI55
aI44
aI61
aI40
aI55
aI43
aI46
aI51
aI57
aI64
aI60
aI68
aI39
aI66
aI55
aI51
aI37
aI53
aI43
aI47
aI52
aI62
aI53
aI46
aI51
aI34
aI50
aI41
aI38
aI55
aI64
aI58
aI40
aI46
aI37
aI50
aI39
aI62
aI53
aI30
aI67
aI54
aI48
aI45
aI50
aI53
aI44
aI44
aI57
aI25
aI53
aI39
aI47
aI2
aI3
aI3
aI3
aI3
aI4
aI2
aI3
aI3
aI4
aI3
aI3
aI3
aI3
aI3
aI3
aI3
aI2
aI4
aI3
aI2
aI00
tp108
a(F11966.93
(lp109
I4
aI6
aI47
aI57
aI64
aI55
aI68
aI48
aI58
aI50
aI46
aI47
aI52
aI55
aI47
aI54
aI47
aI48
aI61
aI53
aI57
aI34
aI20
aI30
aI49
aI46
aI36
aI45
aI66
aI52
aI58
aI40
aI69
aI53
aI61
aI38
aI56
aI52
aI47
aI55
aI53
aI44
aI44
aI51
aI7
aI10
aI16
aI12
aI11
aI11
aI16
aI16
aI9
aI14
aI12
aI12
aI11
aI12
aI11
aI10
aI16
aI10
aI10
aI7
aI13
aI8
aI8
aI9
aI6
aI4
aI5
aI4
aI52
aI44
aI62
aI74
aI47
aI67
aI53
aI66
aI58
aI55
aI57
aI42
aI53
aI37
aI52
aI45
aI52
aI44
aI59
aI59
aI55
aI65
aI49
aI68
aI51
aI47
aI40
aI51
aI46
aI63
aI60
aI50
aI71
aI63
aI45
aI51
aI62
aI41
aI62
aI43
aI47
aI61
aI53
aI55
aI41
aI38
aI40
aI27
aI50
aI55
aI54
aI58
aI38
aI35
aI47
aI56
aI41
aI51
aI45
aI54
aI41
aI64
aI54
aI59
aI53
aI70
aI65
aI62
aI48
aI56
aI78
aI47
aI41
aI49
aI38
aI45
aI42
aI42
aI52
aI52
aI42
aI52
aI58
aI39
aI52
aI45
aI44
aI49
aI41
aI49
aI58
aI38
aI44
aI42
aI53
aI47
aI63
aI38
aI53
aI45
aI51
aI48
aI55
aI66
aI59
aI65
aI40
aI68
aI54
aI54
aI35
aI53
aI42
aI49
aI51
aI61
aI54
aI42
aI51
aI35
aI49
aI40
aI42
aI53
aI66
aI58
aI41
aI45
aI38
aI52
aI37
aI64
aI49
aI27
aI68
aI51
aI50
aI44
aI49
aI54
aI43
aI46
aI56
aI25
aI59
aI36
aI46
aI3
aI3
aI3
aI3
aI3
aI3
aI2
aI2
aI3
aI4
aI3
aI2
aI3
aI3
aI3
aI3
aI3
aI2
aI4
aI3
aI2
aI00
tp110
a(F11966.93
(lp111
I4
aI6
aI47
aI57
aI64
aI55
aI68
aI48
aI58
aI50
aI46
aI47
aI52
aI55
aI47
aI54
aI47
aI48
aI61
aI53
aI57
aI34
aI20
aI30
aI49
aI46
aI36
aI45
aI66
aI52
aI58
aI40
aI69
aI53
aI61
aI38
aI56
aI52
aI47
aI55
aI53
aI44
aI44
aI51
aI7
aI10
aI16
aI12
aI11
aI11
aI16
aI16
aI9
aI14
aI12
aI12
aI11
aI12
aI11
aI10
aI16
aI10
aI10
aI7
aI13
aI8
aI8
aI9
aI6
aI4
aI5
aI4
aI52
aI44
aI62
aI74
aI47
aI67
aI53
aI66
aI58
aI55
aI57
aI42
aI53
aI37
aI52
aI45
aI52
aI44
aI59
aI59
aI55
aI65
aI49
aI68
aI51
aI47
aI40
aI51
aI46
aI63
aI60
aI50
aI71
aI63
aI45
aI51
aI62
aI41
aI62
aI43
aI47
aI61
aI53
aI55
aI41
aI38
aI40
aI27
aI50
aI55
aI54
aI58
aI38
aI35
aI47
aI56
aI41
aI51
aI45
aI54
aI41
aI64
aI54
aI59
aI53
aI70
aI65
aI62
aI48
aI56
aI78
aI47
aI41
aI49
aI38
aI45
aI42
aI42
aI52
aI52
aI42
aI52
aI58
aI39
aI52
aI45
aI44
aI49
aI41
aI49
aI58
aI38
aI44
aI42
aI53
aI47
aI63
aI38
aI53
aI45
aI51
aI48
aI55
aI66
aI59
aI65
aI40
aI68
aI54
aI54
aI35
aI53
aI42
aI49
aI51
aI61
aI54
aI42
aI51
aI35
aI49
aI40
aI42
aI53
aI66
aI58
aI41
aI45
aI38
aI52
aI37
aI64
aI49
aI27
aI68
aI51
aI50
aI44
aI49
aI54
aI43
aI46
aI56
aI25
aI59
aI36
aI46
aI3
aI3
aI3
aI3
aI3
aI3
aI2
aI2
aI3
aI4
aI3
aI2
aI3
aI3
aI3
aI3
aI3
aI2
aI4
aI3
aI2
aI00
tp112
a(F11964.54
(lp113
I4
aI6
aI50
aI57
aI62
aI58
aI64
aI49
aI56
aI49
aI46
aI51
aI52
aI57
aI52
aI51
aI51
aI45
aI63
aI55
aI56
aI34
aI25
aI33
aI50
aI44
aI36
aI45
aI68
aI57
aI53
aI41
aI68
aI54
aI62
aI37
aI55
aI53
aI46
aI52
aI52
aI45
aI46
aI48
aI7
aI11
aI16
aI13
aI12
aI12
aI16
aI16
aI11
aI14
aI12
aI12
aI11
aI12
aI10
aI9
aI16
aI10
aI10
aI7
aI11
aI7
aI8
aI9
aI6
aI4
aI6
aI4
aI52
aI44
aI59
aI74
aI49
aI63
aI48
aI62
aI56
aI53
aI59
aI45
aI51
aI40
aI52
aI45
aI49
aI44
aI57
aI61
aI60
aI66
aI50
aI68
aI53
aI49
aI42
aI48
aI44
aI62
aI60
aI46
aI74
aI62
aI46
aI48
aI64
aI45
aI62
aI46
aI48
aI64
aI55
aI54
aI37
aI38
aI38
aI29
aI54
aI54
aI59
aI59
aI37
aI35
aI49
aI57
aI44
aI49
aI46
aI55
aI38
aI66
aI57
aI55
aI54
aI68
aI65
aI62
aI47
aI61
aI77
aI47
aI43
aI49
aI38
aI48
aI40
aI44
aI45
aI51
aI38
aI54
aI58
aI43
aI50
aI44
aI47
aI50
aI40
aI54
aI54
aI35
aI40
aI41
aI54
aI44
aI60
aI41
aI56
aI45
aI48
aI50
aI55
aI67
aI57
aI67
aI40
aI66
aI54
aI51
aI36
aI51
aI45
aI48
aI51
aI60
aI53
aI45
aI53
aI38
aI49
aI44
aI39
aI55
aI65
aI58
aI42
aI48
aI37
aI49
aI40
aI62
aI52
aI29
aI63
aI56
aI49
aI43
aI49
aI52
aI45
aI41
aI55
aI24
aI53
aI37
aI47
aI3
aI3
aI3
aI3
aI3
aI3
aI2
aI2
aI3
aI4
aI3
aI2
aI3
aI3
aI3
aI3
aI3
aI2
aI4
aI3
aI2
aI00
tp114
a(F11964.54
(lp115
I4
aI5
aI48
aI56
aI62
aI54
aI64
aI49
aI56
aI48
aI47
aI49
aI51
aI56
aI50
aI52
aI49
aI46
aI62
aI54
aI56
aI35
aI23
aI32
aI49
aI45
aI37
aI44
aI68
aI57
aI55
aI41
aI69
aI55
aI62
aI37
aI55
aI53
aI46
aI53
aI53
aI45
aI46
aI49
aI8
aI10
aI16
aI13
aI12
aI11
aI18
aI16
aI11
aI15
aI13
aI11
aI12
aI13
aI9
aI9
aI16
aI10
aI11
aI7
aI11
aI8
aI8
aI9
aI6
aI4
aI5
aI5
aI50
aI44
aI61
aI74
aI49
aI64
aI49
aI64
aI57
aI54
aI58
aI44
aI52
aI39
aI53
aI44
aI50
aI44
aI58
aI60
aI59
aI65
aI50
aI69
aI52
aI48
aI42
aI49
aI45
aI63
aI60
aI48
aI75
aI62
aI46
aI49
aI63
aI43
aI61
aI45
aI50
aI63
aI54
aI54
aI38
aI39
aI39
aI28
aI52
aI54
aI57
aI59
aI37
aI34
aI48
aI57
aI42
aI50
aI46
aI55
aI39
aI66
aI57
aI56
aI54
aI68
aI66
aI62
aI47
aI59
aI79
aI48
aI42
aI49
aI38
aI48
aI40
aI43
aI48
aI52
aI40
aI54
aI59
aI42
aI51
aI44
aI48
aI49
aI41
aI52
aI56
aI37
aI42
aI41
aI54
aI44
aI61
aI39
aI55
aI46
aI50
aI50
aI55
aI66
aI59
aI66
aI41
aI67
aI53
aI50
aI36
aI52
aI45
aI50
aI51
aI60
aI54
aI43
aI52
aI37
aI49
aI42
aI41
aI54
aI65
aI58
aI42
aI47
aI37
aI51
aI40
aI63
aI50
aI28
aI65
aI54
aI51
aI43
aI49
aI52
aI45
aI43
aI55
aI24
aI55
aI37
aI47
aI2
aI3
aI4
aI3
aI3
aI3
aI2
aI2
aI3
aI4
aI4
aI3
aI3
aI3
aI3
aI3
aI3
aI2
aI4
aI3
aI2
aI00
tp116
a(F11964.54
(lp117
I4
aI5
aI48
aI56
aI62
aI54
aI64
aI49
aI56
aI48
aI47
aI49
aI51
aI56
aI50
aI52
aI49
aI46
aI62
aI54
aI56
aI35
aI23
aI32
aI49
aI45
aI37
aI44
aI68
aI57
aI55
aI41
aI69
aI55
aI62
aI37
aI55
aI53
aI46
aI53
aI53
aI45
aI46
aI49
aI8
aI10
aI16
aI13
aI12
aI11
aI18
aI16
aI11
aI15
aI13
aI11
aI12
aI13
aI9
aI9
aI16
aI10
aI11
aI7
aI11
aI8
aI8
aI9
aI6
aI4
aI5
aI5
aI50
aI44
aI61
aI74
aI49
aI64
aI49
aI64
aI57
aI54
aI58
aI44
aI52
aI39
aI53
aI44
aI50
aI44
aI58
aI60
aI59
aI65
aI50
aI69
aI52
aI48
aI42
aI49
aI45
aI63
aI60
aI48
aI75
aI62
aI46
aI49
aI63
aI43
aI61
aI45
aI50
aI63
aI54
aI54
aI38
aI39
aI39
aI28
aI52
aI54
aI57
aI59
aI37
aI34
aI48
aI57
aI42
aI50
aI46
aI55
aI39
aI66
aI57
aI56
aI54
aI68
aI66
aI62
aI47
aI59
aI79
aI48
aI42
aI49
aI38
aI48
aI40
aI43
aI48
aI52
aI40
aI54
aI59
aI42
aI51
aI44
aI47
aI49
aI41
aI52
aI56
aI37
aI42
aI41
aI54
aI44
aI61
aI39
aI55
aI46
aI50
aI50
aI55
aI66
aI59
aI66
aI41
aI67
aI53
aI50
aI36
aI52
aI45
aI50
aI51
aI60
aI54
aI43
aI52
aI37
aI49
aI42
aI41
aI54
aI65
aI58
aI42
aI47
aI37
aI51
aI40
aI63
aI50
aI28
aI65
aI54
aI51
aI43
aI49
aI52
aI45
aI43
aI55
aI24
aI55
aI37
aI47
aI2
aI3
aI4
aI3
aI3
aI3
aI2
aI2
aI3
aI4
aI4
aI3
aI3
aI3
aI3
aI3
aI3
aI2
aI4
aI3
aI2
aI00
tp118
a(F11961.7
(lp119
I4
aI5
aI48
aI56
aI63
aI56
aI66
aI48
aI58
aI49
aI47
aI48
aI51
aI56
aI48
aI52
aI48
aI47
aI61
aI54
aI56
aI34
aI22
aI31
aI50
aI45
aI37
aI45
aI67
aI54
aI56
aI41
aI68
aI53
aI60
aI37
aI56
aI51
aI48
aI54
aI53
aI45
aI45
aI50
aI8
aI10
aI16
aI13
aI12
aI11
aI16
aI16
aI10
aI14
aI13
aI11
aI12
aI13
aI10
aI9
aI16
aI10
aI10
aI7
aI12
aI7
aI8
aI9
aI6
aI4
aI5
aI4
aI52
aI44
aI61
aI74
aI48
aI65
aI51
aI65
aI57
aI56
aI57
aI43
aI53
aI38
aI53
aI46
aI51
aI44
aI58
aI60
aI57
aI64
aI49
aI69
aI52
aI48
aI41
aI50
aI45
aI62
aI60
aI49
aI72
aI62
aI45
aI49
aI63
aI43
aI61
aI44
aI48
aI63
aI54
aI54
aI39
aI38
aI39
aI28
aI51
aI54
aI56
aI57
aI37
aI35
aI48
aI56
aI42
aI50
aI46
aI54
aI40
aI64
aI56
aI57
aI54
aI69
aI64
aI62
aI49
aI58
aI77
aI48
aI42
aI49
aI37
aI47
aI41
aI43
aI50
aI52
aI41
aI53
aI57
aI40
aI51
aI45
aI44
aI50
aI41
aI51
aI57
aI37
aI42
aI42
aI54
aI46
aI62
aI39
aI54
aI44
aI49
aI49
aI56
aI65
aI59
aI66
aI40
aI67
aI54
aI52
aI36
aI52
aI43
aI48
aI51
aI61
aI54
aI44
aI52
aI35
aI49
aI41
aI40
aI54
aI65
aI58
aI41
aI46
aI37
aI51
aI38
aI63
aI50
aI28
aI67
aI52
aI49
aI44
aI49
aI53
aI44
aI44
aI56
aI24
aI57
aI37
aI47
aI2
aI3
aI4
aI3
aI3
aI3
aI2
aI2
aI3
aI4
aI4
aI3
aI3
aI3
aI3
aI3
aI3
aI2
aI4
aI3
aI2
aI00
tp120
a(F11961.0
(lp121
I4
aI6
aI49
aI55
aI61
aI58
aI64
aI50
aI57
aI48
aI47
aI50
aI52
aI58
aI51
aI52
aI51
aI46
aI62
aI53
aI55
aI33
aI23
aI32
aI49
aI44
aI36
aI44
aI68
aI56
aI56
aI40
aI69
aI55
aI62
aI38
aI54
aI53
aI46
aI52
aI54
aI45
aI46
aI48
aI7
aI11
aI16
aI13
aI11
aI11
aI16
aI16
aI11
aI14
aI12
aI12
aI11
aI13
aI9
aI9
aI16
aI10
aI10
aI7
aI11
aI8
aI8
aI9
aI6
aI4
aI5
aI4
aI52
aI45
aI60
aI75
aI49
aI64
aI49
aI63
aI55
aI53
aI58
aI44
aI52
aI41
aI53
aI45
aI49
aI45
aI57
aI61
aI59
aI66
aI50
aI68
aI52
aI48
aI42
aI48
aI44
aI63
aI60
aI47
aI73
aI61
aI46
aI48
aI64
aI43
aI61
aI45
aI47
aI63
aI55
aI54
aI37
aI38
aI39
aI29
aI54
aI55
aI57
aI59
aI37
aI33
aI48
aI58
aI42
aI51
aI46
aI55
aI38
aI66
aI58
aI55
aI55
aI69
aI66
aI63
aI48
aI60
aI79
aI47
aI43
aI49
aI38
aI50
aI39
aI42
aI47
aI52
aI38
aI54
aI58
aI42
aI50
aI45
aI46
aI50
aI40
aI52
aI55
aI36
aI41
aI41
aI54
aI45
aI61
aI39
aI56
aI46
aI50
aI50
aI54
aI66
aI57
aI67
aI40
aI68
aI54
aI49
aI35
aI51
aI44
aI49
aI51
aI60
aI53
aI44
aI53
aI38
aI49
aI42
aI40
aI54
aI64
aI59
aI42
aI47
aI36
aI50
aI40
aI63
aI50
aI28
aI65
aI54
aI50
aI42
aI49
aI52
aI45
aI42
aI55
aI22
aI55
aI37
aI46
aI3
aI3
aI3
aI3
aI3
aI3
aI2
aI2
aI3
aI4
aI3
aI2
aI3
aI3
aI3
aI3
aI3
aI2
aI4
aI3
aI2
aI00
tp122
a(F11958.4
(lp123
I4
aI6
aI49
aI55
aI62
aI58
aI65
aI50
aI57
aI49
aI47
aI50
aI52
aI58
aI51
aI52
aI51
aI46
aI62
aI53
aI55
aI33
aI23
aI31
aI49
aI44
aI37
aI45
aI68
aI56
aI56
aI40
aI69
aI54
aI62
aI38
aI55
aI53
aI46
aI53
aI54
aI45
aI45
aI48
aI7
aI11
aI16
aI13
aI11
aI11
aI16
aI16
aI10
aI14
aI12
aI12
aI11
aI13
aI10
aI9
aI16
aI10
aI10
aI7
aI12
aI8
aI8
aI9
aI6
aI4
aI5
aI4
aI52
aI44
aI60
aI75
aI48
aI64
aI50
aI63
aI56
aI54
aI58
aI43
aI52
aI41
aI53
aI46
aI50
aI45
aI57
aI61
aI58
aI65
aI50
aI68
aI53
aI48
aI42
aI49
aI44
aI63
aI60
aI47
aI73
aI62
aI46
aI48
aI64
aI44
aI61
aI45
aI47
aI63
aI55
aI54
aI38
aI38
aI39
aI29
aI53
aI55
aI57
aI59
aI37
aI34
aI48
aI58
aI42
aI51
aI45
aI54
aI38
aI65
aI58
aI55
aI54
aI70
aI66
aI63
aI48
aI60
aI79
aI47
aI43
aI49
aI38
aI49
aI39
aI42
aI48
aI52
aI38
aI54
aI58
aI41
aI50
aI45
aI45
aI50
aI40
aI51
aI55
aI36
aI41
aI41
aI55
aI45
aI61
aI39
aI56
aI45
aI49
aI49
aI55
aI66
aI58
aI67
aI40
aI68
aI54
aI50
aI35
aI51
aI44
aI48
aI51
aI61
aI54
aI44
aI53
aI37
aI49
aI42
aI40
aI54
aI64
aI58
aI41
aI46
aI35
aI51
aI40
aI63
aI51
aI28
aI65
aI54
aI50
aI43
aI49
aI52
aI45
aI42
aI55
aI23
aI56
aI37
aI46
aI3
aI3
aI3
aI3
aI3
aI3
aI2
aI2
aI3
aI4
aI3
aI2
aI3
aI3
aI3
aI3
aI3
aI2
aI4
aI3
aI2
aI00
tp124
a(F11958.29
(lp125
I4
aI5
aI48
aI56
aI62
aI58
aI64
aI48
aI57
aI49
aI47
aI49
aI51
aI57
aI50
aI51
aI49
aI46
aI62
aI55
aI56
aI34
aI24
aI32
aI50
aI45
aI37
aI45
aI67
aI57
aI54
aI41
aI68
aI54
aI61
aI37
aI55
aI52
aI47
aI53
aI53
aI45
aI45
aI48
aI8
aI10
aI16
aI13
aI12
aI11
aI16
aI16
aI10
aI14
aI13
aI11
aI12
aI13
aI10
aI9
aI16
aI10
aI10
aI7
aI12
aI7
aI8
aI9
aI6
aI4
aI5
aI4
aI52
aI44
aI60
aI74
aI49
aI64
aI48
aI63
aI56
aI55
aI57
aI44
aI52
aI40
aI53
aI46
aI49
aI44
aI58
aI61
aI59
aI65
aI49
aI69
aI52
aI49
aI42
aI49
aI44
aI62
aI60
aI47
aI74
aI62
aI46
aI48
aI64
aI44
aI61
aI45
aI48
aI64
aI55
aI54
aI37
aI38
aI38
aI29
aI53
aI54
aI58
aI58
aI37
aI35
aI48
aI57
aI43
aI50
aI46
aI54
aI38
aI64
aI57
aI55
aI55
aI69
aI65
aI62
aI49
aI61
aI78
aI48
aI43
aI49
aI37
aI49
aI40
aI43
aI47
aI52
aI39
aI54
aI57
aI42
aI50
aI45
aI45
aI51
aI40
aI53
aI56
aI36
aI40
aI41
aI55
aI44
aI61
aI40
aI56
aI44
aI48
aI50
aI55
aI65
aI58
aI67
aI40
aI67
aI54
aI50
aI36
aI51
aI45
aI48
aI51
aI61
aI54
aI45
aI53
aI36
aI49
aI43
aI39
aI55
aI64
aI58
aI41
aI47
aI36
aI50
aI40
aI63
aI51
aI29
aI65
aI54
aI49
aI44
aI49
aI52
aI44
aI42
aI56
aI23
aI54
aI37
aI47
aI2
aI3
aI4
aI3
aI3
aI3
aI2
aI2
aI3
aI4
aI4
aI3
aI3
aI3
aI3
aI3
aI3
aI2
aI4
aI3
aI2
aI00
tp126
a(F11565.97
(lp127
I4
aI5
aI51
aI56
aI59
aI62
aI59
aI52
aI52
aI47
aI47
aI58
aI53
aI60
aI58
aI51
aI57
aI41
aI66
aI53
aI54
aI35
aI27
aI39
aI48
aI42
aI34
aI43
aI70
aI60
aI49
aI43
aI70
aI59
aI66
aI35
aI51
aI58
aI40
aI45
aI54
aI45
aI48
aI44
aI8
aI12
aI15
aI15
aI13
aI10
aI17
aI15
aI14
aI13
aI12
aI10
aI11
aI14
aI8
aI8
aI15
aI9
aI11
aI7
aI10
aI8
aI8
aI9
aI7
aI4
aI7
aI5
aI53
aI46
aI56
aI75
aI53
aI61
aI43
aI57
aI53
aI48
aI60
aI48
aI47
aI47
aI51
aI43
aI44
aI46
aI54
aI63
aI65
aI68
aI52
aI68
aI54
aI50
aI43
aI43
aI46
aI64
aI61
aI44
aI78
aI59
aI50
aI47
aI65
aI46
aI60
aI48
aI48
aI65
aI58
aI53
aI31
aI38
aI37
aI33
aI59
aI54
aI65
aI64
aI38
aI32
aI50
aI61
aI43
aI49
aI49
aI57
aI33
aI67
aI61
aI51
aI58
aI66
aI69
aI64
aI46
aI65
aI83
aI47
aI44
aI47
aI39
aI55
aI37
aI44
aI37
aI54
aI32
aI57
aI59
aI48
aI46
aI45
aI54
aI49
aI37
aI58
aI53
aI32
aI32
aI37
aI56
aI40
aI56
aI44
aI59
aI47
aI51
aI52
aI52
aI67
aI51
aI69
aI42
aI68
aI53
aI44
aI35
aI48
aI50
aI50
aI49
aI58
aI51
aI44
aI56
aI43
aI50
aI47
aI39
aI54
aI66
aI61
aI43
aI49
aI35
aI43
aI45
aI61
aI51
aI29
aI56
aI63
aI51
aI41
aI48
aI50
aI47
aI34
aI54
aI20
aI49
aI39
aI48
aI2
aI3
aI4
aI4
aI3
aI3
aI3
aI3
aI3
aI3
aI3
aI2
aI3
aI2
aI4
aI3
aI2
aI2
aI4
aI2
aI3
aI00
tp128
a(F11565.34
(lp129
I4
aI5
aI52
aI56
aI59
aI62
aI58
aI52
aI51
aI46
aI47
aI59
aI53
aI59
aI58
aI51
aI59
aI40
aI66
aI53
aI54
aI35
aI27
aI39
aI47
aI42
aI34
aI43
aI71
aI60
aI50
aI42
aI70
aI61
aI68
aI36
aI50
aI59
aI39
aI44
aI55
aI46
aI48
aI43
aI8
aI12
aI15
aI15
aI13
aI11
aI17
aI15
aI14
aI13
aI12
aI11
aI10
aI13
aI7
aI8
aI15
aI9
aI11
aI7
aI9
aI8
aI8
aI9
aI7
aI4
aI7
aI5
aI53
aI47
aI57
aI75
aI54
aI61
aI42
aI57
aI54
aI47
aI61
aI48
aI47
aI48
aI51
aI43
aI44
aI46
aI54
aI63
aI65
aI69
aI52
aI68
aI54
aI50
aI43
aI42
aI46
aI65
aI60
aI44
aI78
aI60
aI50
aI47
aI65
aI45
aI61
aI48
aI48
aI65
aI59
aI52
aI31
aI38
aI37
aI34
aI59
aI54
aI65
aI65
aI38
aI32
aI50
aI62
aI43
aI49
aI48
aI57
aI33
aI68
aI61
aI51
aI59
aI66
aI70
aI65
aI46
aI65
aI84
aI47
aI44
aI47
aI39
aI55
aI37
aI43
aI36
aI54
aI32
aI57
aI59
aI49
aI46
aI44
aI55
aI48
aI36
aI59
aI52
aI32
aI31
aI35
aI55
aI40
aI56
aI44
aI60
aI48
aI51
aI52
aI51
aI68
aI49
aI69
aI42
aI68
aI53
aI43
aI35
aI47
aI51
aI51
aI49
aI58
aI51
aI44
aI57
aI44
aI50
aI48
aI39
aI54
aI66
aI61
aI44
aI49
aI36
aI42
aI46
aI61
aI51
aI29
aI55
aI64
aI51
aI41
aI48
aI49
aI47
aI33
aI53
aI19
aI49
aI39
aI48
aI2
aI3
aI4
aI4
aI3
aI3
aI3
aI3
aI3
aI3
aI3
aI2
aI3
aI2
aI4
aI3
aI2
aI2
aI4
aI2
aI3
aI00
tp130
a(F11565.34
(lp131
I4
aI5
aI52
aI56
aI59
aI62
aI58
aI52
aI51
aI46
aI47
aI59
aI53
aI59
aI58
aI51
aI59
aI40
aI66
aI53
aI54
aI35
aI27
aI39
aI47
aI42
aI34
aI43
aI71
aI60
aI50
aI42
aI70
aI61
aI68
aI36
aI50
aI59
aI39
aI44
aI55
aI46
aI48
aI43
aI8
aI12
aI15
aI15
aI13
aI11
aI17
aI15
aI14
aI13
aI12
aI11
aI10
aI13
aI7
aI8
aI15
aI9
aI11
aI7
aI9
aI8
aI8
aI9
aI7
aI4
aI7
aI5
aI53
aI47
aI57
aI75
aI54
aI61
aI42
aI57
aI54
aI47
aI61
aI48
aI47
aI48
aI51
aI43
aI44
aI46
aI54
aI63
aI65
aI69
aI52
aI68
aI54
aI50
aI43
aI42
aI46
aI65
aI60
aI44
aI78
aI60
aI50
aI47
aI65
aI45
aI61
aI48
aI48
aI65
aI59
aI52
aI31
aI38
aI37
aI34
aI59
aI54
aI65
aI65
aI38
aI32
aI50
aI62
aI43
aI49
aI48
aI57
aI33
aI68
aI61
aI51
aI59
aI66
aI70
aI65
aI46
aI65
aI84
aI47
aI44
aI47
aI39
aI55
aI37
aI43
aI36
aI54
aI32
aI57
aI59
aI49
aI46
aI44
aI55
aI48
aI36
aI59
aI52
aI32
aI31
aI35
aI55
aI40
aI56
aI44
aI60
aI48
aI51
aI52
aI51
aI68
aI49
aI69
aI42
aI68
aI53
aI43
aI35
aI47
aI51
aI51
aI49
aI58
aI51
aI44
aI57
aI44
aI50
aI48
aI39
aI54
aI66
aI61
aI44
aI49
aI36
aI42
aI46
aI61
aI51
aI29
aI55
aI64
aI51
aI41
aI48
aI49
aI47
aI33
aI53
aI19
aI49
aI39
aI48
aI2
aI3
aI4
aI4
aI3
aI3
aI3
aI3
aI3
aI3
aI3
aI2
aI3
aI2
aI4
aI3
aI2
aI2
aI4
aI2
aI3
aI00
tp132
a(F11564.2
(lp133
I4
aI5
aI52
aI56
aI58
aI63
aI57
aI52
aI50
aI46
aI47
aI60
aI53
aI60
aI59
aI51
aI59
aI40
aI67
aI52
aI54
aI35
aI27
aI40
aI47
aI41
aI34
aI42
aI71
aI61
aI49
aI42
aI71
aI61
aI68
aI36
aI50
aI59
aI38
aI43
aI55
aI45
aI49
aI43
aI8
aI12
aI15
aI15
aI13
aI10
aI17
aI15
aI14
aI13
aI12
aI10
aI11
aI14
aI7
aI8
aI15
aI9
aI11
aI7
aI9
aI8
aI8
aI9
aI7
aI4
aI7
aI5
aI53
aI47
aI56
aI75
aI54
aI60
aI41
aI56
aI53
aI46
aI61
aI48
aI47
aI49
aI52
aI42
aI42
aI46
aI54
aI64
aI66
aI69
aI52
aI68
aI54
aI50
aI43
aI42
aI46
aI65
aI61
aI43
aI79
aI58
aI51
aI47
aI65
aI45
aI60
aI49
aI48
aI65
aI59
aI53
aI30
aI38
aI37
aI34
aI60
aI54
aI66
aI65
aI38
aI31
aI50
aI63
aI43
aI49
aI49
aI58
aI32
aI68
aI62
aI50
aI60
aI65
aI70
aI65
aI46
aI66
aI84
aI47
aI44
aI47
aI39
aI56
aI36
aI44
aI35
aI54
aI31
aI58
aI59
aI49
aI45
aI45
aI55
aI48
aI36
aI60
aI52
aI31
aI30
aI35
aI56
aI40
aI56
aI45
aI60
aI48
aI52
aI52
aI51
aI68
aI49
aI70
aI42
aI68
aI53
aI42
aI35
aI47
aI51
aI51
aI49
aI57
aI50
aI44
aI57
aI45
aI50
aI48
aI39
aI54
aI65
aI62
aI44
aI50
aI35
aI42
aI47
aI61
aI51
aI29
aI54
aI65
aI51
aI40
aI48
aI49
aI48
aI32
aI53
aI19
aI48
aI39
aI48
aI2
aI3
aI4
aI4
aI3
aI3
aI3
aI3
aI3
aI3
aI3
aI2
aI3
aI2
aI4
aI3
aI2
aI2
aI4
aI2
aI3
aI00
tp134
a(F11564.2
(lp135
I4
aI5
aI51
aI56
aI59
aI63
aI57
aI51
aI50
aI47
aI47
aI60
aI53
aI59
aI59
aI51
aI59
aI40
aI66
aI53
aI54
aI35
aI27
aI40
aI48
aI42
aI35
aI43
aI70
aI60
aI49
aI42
aI70
aI61
aI68
aI36
aI50
aI59
aI38
aI44
aI55
aI45
aI48
aI43
aI8
aI12
aI15
aI15
aI13
aI10
aI17
aI15
aI14
aI13
aI12
aI10
aI11
aI14
aI8
aI8
aI15
aI9
aI11
aI7
aI10
aI8
aI8
aI9
aI7
aI4
aI7
aI5
aI53
aI46
aI57
aI75
aI54
aI61
aI41
aI56
aI54
aI46
aI60
aI48
aI47
aI49
aI52
aI43
aI42
aI46
aI54
aI63
aI66
aI69
aI51
aI68
aI54
aI50
aI43
aI41
aI46
aI64
aI61
aI44
aI79
aI59
aI50
aI47
aI65
aI45
aI60
aI49
aI48
aI65
aI59
aI53
aI30
aI38
aI37
aI34
aI60
aI54
aI66
aI65
aI38
aI31
aI50
aI63
aI43
aI49
aI48
aI57
aI32
aI67
aI61
aI50
aI60
aI66
aI70
aI65
aI47
aI65
aI84
aI47
aI44
aI47
aI39
aI56
aI37
aI44
aI34
aI54
aI31
aI57
aI59
aI49
aI45
aI45
aI55
aI49
aI36
aI60
aI53
aI32
aI30
aI35
aI56
aI40
aI56
aI44
aI60
aI47
aI51
aI52
aI51
aI67
aI49
aI69
aI42
aI68
aI53
aI42
aI35
aI47
aI51
aI50
aI49
aI58
aI51
aI44
aI57
aI45
aI50
aI48
aI39
aI54
aI65
aI61
aI43
aI49
aI35
aI42
aI47
aI61
aI51
aI29
aI54
aI65
aI51
aI41
aI48
aI50
aI47
aI32
aI54
aI19
aI48
aI39
aI48
aI2
aI3
aI4
aI4
aI3
aI3
aI3
aI3
aI3
aI3
aI3
aI2
aI3
aI2
aI4
aI3
aI2
aI2
aI4
aI2
aI3
aI00
tp136
a(F11562.37
(lp137
I4
aI5
aI53
aI55
aI60
aI62
aI56
aI54
aI51
aI45
aI43
aI61
aI52
aI61
aI60
aI48
aI60
aI38
aI67
aI55
aI55
aI35
aI28
aI40
aI49
aI41
aI35
aI43
aI71
aI62
aI48
aI42
aI70
aI57
aI68
aI35
aI52
aI58
aI36
aI44
aI54
aI48
aI48
aI42
aI8
aI13
aI15
aI15
aI14
aI11
aI17
aI15
aI14
aI13
aI12
aI10
aI10
aI15
aI7
aI7
aI15
aI9
aI11
aI7
aI9
aI8
aI9
aI8
aI7
aI4
aI8
aI5
aI52
aI46
aI54
aI74
aI52
aI57
aI40
aI57
aI52
aI46
aI64
aI47
aI46
aI50
aI53
aI44
aI43
aI46
aI53
aI68
aI66
aI69
aI53
aI66
aI56
aI51
aI46
aI43
aI43
aI63
aI63
aI41
aI80
aI60
aI51
aI44
aI67
aI48
aI60
aI49
aI50
aI67
aI60
aI51
aI31
aI38
aI36
aI33
aI60
aI52
aI69
aI63
aI35
aI31
aI51
aI62
aI44
aI47
aI48
aI58
aI32
aI69
aI64
aI48
aI57
aI66
aI72
aI66
aI47
aI66
aI82
aI45
aI46
aI46
aI39
aI56
aI32
aI44
aI35
aI51
aI29
aI57
aI60
aI49
aI46
aI43
aI55
aI50
aI35
aI59
aI51
aI31
aI30
aI37
aI61
aI38
aI55
aI44
aI64
aI48
aI48
aI52
aI52
aI68
aI53
aI70
aI42
aI66
aI52
aI43
aI35
aI48
aI52
aI48
aI50
aI61
aI51
aI46
aI56
aI46
aI49
aI49
aI37
aI57
aI65
aI60
aI43
aI50
aI32
aI41
aI46
aI60
aI54
aI31
aI52
aI66
aI50
aI40
aI46
aI49
aI50
aI32
aI54
aI19
aI47
aI40
aI48
aI2
aI2
aI4
aI4
aI3
aI3
aI3
aI3
aI3
aI3
aI3
aI2
aI2
aI2
aI4
aI3
aI2
aI2
aI4
aI2
aI3
aI00
tp138
a(F11561.45
(lp139
I4
aI5
aI52
aI56
aI58
aI63
aI57
aI52
aI49
aI46
aI47
aI61
aI54
aI60
aI60
aI51
aI61
aI39
aI67
aI52
aI54
aI35
aI28
aI41
aI47
aI42
aI34
aI42
aI71
aI61
aI49
aI43
aI70
aI62
aI69
aI35
aI49
aI61
aI37
aI43
aI55
aI46
aI49
aI42
aI8
aI12
aI14
aI15
aI13
aI10
aI17
aI14
aI15
aI13
aI12
aI10
aI10
aI14
aI7
aI8
aI15
aI9
aI11
aI7
aI9
aI9
aI8
aI9
aI7
aI4
aI7
aI5
aI53
aI47
aI56
aI76
aI55
aI60
aI41
aI55
aI53
aI45
aI61
aI49
aI46
aI50
aI51
aI42
aI42
aI46
aI53
aI63
aI67
aI70
aI52
aI68
aI54
aI50
aI43
aI40
aI46
aI65
aI61
aI43
aI79
aI59
aI51
aI47
aI65
aI46
aI60
aI49
aI48
aI65
aI60
aI52
aI30
aI38
aI36
aI35
aI61
aI54
aI67
aI67
aI38
aI31
aI51
aI64
aI43
aI49
aI48
aI57
aI32
aI68
aI62
aI50
aI60
aI65
aI71
aI66
aI46
aI66
aI85
aI47
aI44
aI46
aI39
aI57
aI36
aI43
aI33
aI54
aI30
aI58
aI59
aI50
aI45
aI45
aI57
aI48
aI35
aI60
aI52
aI31
aI30
aI34
aI56
aI39
aI55
aI45
aI61
aI48
aI52
aI52
aI50
aI68
aI47
aI69
aI42
aI68
aI53
aI41
aI34
aI46
aI52
aI51
aI49
aI57
aI50
aI43
aI58
aI46
aI50
aI49
aI39
aI54
aI66
aI61
aI44
aI50
aI35
aI41
aI48
aI61
aI51
aI29
aI53
aI66
aI51
aI40
aI48
aI49
aI48
aI31
aI53
aI18
aI48
aI39
aI48
aI2
aI3
aI4
aI4
aI3
aI3
aI3
aI3
aI3
aI3
aI3
aI2
aI3
aI2
aI4
aI3
aI1
aI2
aI4
aI2
aI3
aI00
tp140
a(F11560.31
(lp141
I4
aI5
aI52
aI56
aI58
aI63
aI56
aI52
aI49
aI46
aI47
aI62
aI54
aI60
aI61
aI51
aI61
aI39
aI67
aI51
aI54
aI35
aI27
aI41
aI47
aI41
aI34
aI42
aI71
aI61
aI48
aI42
aI72
aI62
aI69
aI36
aI50
aI61
aI36
aI42
aI56
aI45
aI49
aI43
aI8
aI13
aI14
aI15
aI13
aI10
aI17
aI14
aI15
aI13
aI12
aI10
aI10
aI14
aI7
aI7
aI15
aI9
aI11
aI7
aI9
aI9
aI8
aI9
aI7
aI4
aI7
aI5
aI53
aI47
aI56
aI76
aI55
aI60
aI40
aI55
aI53
aI45
aI61
aI49
aI46
aI51
aI51
aI42
aI41
aI47
aI53
aI64
aI68
aI70
aI52
aI68
aI54
aI50
aI44
aI39
aI47
aI65
aI61
aI43
aI79
aI58
aI51
aI47
aI66
aI45
aI60
aI49
aI48
aI65
aI59
aI52
aI29
aI38
aI37
aI35
aI62
aI54
aI67
aI67
aI38
aI30
aI50
aI64
aI43
aI49
aI49
aI58
aI31
aI68
aI62
aI49
aI60
aI65
aI71
aI65
aI45
aI66
aI85
aI47
aI44
aI46
aI40
aI58
aI36
aI44
aI33
aI54
aI30
aI58
aI60
aI51
aI44
aI45
aI58
aI48
aI35
aI61
aI52
aI31
aI28
aI34
aI56
aI39
aI55
aI45
aI61
aI48
aI52
aI52
aI50
aI69
aI47
aI70
aI42
aI68
aI52
aI41
aI34
aI47
aI52
aI51
aI49
aI57
aI50
aI43
aI57
aI46
aI50
aI49
aI39
aI54
aI66
aI62
aI44
aI50
aI35
aI41
aI48
aI61
aI51
aI29
aI52
aI67
aI52
aI40
aI48
aI49
aI48
aI30
aI53
aI18
aI47
aI39
aI48
aI2
aI3
aI4
aI4
aI3
aI3
aI3
aI3
aI3
aI3
aI3
aI2
aI3
aI2
aI4
aI3
aI1
aI2
aI4
aI2
aI3
aI00
tp142
a(F11560.09
(lp143
I4
aI5
aI54
aI55
aI60
aI63
aI55
aI55
aI50
aI45
aI43
aI63
aI52
aI62
aI62
aI48
aI62
aI37
aI68
aI55
aI55
aI35
aI29
aI41
aI49
aI40
aI35
aI43
aI72
aI63
aI47
aI42
aI70
aI57
aI69
aI35
aI52
aI59
aI34
aI43
aI54
aI48
aI48
aI41
aI8
aI13
aI15
aI15
aI14
aI11
aI17
aI15
aI14
aI13
aI12
aI10
aI10
aI15
aI7
aI7
aI15
aI9
aI11
aI7
aI9
aI8
aI9
aI8
aI7
aI4
aI8
aI5
aI52
aI46
aI53
aI74
aI52
aI56
aI39
aI56
aI52
aI45
aI65
aI47
aI45
aI52
aI53
aI44
aI42
aI46
aI52
aI69
aI67
aI69
aI53
aI66
aI57
aI51
aI46
aI42
aI43
aI63
aI63
aI40
aI81
aI60
aI52
aI44
aI67
aI49
aI60
aI50
aI50
aI67
aI61
aI51
aI30
aI38
aI36
aI34
aI61
aI52
aI71
aI64
aI35
aI31
aI51
aI63
aI44
aI47
aI48
aI58
aI31
aI69
aI65
aI47
aI57
aI66
aI73
aI66
aI47
aI67
aI83
aI45
aI46
aI46
aI39
aI57
aI31
aI44
aI33
aI51
aI27
aI58
aI60
aI50
aI45
aI43
aI56
aI50
aI34
aI60
aI50
aI30
aI28
aI36
aI62
aI37
aI54
aI45
aI65
aI48
aI48
aI52
aI52
aI68
aI52
aI71
aI42
aI66
aI52
aI42
aI35
aI47
aI53
aI48
aI50
aI61
aI51
aI46
aI57
aI47
aI49
aI50
aI37
aI57
aI65
aI60
aI43
aI50
aI31
aI40
aI47
aI60
aI55
aI31
aI50
aI68
aI50
aI40
aI46
aI48
aI51
aI30
aI54
aI19
aI46
aI40
aI48
aI2
aI2
aI4
aI4
aI3
aI3
aI3
aI3
aI3
aI3
aI3
aI2
aI2
aI2
aI4
aI3
aI2
aI2
aI4
aI2
aI3
aI00
tp144
a(F11559.94
(lp145
I4
aI5
aI52
aI56
aI58
aI64
aI55
aI54
aI47
aI45
aI47
aI64
aI53
aI60
aI63
aI51
aI64
aI37
aI68
aI52
aI54
aI35
aI29
aI43
aI46
aI42
aI34
aI42
aI71
aI61
aI47
aI42
aI71
aI63
aI71
aI35
aI49
aI62
aI35
aI41
aI55
aI46
aI50
aI41
aI8
aI13
aI15
aI15
aI14
aI10
aI17
aI14
aI15
aI13
aI12
aI10
aI10
aI14
aI7
aI7
aI15
aI9
aI11
aI7
aI9
aI9
aI8
aI9
aI7
aI4
aI7
aI5
aI51
aI47
aI54
aI75
aI57
aI59
aI40
aI53
aI53
aI42
aI62
aI51
aI45
aI51
aI51
aI41
aI40
aI46
aI53
aI64
aI68
aI71
aI54
aI68
aI55
aI50
aI44
aI38
aI46
aI65
aI61
aI42
aI81
aI58
aI52
aI47
aI65
aI46
aI60
aI50
aI50
aI65
aI61
aI52
aI29
aI38
aI37
aI36
aI63
aI54
aI69
aI69
aI38
aI30
aI51
aI66
aI43
aI49
aI49
aI58
aI30
aI69
aI62
aI48
aI62
aI64
aI72
aI67
aI45
aI66
aI86
aI47
aI44
aI46
aI40
aI58
aI36
aI44
aI29
aI54
aI28
aI59
aI60
aI52
aI44
aI45
aI59
aI48
aI35
aI61
aI51
aI31
aI28
aI32
aI55
aI38
aI54
aI46
aI63
aI49
aI52
aI52
aI49
aI69
aI46
aI70
aI43
aI68
aI52
aI40
aI34
aI46
aI54
aI51
aI49
aI57
aI50
aI43
aI58
aI49
aI49
aI51
aI39
aI54
aI66
aI62
aI45
aI52
aI35
aI39
aI49
aI61
aI52
aI29
aI49
aI69
aI52
aI39
aI48
aI49
aI49
aI29
aI52
aI17
aI47
aI40
aI48
aI2
aI3
aI4
aI4
aI3
aI3
aI3
aI3
aI3
aI3
aI3
aI2
aI3
aI2
aI4
aI3
aI1
aI2
aI4
aI2
aI3
aI00
tp146
a(F11559.51
(lp147
I4
aI5
aI50
aI57
aI61
aI59
aI60
aI52
aI52
aI46
aI47
aI56
aI52
aI58
aI56
aI51
aI56
aI42
aI65
aI54
aI56
aI35
aI26
aI37
aI48
aI44
aI36
aI43
aI70
aI59
aI51
aI42
aI69
aI59
aI66
aI36
aI52
aI57
aI41
aI48
aI54
aI47
aI48
aI45
aI7
aI12
aI15
aI14
aI13
aI11
aI17
aI15
aI13
aI14
aI12
aI11
aI11
aI13
aI8
aI8
aI15
aI9
aI11
aI7
aI10
aI8
aI8
aI8
aI7
aI4
aI6
aI5
aI51
aI45
aI57
aI75
aI53
aI61
aI45
aI59
aI55
aI49
aI60
aI48
aI48
aI43
aI52
aI43
aI46
aI44
aI55
aI61
aI62
aI68
aI52
aI68
aI54
aI49
aI44
aI44
aI46
aI64
aI61
aI46
aI78
aI61
aI49
aI48
aI64
aI45
aI61
aI47
aI51
aI64
aI58
aI53
aI34
aI39
aI38
aI32
aI57
aI53
aI63
aI63
aI37
aI33
aI49
aI62
aI43
aI49
aI47
aI56
aI35
aI68
aI59
aI52
aI58
aI66
aI68
aI66
aI45
aI63
aI82
aI47
aI43
aI48
aI39
aI52
aI38
aI43
aI39
aI52
aI35
aI56
aI60
aI46
aI49
aI44
aI53
aI48
aI37
aI56
aI53
aI34
aI37
aI36
aI54
aI40
aI58
aI43
aI59
aI48
aI51
aI51
aI52
aI68
aI53
aI67
aI42
aI66
aI52
aI46
aI35
aI49
aI49
aI50
aI50
aI58
aI52
aI44
aI55
aI42
aI48
aI46
aI39
aI55
aI66
aI59
aI43
aI50
aI36
aI46
aI44
aI62
aI52
aI28
aI58
aI60
aI52
aI41
aI48
aI50
aI47
aI37
aI54
aI20
aI51
aI38
aI48
aI2
aI3
aI4
aI4
aI3
aI3
aI3
aI3
aI3
aI3
aI3
aI2
aI3
aI2
aI4
aI3
aI2
aI2
aI4
aI2
aI3
aI00
tp148
a(F11558.47
(lp149
I4
aI5
aI52
aI56
aI58
aI64
aI56
aI53
aI48
aI46
aI47
aI63
aI53
aI60
aI62
aI51
aI62
aI38
aI68
aI52
aI54
aI35
aI28
aI42
aI47
aI41
aI34
aI42
aI71
aI61
aI47
aI42
aI71
aI63
aI70
aI35
aI49
aI61
aI36
aI41
aI55
aI45
aI49
aI42
aI8
aI13
aI15
aI15
aI14
aI10
aI17
aI14
aI15
aI13
aI12
aI10
aI10
aI14
aI7
aI7
aI15
aI9
aI11
aI7
aI9
aI9
aI8
aI9
aI7
aI4
aI7
aI5
aI52
aI47
aI55
aI75
aI56
aI60
aI40
aI54
aI53
aI44
aI61
aI50
aI45
aI51
aI51
aI42
aI41
aI46
aI53
aI64
aI68
aI70
aI53
aI68
aI55
aI50
aI44
aI39
aI46
aI65
aI61
aI42
aI80
aI58
aI52
aI47
aI65
aI46
aI60
aI50
aI49
aI65
aI60
aI52
aI29
aI38
aI37
aI36
aI62
aI54
aI68
aI68
aI38
aI30
aI51
aI65
aI43
aI49
aI49
aI58
aI30
aI69
aI63
aI48
aI61
aI65
aI72
aI66
aI45
aI66
aI86
aI47
aI44
aI46
aI40
aI58
aI36
aI44
aI31
aI54
aI29
aI59
aI60
aI51
aI44
aI45
aI58
aI48
aI35
aI61
aI52
aI31
aI28
aI33
aI56
aI39
aI54
aI46
aI61
aI48
aI52
aI52
aI50
aI69
aI47
aI70
aI42
aI68
aI52
aI40
aI34
aI46
aI53
aI51
aI49
aI57
aI50
aI43
aI58
aI47
aI49
aI50
aI39
aI54
aI66
aI62
aI44
aI51
aI35
aI40
aI48
aI61
aI52
aI29
aI51
aI68
aI51
aI40
aI48
aI49
aI48
aI30
aI53
aI18
aI47
aI40
aI48
aI2
aI3
aI4
aI4
aI3
aI3
aI3
aI3
aI3
aI3
aI3
aI2
aI3
aI2
aI4
aI3
aI1
aI2
aI4
aI2
aI3
aI00
tp150
a(F11558.47
(lp151
I4
aI5
aI52
aI56
aI58
aI64
aI56
aI52
aI48
aI46
aI47
aI64
aI54
aI60
aI62
aI51
aI62
aI38
aI68
aI51
aI53
aI35
aI28
aI42
aI46
aI41
aI34
aI42
aI71
aI62
aI47
aI43
aI72
aI63
aI70
aI35
aI49
aI62
aI36
aI41
aI56
aI45
aI49
aI42
aI8
aI13
aI14
aI16
aI14
aI10
aI17
aI14
aI15
aI13
aI12
aI10
aI10
aI14
aI7
aI7
aI15
aI9
aI11
aI7
aI9
aI9
aI8
aI9
aI7
aI4
aI8
aI5
aI53
aI47
aI56
aI76
aI56
aI60
aI40
aI54
aI53
aI44
aI61
aI49
aI45
aI52
aI51
aI42
aI41
aI47
aI53
aI64
aI68
aI70
aI53
aI68
aI55
aI50
aI44
aI39
aI47
aI66
aI61
aI42
aI80
aI58
aI52
aI47
aI66
aI46
aI60
aI50
aI48
aI65
aI60
aI52
aI29
aI38
aI36
aI36
aI62
aI54
aI68
aI68
aI38
aI30
aI51
aI65
aI43
aI49
aI49
aI58
aI30
aI68
aI63
aI48
aI61
aI65
aI72
aI66
aI45
aI67
aI86
aI47
aI44
aI46
aI40
aI58
aI36
aI44
aI31
aI55
aI29
aI59
aI60
aI51
aI43
aI45
aI59
aI47
aI35
aI61
aI52
aI30
aI27
aI33
aI57
aI39
aI54
aI46
aI61
aI48
aI52
aI52
aI50
aI69
aI46
aI70
aI43
aI68
aI52
aI40
aI34
aI46
aI53
aI51
aI48
aI57
aI50
aI43
aI58
aI47
aI50
aI50
aI39
aI54
aI66
aI62
aI44
aI50
aI35
aI40
aI49
aI60
aI51
aI29
aI50
aI69
aI52
aI40
aI48
aI49
aI48
aI29
aI52
aI18
aI47
aI40
aI48
aI2
aI3
aI4
aI4
aI3
aI3
aI3
aI3
aI3
aI3
aI3
aI2
aI3
aI2
aI4
aI3
aI1
aI2
aI4
aI2
aI3
aI00
tp152
a(F11557.34
(lp153
I4
aI5
aI54
aI55
aI59
aI64
aI54
aI55
aI48
aI45
aI44
aI64
aI53
aI61
aI63
aI49
aI63
aI37
aI68
aI54
aI55
aI35
aI30
aI42
aI48
aI41
aI34
aI42
aI72
aI63
aI47
aI42
aI70
aI59
aI70
aI35
aI51
aI60
aI33
aI42
aI55
aI48
aI49
aI40
aI8
aI13
aI15
aI15
aI14
aI11
aI17
aI15
aI15
aI13
aI12
aI10
aI10
aI15
aI7
aI7
aI15
aI9
aI11
aI7
aI9
aI8
aI9
aI8
aI7
aI4
aI8
aI5
aI52
aI47
aI53
aI75
aI54
aI56
aI39
aI54
aI52
aI43
aI65
aI49
aI45
aI52
aI52
aI43
aI41
aI46
aI52
aI67
aI68
aI70
aI54
aI66
aI57
aI51
aI46
aI40
aI44
aI64
aI62
aI40
aI82
aI59
aI52
aI45
aI67
aI48
aI60
aI50
aI50
aI66
aI61
aI51
aI29
aI38
aI36
aI35
aI62
aI52
aI71
aI66
aI36
aI31
aI51
aI65
aI44
aI48
aI49
aI58
aI30
aI70
aI64
aI47
aI59
aI65
aI73
aI67
aI46
aI67
aI84
aI45
aI45
aI46
aI40
aI58
aI32
aI44
aI31
aI52
aI27
aI59
aI61
aI51
aI45
aI44
aI58
aI49
aI34
aI61
aI50
aI30
aI27
aI34
aI60
aI37
aI54
aI46
aI65
aI49
aI50
aI52
aI50
aI69
aI49
aI70
aI43
aI66
aI51
aI41
aI35
aI46
aI54
aI49
aI49
aI59
aI50
aI45
aI58
aI48
aI49
aI51
aI38
aI56
aI66
aI60
aI44
aI51
aI32
aI39
aI48
aI60
aI54
aI30
aI49
aI69
aI51
aI39
aI46
aI48
aI51
aI28
aI53
aI18
aI46
aI40
aI48
aI2
aI2
aI4
aI4
aI3
aI3
aI3
aI3
aI3
aI3
aI3
aI2
aI2
aI2
aI4
aI3
aI2
aI2
aI4
aI2
aI3
aI00
tp154
a(F11554.62
(lp155
I4
aI5
aI53
aI56
aI59
aI64
aI53
aI56
aI46
aI43
aI48
aI66
aI52
aI59
aI65
aI49
aI66
aI36
aI68
aI53
aI54
aI34
aI30
aI44
aI47
aI43
aI35
aI42
aI72
aI61
aI47
aI41
aI69
aI63
aI73
aI36
aI49
aI62
aI33
aI40
aI56
aI48
aI50
aI40
aI8
aI13
aI15
aI15
aI14
aI10
aI17
aI15
aI16
aI13
aI13
aI10
aI10
aI14
aI7
aI8
aI16
aI9
aI11
aI7
aI8
aI9
aI8
aI9
aI7
aI3
aI8
aI5
aI51
aI46
aI52
aI75
aI57
aI57
aI38
aI52
aI54
aI40
aI63
aI54
aI45
aI52
aI52
aI42
aI40
aI46
aI53
aI65
aI68
aI72
aI55
aI66
aI57
aI50
aI47
aI37
aI46
aI65
aI63
aI42
aI83
aI59
aI53
aI47
aI66
aI48
aI60
aI49
aI51
aI65
aI62
aI51
aI29
aI38
aI37
aI36
aI64
aI53
aI72
aI70
aI37
aI31
aI52
aI68
aI42
aI50
aI48
aI57
aI30
aI71
aI62
aI47
aI63
aI63
aI74
aI69
aI43
aI66
aI88
aI46
aI44
aI46
aI40
aI60
aI35
aI42
aI28
aI53
aI27
aI59
aI61
aI52
aI46
aI45
aI61
aI47
aI32
aI61
aI51
aI30
aI27
aI30
aI55
aI36
aI53
aI46
aI66
aI49
aI53
aI52
aI49
aI70
aI44
aI70
aI43
aI67
aI51
aI41
aI34
aI45
aI56
aI50
aI48
aI56
aI51
aI43
aI59
aI52
aI48
aI53
aI38
aI56
aI66
aI61
aI44
aI53
aI34
aI37
aI50
aI61
aI53
aI28
aI46
aI70
aI51
aI39
aI47
aI48
aI50
aI27
aI52
aI16
aI46
aI39
aI47
aI2
aI2
aI4
aI4
aI3
aI3
aI3
aI2
aI3
aI3
aI3
aI2
aI2
aI2
aI4
aI3
aI2
aI2
aI5
aI2
aI3
aI00
tp156
a(F11553.74
(lp157
I4
aI5
aI52
aI55
aI59
aI62
aI57
aI53
aI50
aI45
aI48
aI61
aI53
aI59
aI60
aI50
aI61
aI40
aI66
aI53
aI55
aI34
aI28
aI40
aI47
aI43
aI35
aI43
aI70
aI60
aI49
aI41
aI70
aI61
aI70
aI37
aI51
aI60
aI37
aI43
aI56
aI47
aI50
aI42
aI7
aI12
aI15
aI15
aI14
aI10
aI17
aI15
aI14
aI14
aI12
aI10
aI11
aI14
aI8
aI8
aI15
aI9
aI11
aI7
aI10
aI9
aI8
aI8
aI7
aI4
aI7
aI5
aI51
aI46
aI55
aI76
aI55
aI59
aI42
aI56
aI54
aI44
aI62
aI50
aI47
aI48
aI52
aI42
aI42
aI46
aI54
aI63
aI66
aI69
aI53
aI67
aI55
aI50
aI45
aI40
aI47
aI65
aI62
aI44
aI80
aI59
aI50
aI48
aI65
aI46
aI60
aI48
aI50
aI64
aI60
aI52
aI32
aI39
aI38
aI34
aI61
aI54
aI68
aI66
aI37
aI32
aI50
aI65
aI42
aI50
aI48
aI57
aI32
aI69
aI61
aI50
aI61
aI64
aI72
aI67
aI45
aI64
aI84
aI47
aI43
aI47
aI40
aI57
aI36
aI42
aI34
aI53
aI31
aI57
aI60
aI50
aI47
aI46
aI57
aI48
aI35
aI60
aI52
aI32
aI32
aI34
aI55
aI39
aI55
aI44
aI62
aI48
aI51
aI51
aI50
aI68
aI48
aI68
aI43
aI67
aI51
aI43
aI34
aI47
aI53
aI50
aI50
aI57
aI51
aI44
aI57
aI47
aI49
aI49
aI39
aI55
aI66
aI60
aI43
aI51
aI35
aI42
aI47
aI62
aI52
aI29
aI52
aI65
aI52
aI39
aI47
aI49
aI49
aI31
aI53
aI18
aI49
aI38
aI48
aI2
aI3
aI4
aI4
aI3
aI3
aI3
aI3
aI3
aI3
aI3
aI2
aI3
aI2
aI4
aI3
aI2
aI2
aI4
aI2
aI3
aI00
tp158
a(F11552.66
(lp159
I4
aI5
aI52
aI57
aI60
aI62
aI58
aI54
aI50
aI45
aI47
aI59
aI53
aI59
aI59
aI50
aI59
aI40
aI67
aI54
aI56
aI35
aI28
aI40
aI47
aI43
aI35
aI43
aI71
aI60
aI49
aI42
aI69
aI61
aI69
aI35
aI50
aI60
aI39
aI44
aI54
aI48
aI50
aI42
aI7
aI13
aI15
aI15
aI14
aI11
aI17
aI15
aI15
aI13
aI12
aI11
aI10
aI13
aI7
aI8
aI15
aI9
aI11
aI7
aI9
aI8
aI8
aI8
aI7
aI4
aI7
aI5
aI51
aI46
aI55
aI75
aI55
aI59
aI42
aI56
aI54
aI46
aI62
aI50
aI46
aI46
aI51
aI42
aI43
aI44
aI53
aI62
aI64
aI70
aI54
aI67
aI56
aI50
aI45
aI41
aI46
aI64
aI61
aI44
aI80
aI60
aI51
aI48
aI64
aI47
aI61
aI49
aI51
aI64
aI60
aI52
aI32
aI39
aI38
aI35
aI60
aI53
aI67
aI66
aI37
aI33
aI50
aI65
aI43
aI49
aI48
aI57
aI32
aI70
aI60
aI50
aI60
aI64
aI70
aI68
aI44
aI65
aI84
aI46
aI43
aI47
aI40
aI55
aI37
aI43
aI35
aI52
aI31
aI57
aI61
aI49
aI48
aI44
aI55
aI47
aI35
aI58
aI51
aI32
aI33
aI33
aI54
aI38
aI56
aI45
aI62
aI49
aI51
aI52
aI50
aI69
aI49
aI68
aI43
aI66
aI52
aI44
aI34
aI47
aI52
aI50
aI50
aI57
aI51
aI44
aI57
aI45
aI48
aI49
aI38
aI55
aI67
aI59
aI44
aI52
aI36
aI42
aI46
aI61
aI53
aI28
aI54
aI63
aI52
aI40
aI47
aI49
aI49
aI33
aI53
aI18
aI49
aI38
aI48
aI2
aI3
aI4
aI4
aI3
aI3
aI3
aI3
aI3
aI3
aI3
aI2
aI3
aI2
aI4
aI3
aI2
aI2
aI4
aI2
aI3
aI00
tp160
a(F11550.39
(lp161
I4
aI5
aI52
aI56
aI58
aI62
aI56
aI53
aI49
aI46
aI47
aI61
aI53
aI59
aI61
aI51
aI61
aI39
aI67
aI52
aI54
aI35
aI27
aI41
aI47
aI42
aI34
aI42
aI71
aI61
aI49
aI42
aI71
aI62
aI69
aI36
aI50
aI60
aI36
aI43
aI56
aI46
aI49
aI43
aI8
aI13
aI14
aI15
aI13
aI10
aI17
aI14
aI15
aI13
aI12
aI10
aI10
aI14
aI7
aI7
aI15
aI9
aI11
aI7
aI9
aI9
aI8
aI9
aI7
aI4
aI7
aI5
aI52
aI47
aI55
aI76
aI55
aI59
aI41
aI55
aI54
aI45
aI61
aI49
aI47
aI50
aI51
aI42
aI42
aI47
aI53
aI63
aI67
aI70
aI53
aI68
aI55
aI50
aI44
aI39
aI47
aI65
aI61
aI43
aI80
aI59
aI51
aI47
aI66
aI45
aI60
aI49
aI49
aI65
aI60
aI52
aI30
aI38
aI37
aI35
aI61
aI54
aI67
aI67
aI38
aI31
aI50
aI65
aI43
aI50
aI48
aI57
aI31
aI68
aI61
aI49
aI60
aI65
aI71
aI66
aI45
aI65
aI85
aI47
aI44
aI46
aI40
aI57
aI36
aI43
aI34
aI54
aI31
aI58
aI60
aI50
aI45
aI45
aI58
aI48
aI35
aI60
aI52
aI32
aI29
aI34
aI55
aI39
aI55
aI44
aI61
aI48
aI52
aI52
aI50
aI69
aI47
aI69
aI42
aI68
aI52
aI42
aI34
aI47
aI52
aI51
aI49
aI57
aI51
aI43
aI57
aI46
aI49
aI49
aI39
aI55
aI66
aI61
aI44
aI50
aI35
aI41
aI47
aI61
aI51
aI29
aI52
aI66
aI52
aI40
aI48
aI49
aI48
aI31
aI53
aI18
aI48
aI38
aI48
aI2
aI3
aI4
aI4
aI3
aI3
aI3
aI3
aI3
aI3
aI3
aI2
aI3
aI2
aI4
aI3
aI1
aI2
aI4
aI2
aI3
aI00
tp162
a(F11545.58
(lp163
I4
aI5
aI52
aI56
aI58
aI64
aI56
aI53
aI48
aI45
aI47
aI63
aI53
aI59
aI62
aI51
aI62
aI38
aI68
aI52
aI54
aI35
aI29
aI42
aI47
aI42
aI34
aI42
aI71
aI61
aI48
aI42
aI71
aI62
aI70
aI36
aI49
aI61
aI35
aI42
aI56
aI46
aI50
aI42
aI8
aI12
aI14
aI15
aI14
aI10
aI17
aI14
aI15
aI13
aI12
aI10
aI10
aI14
aI7
aI7
aI15
aI9
aI11
aI7
aI9
aI9
aI8
aI9
aI7
aI4
aI7
aI5
aI52
aI47
aI55
aI76
aI56
aI59
aI40
aI54
aI54
aI43
aI62
aI50
aI46
aI51
aI52
aI42
aI41
aI46
aI53
aI63
aI68
aI71
aI53
aI67
aI55
aI49
aI45
aI38
aI47
aI66
aI61
aI42
aI80
aI59
aI52
aI48
aI66
aI46
aI60
aI50
aI49
aI64
aI61
aI53
aI29
aI39
aI37
aI36
aI62
aI54
aI69
aI68
aI38
aI31
aI50
aI66
aI43
aI50
aI49
aI58
aI31
aI69
aI62
aI49
aI62
aI64
aI72
aI67
aI45
aI65
aI85
aI46
aI44
aI47
aI40
aI58
aI36
aI42
aI31
aI54
aI29
aI59
aI60
aI51
aI45
aI45
aI59
aI47
aI35
aI61
aI52
aI31
aI29
aI32
aI56
aI39
aI55
aI45
aI62
aI49
aI53
aI52
aI49
aI69
aI45
aI69
aI43
aI67
aI51
aI41
aI34
aI46
aI53
aI51
aI49
aI57
aI50
aI43
aI58
aI48
aI49
aI50
aI39
aI55
aI66
aI61
aI44
aI51
aI35
aI40
aI48
aI61
aI51
aI29
aI50
aI68
aI52
aI40
aI47
aI49
aI49
aI29
aI52
aI17
aI47
aI38
aI48
aI2
aI3
aI4
aI4
aI3
aI3
aI3
aI3
aI3
aI3
aI3
aI2
aI3
aI2
aI4
aI3
aI1
aI2
aI4
aI2
aI3
aI00
tp164
a(F11229.68
(lp165
I4
aI5
aI49
aI56
aI61
aI59
aI62
aI49
aI55
aI48
aI47
aI53
aI52
aI58
aI53
aI51
aI52
aI44
aI63
aI54
aI55
aI34
aI25
aI35
aI49
aI44
aI36
aI44
aI68
aI58
aI52
aI42
aI69
aI56
aI63
aI36
aI54
aI55
aI44
aI50
aI54
aI45
aI46
aI47
aI8
aI11
aI15
aI14
aI13
aI11
aI16
aI15
aI12
aI14
aI13
aI11
aI11
aI13
aI9
aI8
aI16
aI10
aI10
aI7
aI11
aI8
aI8
aI9
aI6
aI4
aI6
aI4
aI52
aI45
aI59
aI75
aI51
aI63
aI46
aI61
aI55
aI52
aI58
aI45
aI50
aI43
aI52
aI45
aI47
aI45
aI56
aI62
aI62
aI66
aI50
aI69
aI53
aI49
aI43
aI46
aI45
aI63
aI60
aI46
aI75
aI61
aI47
aI48
aI65
aI45
aI61
aI47
aI48
aI64
aI56
aI53
aI35
aI38
aI37
aI31
aI56
aI54
aI61
aI61
aI37
aI33
aI49
aI59
aI43
aI50
aI47
aI55
aI36
aI65
aI59
aI53
aI56
aI68
aI67
aI63
aI48
aI62
aI80
aI48
aI43
aI48
aI38
aI52
aI39
aI43
aI43
aI53
aI36
aI55
aI58
aI45
aI48
aI45
aI49
aI50
aI39
aI55
aI55
aI35
aI37
aI39
aI56
aI43
aI59
aI41
aI57
aI45
aI49
aI51
aI54
aI66
aI55
aI68
aI41
aI67
aI53
aI47
aI35
aI50
aI47
aI49
aI50
aI60
aI53
aI44
aI54
aI39
aI49
aI45
aI39
aI55
aI65
aI59
aI42
aI48
aI36
aI47
aI42
aI62
aI51
aI29
aI61
aI58
aI50
aI43
aI49
aI51
aI45
aI39
aI55
aI22
aI52
aI38
aI47
aI2
aI3
aI4
aI3
aI3
aI3
aI2
aI2
aI3
aI4
aI4
aI3
aI3
aI3
aI3
aI3
aI2
aI2
aI4
aI3
aI2
aI00
tp166
a(F11208.53
(lp167
I4
aI6
aI51
aI56
aI60
aI61
aI58
aI52
aI51
aI46
aI47
aI59
aI53
aI59
aI58
aI50
aI58
aI40
aI66
aI53
aI55
aI35
aI28
aI39
aI48
aI43
aI34
aI43
aI70
aI59
aI50
aI42
aI70
aI60
aI67
aI36
aI51
aI59
aI38
aI45
aI54
aI46
aI48
aI43
aI7
aI12
aI15
aI15
aI13
aI11
aI17
aI15
aI14
aI14
aI12
aI11
aI11
aI13
aI7
aI8
aI16
aI10
aI10
aI7
aI9
aI8
aI8
aI9
aI6
aI4
aI7
aI4
aI52
aI46
aI56
aI75
aI53
aI60
aI42
aI57
aI54
aI47
aI61
aI49
aI48
aI47
aI52
aI43
aI44
aI45
aI55
aI63
aI65
aI69
aI52
aI67
aI54
aI50
aI43
aI43
aI46
aI63
aI61
aI44
aI79
aI60
aI50
aI48
aI65
aI46
aI61
aI47
aI49
aI64
aI59
aI53
aI32
aI38
aI37
aI34
aI59
aI53
aI65
aI65
aI37
aI33
aI50
aI62
aI43
aI49
aI48
aI57
aI33
aI68
aI60
aI51
aI59
aI65
aI69
aI66
aI46
aI64
aI83
aI46
aI44
aI47
aI39
aI55
aI37
aI44
aI37
aI53
aI31
aI56
aI59
aI48
aI47
aI44
aI55
aI48
aI37
aI59
aI53
aI33
aI33
aI36
aI55
aI39
aI56
aI43
aI61
aI48
aI50
aI52
aI51
aI68
aI50
aI68
aI42
aI67
aI53
aI44
aI35
aI48
aI51
aI50
aI49
aI58
aI51
aI44
aI56
aI44
aI49
aI48
aI39
aI55
aI66
aI60
aI44
aI50
aI36
aI42
aI46
aI61
aI52
aI29
aI55
aI64
aI51
aI41
aI48
aI50
aI48
aI34
aI54
aI19
aI49
aI39
aI47
aI3
aI3
aI3
aI3
aI3
aI3
aI2
aI2
aI3
aI4
aI3
aI2
aI3
aI3
aI3
aI3
aI2
aI2
aI4
aI3
aI2
aI00
tp168
a(F11192.47
(lp169
I4
aI5
aI51
aI56
aI60
aI61
aI59
aI51
aI52
aI47
aI47
aI58
aI52
aI59
aI57
aI50
aI57
aI41
aI65
aI53
aI55
aI35
aI27
aI38
aI48
aI42
aI35
aI43
aI70
aI59
aI50
aI42
aI70
aI59
aI66
aI36
aI52
aI57
aI40
aI46
aI54
aI45
aI47
aI45
aI8
aI11
aI15
aI14
aI13
aI11
aI16
aI15
aI13
aI14
aI13
aI11
aI11
aI13
aI8
aI8
aI16
aI10
aI10
aI7
aI10
aI8
aI8
aI9
aI6
aI4
aI6
aI4
aI52
aI46
aI57
aI75
aI53
aI61
aI43
aI58
aI54
aI48
aI60
aI47
aI48
aI47
aI52
aI44
aI44
aI45
aI55
aI63
aI64
aI68
aI51
aI68
aI53
aI49
aI43
aI43
aI45
aI64
aI60
aI44
aI77
aI60
aI49
aI48
aI65
aI45
aI61
aI48
aI49
aI64
aI58
aI53
aI32
aI38
aI37
aI33
aI58
aI53
aI64
aI63
aI37
aI32
aI50
aI61
aI43
aI49
aI48
aI57
aI34
aI67
aI61
aI51
aI58
aI66
aI68
aI64
aI47
aI64
aI82
aI47
aI43
aI47
aI38
aI54
aI38
aI44
aI38
aI53
aI33
aI56
aI58
aI48
aI47
aI44
aI53
aI49
aI38
aI58
aI53
aI33
aI32
aI37
aI55
aI41
aI57
aI43
aI59
aI47
aI50
aI52
aI52
aI67
aI51
aI69
aI41
aI67
aI53
aI44
aI35
aI48
aI50
aI50
aI50
aI59
aI52
aI44
aI55
aI43
aI49
aI47
aI39
aI55
aI65
aI60
aI43
aI49
aI36
aI44
aI45
aI61
aI52
aI29
aI56
aI63
aI50
aI42
aI49
aI50
aI47
aI34
aI54
aI21
aI49
aI39
aI47
aI2
aI3
aI4
aI3
aI3
aI3
aI2
aI2
aI3
aI4
aI4
aI3
aI3
aI3
aI3
aI3
aI2
aI2
aI4
aI3
aI2
aI00
tp170
a(F10784.9
(lp171
I4
aI5
aI49
aI55
aI61
aI59
aI64
aI49
aI54
aI47
aI47
aI52
aI52
aI57
aI53
aI52
aI53
aI44
aI62
aI54
aI55
aI33
aI23
aI33
aI48
aI45
aI36
aI44
aI67
aI56
aI54
aI40
aI69
aI57
aI65
aI38
aI53
aI55
aI45
aI51
aI56
aI46
aI47
aI47
aI8
aI11
aI16
aI14
aI12
aI10
aI16
aI16
aI11
aI15
aI13
aI11
aI12
aI13
aI8
aI9
aI16
aI10
aI11
aI7
aI11
aI8
aI8
aI9
aI6
aI4
aI6
aI4
aI51
aI44
aI60
aI76
aI51
aI63
aI48
aI61
aI56
aI52
aI58
aI44
aI51
aI42
aI53
aI43
aI47
aI46
aI57
aI61
aI60
aI67
aI51
aI69
aI54
aI48
aI43
aI46
aI46
aI65
aI62
aI48
aI75
aI60
aI46
aI49
aI64
aI44
aI60
aI45
aI47
aI63
aI56
aI54
aI37
aI39
aI39
aI30
aI56
aI56
aI59
aI62
aI37
aI33
aI48
aI60
aI42
aI51
aI45
aI55
aI37
aI65
aI56
aI54
aI56
aI69
aI69
aI65
aI47
aI60
aI79
aI48
aI42
aI50
aI39
aI51
aI38
aI41
aI45
aI53
aI39
aI54
aI59
aI44
aI50
aI47
aI48
aI49
aI39
aI54
aI55
aI37
aI39
aI38
aI55
aI44
aI60
aI40
aI57
aI46
aI51
aI49
aI54
aI66
aI54
aI67
aI41
aI68
aI53
aI48
aI36
aI50
aI46
aI50
aI50
aI58
aI53
aI43
aI54
aI39
aI49
aI45
aI41
aI55
aI64
aI58
aI42
aI49
aI35
aI49
aI42
aI63
aI50
aI28
aI62
aI55
aI51
aI42
aI48
aI51
aI45
aI39
aI54
aI22
aI54
aI36
aI47
aI2
aI3
aI4
aI3
aI3
aI3
aI2
aI2
aI3
aI4
aI4
aI3
aI3
aI3
aI3
aI3
aI3
aI2
aI4
aI3
aI2
aI00
tp172
a(F10781.8
(lp173
I4
aI6
aI50
aI56
aI61
aI60
aI61
aI50
aI54
aI48
aI46
aI54
aI53
aI59
aI54
aI51
aI53
aI42
aI64
aI53
aI55
aI35
aI25
aI36
aI49
aI43
aI35
aI44
aI69
aI58
aI52
aI42
aI69
aI57
aI64
aI36
aI53
aI56
aI43
aI49
aI53
aI45
aI47
aI46
aI7
aI11
aI15
aI13
aI12
aI11
aI16
aI15
aI12
aI14
aI12
aI11
aI11
aI13
aI9
aI9
aI16
aI10
aI10
aI7
aI11
aI8
aI8
aI9
aI6
aI4
aI6
aI4
aI53
aI45
aI58
aI75
aI51
aI62
aI46
aI60
aI54
aI51
aI59
aI47
aI50
aI44
aI52
aI44
aI47
aI45
aI55
aI62
aI62
aI67
aI51
aI68
aI53
aI49
aI42
aI46
aI45
aI63
aI60
aI45
aI76
aI61
aI48
aI47
aI64
aI45
aI61
aI47
aI48
aI64
aI56
aI53
aI35
aI38
aI37
aI32
aI56
aI54
aI61
aI61
aI37
aI33
aI50
aI59
aI43
aI49
aI47
aI56
aI36
aI66
aI59
aI53
aI57
aI67
aI67
aI64
aI47
aI62
aI81
aI47
aI44
aI47
aI38
aI52
aI38
aI44
aI42
aI52
aI35
aI55
aI58
aI45
aI48
aI44
aI50
aI49
aI39
aI55
aI54
aI34
aI36
aI39
aI55
aI43
aI58
aI42
aI57
aI46
aI50
aI51
aI53
aI66
aI54
aI68
aI40
aI67
aI54
aI47
aI35
aI50
aI47
aI49
aI51
aI59
aI52
aI44
aI54
aI40
aI50
aI44
aI39
aI55
aI65
aI59
aI42
aI48
aI36
aI46
aI43
aI62
aI52
aI29
aI61
aI59
aI50
aI42
aI49
aI51
aI46
aI39
aI55
aI22
aI52
aI38
aI47
aI3
aI3
aI3
aI3
aI3
aI3
aI2
aI2
aI3
aI4
aI3
aI2
aI3
aI3
aI3
aI3
aI2
aI2
aI4
aI3
aI2
aI00
tp174
a(F10781.8
(lp175
I4
aI6
aI50
aI56
aI61
aI60
aI61
aI50
aI54
aI48
aI46
aI54
aI53
aI59
aI54
aI51
aI53
aI42
aI64
aI53
aI55
aI35
aI25
aI36
aI49
aI43
aI35
aI44
aI69
aI58
aI52
aI42
aI69
aI57
aI64
aI36
aI53
aI56
aI43
aI49
aI53
aI45
aI47
aI46
aI7
aI11
aI15
aI13
aI12
aI11
aI16
aI15
aI12
aI14
aI12
aI11
aI11
aI13
aI9
aI9
aI16
aI10
aI10
aI7
aI11
aI8
aI8
aI9
aI6
aI4
aI6
aI4
aI53
aI45
aI58
aI75
aI51
aI62
aI46
aI60
aI54
aI51
aI59
aI47
aI50
aI44
aI52
aI44
aI47
aI45
aI55
aI62
aI62
aI67
aI51
aI68
aI53
aI49
aI42
aI46
aI45
aI63
aI60
aI45
aI76
aI61
aI48
aI47
aI64
aI45
aI61
aI47
aI48
aI64
aI56
aI53
aI35
aI38
aI37
aI32
aI56
aI54
aI61
aI61
aI37
aI33
aI50
aI59
aI43
aI49
aI47
aI56
aI36
aI66
aI59
aI53
aI57
aI67
aI67
aI64
aI47
aI62
aI81
aI47
aI44
aI47
aI38
aI52
aI38
aI44
aI42
aI52
aI35
aI55
aI58
aI45
aI48
aI44
aI50
aI49
aI39
aI55
aI54
aI34
aI36
aI39
aI55
aI43
aI58
aI42
aI57
aI46
aI50
aI51
aI53
aI66
aI54
aI68
aI40
aI67
aI54
aI47
aI35
aI50
aI47
aI49
aI51
aI59
aI52
aI44
aI54
aI40
aI50
aI44
aI39
aI55
aI65
aI59
aI42
aI48
aI36
aI46
aI43
aI62
aI52
aI29
aI61
aI59
aI50
aI42
aI49
aI51
aI46
aI39
aI55
aI22
aI52
aI38
aI47
aI3
aI3
aI3
aI3
aI3
aI3
aI2
aI2
aI3
aI4
aI3
aI2
aI3
aI3
aI3
aI3
aI2
aI2
aI4
aI3
aI2
aI00
tp176
a(F10781.8
(lp177
I4
aI5
aI50
aI56
aI61
aI57
aI62
aI51
aI54
aI47
aI47
aI53
aI52
aI57
aI54
aI51
aI53
aI44
aI64
aI54
aI56
aI35
aI25
aI35
aI48
aI44
aI36
aI44
aI69
aI58
aI53
aI41
aI69
aI57
aI65
aI36
aI53
aI56
aI43
aI49
aI53
aI46
aI48
aI46
aI8
aI11
aI16
aI14
aI13
aI11
aI18
aI16
aI13
aI14
aI13
aI11
aI11
aI13
aI8
aI9
aI16
aI10
aI11
aI7
aI10
aI8
aI8
aI9
aI6
aI4
aI6
aI5
aI50
aI45
aI59
aI74
aI51
aI62
aI46
aI61
aI56
aI50
aI60
aI46
aI50
aI42
aI52
aI43
aI47
aI44
aI56
aI61
aI61
aI67
aI52
aI68
aI54
aI49
aI43
aI46
aI45
aI63
aI60
aI46
aI77
aI61
aI48
aI49
aI63
aI45
aI61
aI47
aI50
aI63
aI56
aI53
aI36
aI39
aI39
aI31
aI55
aI54
aI61
aI62
aI37
aI34
aI49
aI60
aI42
aI50
aI47
aI56
aI36
aI68
aI58
aI54
aI56
aI66
aI68
aI64
aI46
aI61
aI81
aI47
aI42
aI48
aI39
aI51
aI39
aI43
aI43
aI52
aI36
aI55
aI60
aI45
aI50
aI44
aI51
aI48
aI39
aI54
aI54
aI35
aI38
aI38
aI54
aI42
aI59
aI41
aI58
aI47
aI50
aI51
aI53
aI67
aI55
aI67
aI42
aI67
aI53
aI48
aI35
aI50
aI48
aI50
aI51
aI59
aI53
aI43
aI54
aI41
aI49
aI45
aI40
aI54
aI66
aI58
aI43
aI49
aI37
aI47
aI42
aI62
aI51
aI28
aI60
aI58
aI51
aI42
aI48
aI51
aI47
aI39
aI54
aI22
aI53
aI37
aI47
aI2
aI3
aI4
aI3
aI3
aI3
aI2
aI2
aI3
aI4
aI4
aI3
aI3
aI3
aI3
aI3
aI3
aI2
aI4
aI3
aI2
aI00
tp178
a(F10781.09
(lp179
I4
aI5
aI50
aI56
aI60
aI61
aI61
aI52
aI51
aI46
aI47
aI56
aI52
aI57
aI56
aI51
aI57
aI42
aI64
aI54
aI55
aI34
aI26
aI36
aI47
aI45
aI36
aI43
aI68
aI57
aI52
aI40
aI69
aI59
aI68
aI37
aI51
aI57
aI41
aI48
aI56
aI47
aI48
aI45
aI8
aI12
aI16
aI14
aI13
aI10
aI17
aI15
aI13
aI14
aI13
aI11
aI11
aI13
aI8
aI8
aI16
aI10
aI11
aI7
aI10
aI8
aI8
aI9
aI6
aI4
aI6
aI4
aI51
aI45
aI57
aI76
aI53
aI61
aI45
aI58
aI56
aI47
aI60
aI48
aI49
aI44
aI53
aI42
aI45
aI46
aI56
aI61
aI62
aI69
aI53
aI68
aI55
aI49
aI44
aI43
aI46
aI65
aI62
aI46
aI77
aI60
aI49
aI49
aI64
aI45
aI60
aI46
aI49
aI63
aI58
aI53
aI35
aI39
aI39
aI33
aI58
aI55
aI63
aI65
aI37
aI33
aI49
aI64
aI42
aI51
aI46
aI56
aI35
aI67
aI57
aI52
aI59
aI66
aI70
aI67
aI46
aI61
aI81
aI47
aI42
aI49
aI40
aI53
aI38
aI41
aI40
aI53
aI35
aI55
aI60
aI47
aI50
aI46
aI52
aI48
aI37
aI56
aI54
aI35
aI37
aI35
aI54
aI42
aI58
aI42
aI60
aI47
aI52
aI50
aI52
aI67
aI51
aI67
aI42
aI67
aI52
aI46
aI35
aI48
aI49
aI50
aI50
aI57
aI52
aI43
aI56
aI44
aI48
aI48
aI40
aI55
aI65
aI58
aI43
aI51
aI35
aI46
aI44
aI63
aI51
aI28
aI57
aI59
aI52
aI41
aI47
aI50
aI47
aI35
aI53
aI20
aI52
aI36
aI47
aI2
aI3
aI4
aI3
aI3
aI3
aI2
aI2
aI3
aI4
aI4
aI3
aI3
aI3
aI3
aI3
aI2
aI2
aI4
aI3
aI2
aI00
tp180
a(F10779.09
(lp181
I4
aI6
aI50
aI56
aI62
aI59
aI62
aI50
aI56
aI48
aI46
aI52
aI52
aI58
aI52
aI51
aI51
aI43
aI63
aI54
aI55
aI35
aI24
aI34
aI49
aI43
aI35
aI45
aI69
aI57
aI53
aI41
aI69
aI56
aI63
aI37
aI54
aI54
aI45
aI50
aI53
aI45
aI46
aI47
aI7
aI11
aI16
aI13
aI12
aI12
aI16
aI16
aI11
aI14
aI12
aI12
aI11
aI12
aI9
aI9
aI16
aI10
aI10
aI7
aI11
aI7
aI8
aI9
aI6
aI4
aI6
aI4
aI53
aI45
aI59
aI74
aI50
aI63
aI47
aI62
aI55
aI53
aI59
aI46
aI51
aI42
aI52
aI45
aI49
aI45
aI56
aI62
aI60
aI66
aI51
aI68
aI53
aI49
aI42
aI48
aI45
aI63
aI59
aI46
aI75
aI62
aI47
aI47
aI64
aI44
aI62
aI46
aI48
aI64
aI55
aI53
aI36
aI38
aI38
aI31
aI54
aI54
aI59
aI59
aI37
aI34
aI49
aI57
aI43
aI49
aI47
aI56
aI37
aI66
aI58
aI54
aI56
aI68
aI66
aI63
aI47
aI61
aI80
aI47
aI44
aI48
aI38
aI50
aI39
aI44
aI45
aI52
aI37
aI54
aI58
aI44
aI49
aI43
aI48
aI49
aI40
aI54
aI54
aI35
aI37
aI40
aI54
aI44
aI59
aI41
aI56
aI46
aI49
aI51
aI54
aI66
aI56
aI68
aI40
aI67
aI54
aI49
aI36
aI51
aI46
aI49
aI51
aI60
aI53
aI45
aI53
aI38
aI50
aI43
aI39
aI55
aI65
aI59
aI42
aI47
aI37
aI47
aI41
aI62
aI52
aI29
aI63
aI57
aI50
aI43
aI49
aI51
aI45
aI41
aI55
aI23
aI53
aI38
aI47
aI3
aI3
aI3
aI3
aI3
aI3
aI2
aI2
aI3
aI4
aI3
aI2
aI3
aI3
aI3
aI3
aI3
aI2
aI4
aI3
aI2
aI00
tp182
a(F10779.09
(lp183
I4
aI5
aI49
aI56
aI61
aI58
aI63
aI49
aI56
aI48
aI47
aI51
aI52
aI58
aI51
aI51
aI50
aI45
aI63
aI54
aI56
aI34
aI24
aI33
aI50
aI44
aI36
aI45
aI68
aI57
aI53
aI42
aI69
aI55
aI62
aI36
aI55
aI53
aI46
aI51
aI53
aI45
aI46
aI48
aI8
aI11
aI16
aI13
aI12
aI11
aI16
aI16
aI11
aI14
aI13
aI11
aI11
aI13
aI9
aI9
aI16
aI10
aI10
aI7
aI11
aI7
aI8
aI9
aI6
aI4
aI6
aI4
aI52
aI45
aI59
aI74
aI49
aI63
aI47
aI62
aI55
aI54
aI58
aI44
aI51
aI41
aI52
aI45
aI48
aI44
aI57
aI62
aI60
aI65
aI50
aI69
aI52
aI49
aI42
aI48
aI44
aI62
aI60
aI46
aI74
aI61
aI47
aI48
aI64
aI45
aI61
aI46
aI48
aI64
aI55
aI53
aI36
aI38
aI37
aI30
aI54
aI54
aI59
aI59
aI37
aI34
aI49
aI57
aI43
aI49
aI47
aI55
aI37
aI65
aI58
aI55
aI55
aI68
aI65
aI62
aI48
aI62
aI79
aI48
aI43
aI48
aI37
aI50
aI39
aI43
aI46
aI52
aI38
aI54
aI57
aI43
aI49
aI45
aI47
aI50
aI40
aI54
aI55
aI35
aI38
aI41
aI55
aI44
aI60
aI41
aI56
aI45
aI49
aI51
aI55
aI66
aI57
aI68
aI40
aI67
aI54
aI49
aI36
aI51
aI46
aI49
aI51
aI60
aI53
aI45
aI53
aI37
aI49
aI43
aI39
aI55
aI65
aI59
aI42
aI47
aI36
aI49
aI41
aI62
aI51
aI29
aI63
aI56
aI49
aI43
aI49
aI51
aI45
aI41
aI55
aI23
aI53
aI38
aI47
aI2
aI3
aI4
aI3
aI3
aI3
aI2
aI2
aI3
aI4
aI4
aI3
aI3
aI3
aI3
aI3
aI3
aI2
aI4
aI3
aI2
aI00
tp184
a(F10778.2
(lp185
I4
aI5
aI51
aI56
aI60
aI61
aI59
aI53
aI52
aI47
aI47
aI57
aI52
aI58
aI58
aI50
aI58
aI41
aI65
aI55
aI56
aI35
aI28
aI38
aI48
aI44
aI35
aI43
aI69
aI58
aI50
aI42
aI68
aI58
aI66
aI36
aI52
aI57
aI40
aI46
aI54
aI47
aI48
aI44
aI8
aI12
aI16
aI14
aI13
aI11
aI17
aI15
aI13
aI14
aI13
aI11
aI11
aI13
aI8
aI8
aI16
aI10
aI10
aI7
aI10
aI8
aI8
aI9
aI6
aI4
aI6
aI4
aI51
aI45
aI55
aI75
aI53
aI60
aI44
aI57
aI55
aI47
aI61
aI49
aI48
aI45
aI51
aI44
aI44
aI44
aI55
aI62
aI63
aI68
aI53
aI67
aI55
aI50
aI44
aI44
aI45
aI63
aI61
aI45
aI78
aI61
aI49
aI48
aI64
aI46
aI61
aI47
aI51
aI64
aI58
aI53
aI33
aI39
aI38
aI32
aI58
aI53
aI65
aI64
aI37
aI34
aI50
aI62
aI43
aI49
aI48
aI56
aI34
aI68
aI60
aI52
aI58
aI65
aI68
aI66
aI46
aI63
aI82
aI46
aI43
aI47
aI39
aI54
aI38
aI43
aI38
aI52
aI33
aI55
aI59
aI48
aI49
aI44
aI53
aI49
aI38
aI57
aI53
aI34
aI34
aI36
aI54
aI40
aI57
aI43
aI61
aI47
aI50
aI52
aI52
aI67
aI52
aI67
aI42
aI67
aI52
aI46
aI35
aI48
aI51
aI49
aI50
aI59
aI52
aI44
aI55
aI44
aI48
aI48
aI39
aI55
aI66
aI59
aI43
aI50
aI36
aI44
aI45
aI62
aI53
aI29
aI56
aI62
aI51
aI41
aI47
aI50
aI48
aI34
aI54
aI21
aI50
aI38
aI47
aI2
aI3
aI4
aI3
aI3
aI3
aI2
aI2
aI3
aI4
aI4
aI3
aI3
aI3
aI3
aI3
aI2
aI2
aI4
aI3
aI2
aI00
tp186
a(F10777.98
(lp187
I4
aI5
aI52
aI56
aI60
aI62
aI58
aI53
aI49
aI45
aI47
aI60
aI52
aI58
aI60
aI51
aI61
aI39
aI66
aI54
aI55
aI34
aI28
aI40
aI47
aI45
aI35
aI43
aI70
aI59
aI49
aI41
aI69
aI61
aI70
aI37
aI50
aI60
aI37
aI44
aI56
aI48
aI50
aI42
aI7
aI12
aI15
aI15
aI14
aI10
aI17
aI15
aI14
aI14
aI12
aI10
aI11
aI14
aI7
aI8
aI15
aI9
aI11
aI7
aI9
aI9
aI8
aI8
aI7
aI4
aI7
aI5
aI50
aI45
aI55
aI76
aI55
aI59
aI43
aI55
aI55
aI44
aI61
aI50
aI48
aI47
aI52
aI42
aI42
aI45
aI54
aI62
aI65
aI70
aI54
aI67
aI56
aI49
aI45
aI40
aI47
aI66
aI62
aI45
aI80
aI60
aI50
aI49
aI65
aI46
aI61
aI48
aI50
aI63
aI60
aI53
aI32
aI40
aI38
aI34
aI61
aI54
aI67
aI68
aI37
aI33
aI49
aI66
aI42
aI51
aI47
aI56
aI33
aI69
aI59
aI51
aI60
aI65
aI72
aI69
aI44
aI63
aI84
aI46
aI43
aI48
aI40
aI55
aI37
aI41
aI35
aI53
aI32
aI57
aI60
aI49
aI48
aI46
aI56
aI47
aI36
aI59
aI52
aI34
aI33
aI32
aI54
aI39
aI56
aI43
aI63
aI49
aI52
aI51
aI50
aI69
aI47
aI67
aI43
aI67
aI51
aI44
aI34
aI47
aI53
aI50
aI50
aI57
aI52
aI43
aI57
aI47
aI48
aI50
aI39
aI56
aI66
aI59
aI44
aI52
aI35
aI42
aI47
aI62
aI52
aI28
aI53
aI63
aI52
aI40
aI46
aI50
aI48
aI32
aI52
aI18
aI50
aI37
aI48
aI2
aI3
aI4
aI4
aI3
aI3
aI3
aI3
aI3
aI3
aI3
aI2
aI3
aI2
aI4
aI3
aI2
aI2
aI4
aI2
aI3
aI00
tp188
a(F10775.33
(lp189
I4
aI6
aI50
aI56
aI61
aI59
aI62
aI51
aI55
aI47
aI47
aI54
aI53
aI58
aI54
aI50
aI53
aI43
aI64
aI53
aI55
aI35
aI26
aI35
aI49
aI43
aI35
aI44
aI69
aI57
aI52
aI42
aI70
aI57
aI64
aI36
aI53
aI55
aI42
aI49
aI54
aI46
aI47
aI46
aI7
aI12
aI15
aI14
aI12
aI11
aI17
aI15
aI12
aI14
aI12
aI11
aI11
aI13
aI8
aI8
aI16
aI10
aI10
aI7
aI10
aI8
aI8
aI9
aI6
aI4
aI6
aI4
aI52
aI45
aI58
aI75
aI50
aI62
aI46
aI60
aI55
aI51
aI59
aI46
aI50
aI43
aI52
aI44
aI47
aI45
aI56
aI62
aI61
aI67
aI51
aI67
aI53
aI50
aI43
aI47
aI45
aI62
aI61
aI46
aI76
aI61
aI48
aI48
aI65
aI45
aI61
aI46
aI49
aI64
aI57
aI53
aI35
aI38
aI37
aI31
aI55
aI53
aI61
aI61
aI37
aI33
aI49
aI59
aI43
aI49
aI47
aI56
aI36
aI67
aI59
aI53
aI56
aI67
aI67
aI64
aI47
aI62
aI80
aI46
aI44
aI48
aI39
aI52
aI38
aI44
aI43
aI53
aI35
aI55
aI59
aI45
aI49
aI44
aI50
aI49
aI39
aI55
aI54
aI34
aI37
aI39
aI55
aI42
aI59
aI41
aI58
aI47
aI49
aI51
aI53
aI67
aI54
aI68
aI41
aI67
aI53
aI48
aI35
aI50
aI47
aI49
aI50
aI59
aI52
aI44
aI54
aI40
aI49
aI45
aI39
aI55
aI65
aI59
aI43
aI48
aI36
aI46
aI43
aI62
aI52
aI29
aI60
aI59
aI50
aI42
aI48
aI51
aI46
aI38
aI55
aI21
aI52
aI39
aI47
aI3
aI3
aI3
aI3
aI3
aI3
aI2
aI2
aI3
aI4
aI3
aI2
aI3
aI3
aI3
aI3
aI2
aI2
aI4
aI3
aI2
aI00
tp190
a(F10773.87
(lp191
I4
aI5
aI52
aI57
aI59
aI62
aI56
aI54
aI49
aI45
aI47
aI61
aI52
aI58
aI61
aI50
aI62
aI39
aI66
aI54
aI55
aI35
aI29
aI41
aI46
aI44
aI35
aI42
aI70
aI60
aI48
aI42
aI69
aI61
aI70
aI36
aI50
aI60
aI37
aI44
aI55
aI48
aI50
aI42
aI7
aI12
aI15
aI15
aI14
aI10
aI17
aI15
aI14
aI13
aI12
aI10
aI11
aI14
aI8
aI8
aI15
aI9
aI11
aI7
aI9
aI8
aI8
aI8
aI7
aI4
aI7
aI5
aI50
aI46
aI54
aI75
aI55
aI59
aI42
aI55
aI55
aI43
aI62
aI51
aI47
aI48
aI51
aI42
aI41
aI45
aI54
aI62
aI65
aI70
aI54
aI67
aI56
aI50
aI45
aI40
aI46
aI65
aI61
aI44
aI80
aI60
aI50
aI48
aI65
aI46
aI61
aI49
aI51
aI64
aI60
aI52
aI31
aI39
aI38
aI35
aI61
aI53
aI68
aI67
aI37
aI33
aI50
aI66
aI42
aI50
aI48
aI56
aI32
aI69
aI59
aI50
aI61
aI64
aI71
aI69
aI45
aI64
aI84
aI46
aI43
aI47
aI40
aI56
aI37
aI42
aI33
aI53
aI31
aI57
aI61
aI50
aI48
aI45
aI56
aI48
aI36
aI59
aI52
aI33
aI32
aI33
aI54
aI38
aI55
aI44
aI63
aI49
aI52
aI52
aI50
aI69
aI48
aI68
aI43
aI66
aI51
aI44
aI34
aI47
aI53
aI50
aI50
aI57
aI52
aI44
aI57
aI47
aI48
aI51
aI38
aI56
aI66
aI59
aI45
aI52
aI35
aI41
aI47
aI62
aI53
aI28
aI51
aI65
aI52
aI40
aI47
aI49
aI49
aI31
aI52
aI18
aI49
aI38
aI48
aI2
aI3
aI4
aI4
aI3
aI3
aI3
aI3
aI3
aI3
aI3
aI2
aI3
aI2
aI4
aI3
aI2
aI2
aI4
aI2
aI3
aI00
tp192
a(F10342.94
(lp193
I4
aI5
aI53
aI56
aI57
aI64
aI56
aI53
aI48
aI45
aI47
aI64
aI54
aI60
aI62
aI51
aI63
aI38
aI68
aI52
aI53
aI35
aI29
aI42
aI46
aI41
aI33
aI41
aI72
aI62
aI48
aI43
aI71
aI63
aI70
aI35
aI49
aI62
aI36
aI41
aI56
aI46
aI50
aI42
aI8
aI13
aI14
aI16
aI14
aI10
aI17
aI14
aI16
aI13
aI12
aI10
aI10
aI14
aI6
aI7
aI15
aI9
aI11
aI7
aI8
aI9
aI8
aI9
aI7
aI4
aI8
aI5
aI53
aI48
aI55
aI76
aI56
aI59
aI40
aI54
aI53
aI43
aI62
aI49
aI46
aI52
aI51
aI41
aI41
aI47
aI52
aI64
aI68
aI70
aI53
aI68
aI55
aI50
aI44
aI38
aI47
aI66
aI61
aI42
aI80
aI58
aI52
aI47
aI66
aI46
aI60
aI50
aI48
aI65
aI60
aI52
aI29
aI38
aI36
aI36
aI62
aI54
aI68
aI68
aI38
aI30
aI51
aI65
aI43
aI49
aI49
aI58
aI31
aI69
aI63
aI49
aI61
aI64
aI72
aI66
aI45
aI67
aI86
aI47
aI44
aI46
aI40
aI58
aI35
aI43
aI31
aI55
aI29
aI59
aI60
aI51
aI44
aI45
aI59
aI47
aI35
aI61
aI51
aI30
aI28
aI33
aI56
aI39
aI54
aI46
aI61
aI49
aI53
aI53
aI50
aI69
aI45
aI70
aI43
aI68
aI52
aI40
aI34
aI46
aI53
aI52
aI48
aI56
aI49
aI43
aI58
aI48
aI50
aI50
aI39
aI54
aI66
aI62
aI45
aI51
aI35
aI40
aI49
aI61
aI51
aI29
aI50
aI68
aI52
aI39
aI48
aI48
aI49
aI29
aI52
aI18
aI47
aI39
aI48
aI2
aI3
aI4
aI4
aI3
aI3
aI3
aI3
aI3
aI3
aI3
aI2
aI3
aI2
aI4
aI3
aI1
aI2
aI4
aI2
aI3
aI00
tp194
a(F10337.28
(lp195
I4
aI5
aI51
aI57
aI60
aI62
aI57
aI54
aI50
aI46
aI47
aI60
aI52
aI59
aI59
aI49
aI60
aI39
aI66
aI54
aI55
aI35
aI29
aI40
aI48
aI44
aI35
aI43
aI70
aI59
aI48
aI42
aI69
aI60
aI68
aI35
aI51
aI58
aI39
aI45
aI54
aI48
aI48
aI42
aI7
aI12
aI15
aI15
aI14
aI10
aI17
aI15
aI14
aI13
aI12
aI10
aI11
aI14
aI8
aI8
aI15
aI9
aI11
aI7
aI10
aI8
aI8
aI8
aI7
aI4
aI7
aI5
aI50
aI46
aI54
aI75
aI54
aI59
aI42
aI56
aI54
aI45
aI61
aI51
aI47
aI47
aI51
aI43
aI43
aI45
aI54
aI62
aI65
aI69
aI53
aI67
aI55
aI50
aI44
aI42
aI46
aI64
aI61
aI45
aI80
aI60
aI50
aI47
aI65
aI47
aI61
aI48
aI51
aI64
aI60
aI52
aI31
aI39
aI38
aI34
aI60
aI52
aI67
aI65
aI37
aI33
aI50
aI63
aI42
aI50
aI49
aI57
aI33
aI68
aI60
aI50
aI59
aI65
aI70
aI67
aI45
aI64
aI83
aI46
aI43
aI47
aI40
aI55
aI37
aI43
aI36
aI53
aI31
aI56
aI60
aI49
aI49
aI45
aI54
aI48
aI36
aI59
aI52
aI33
aI33
aI35
aI53
aI38
aI55
aI43
aI62
aI48
aI50
aI53
aI51
aI68
aI50
aI68
aI42
aI66
aI52
aI44
aI34
aI47
aI52
aI50
aI50
aI58
aI52
aI44
aI57
aI45
aI48
aI49
aI38
aI56
aI67
aI59
aI43
aI51
aI35
aI42
aI46
aI61
aI53
aI28
aI53
aI63
aI51
aI41
aI47
aI50
aI48
aI33
aI53
aI19
aI49
aI38
aI48
aI2
aI3
aI4
aI4
aI3
aI3
aI3
aI3
aI3
aI3
aI3
aI2
aI3
aI2
aI4
aI3
aI2
aI2
aI4
aI2
aI3
aI00
tp196
a(F10164.47
(lp197
I4
aI6
aI49
aI56
aI61
aI59
aI62
aI50
aI55
aI48
aI47
aI53
aI52
aI58
aI53
aI51
aI52
aI44
aI64
aI54
aI56
aI34
aI25
aI35
aI49
aI44
aI36
aI44
aI68
aI57
aI53
aI41
aI69
aI57
aI63
aI37
aI54
aI55
aI44
aI50
aI53
aI45
aI46
aI46
aI7
aI11
aI16
aI14
aI12
aI11
aI16
aI16
aI12
aI14
aI12
aI12
aI11
aI13
aI9
aI9
aI16
aI10
aI10
aI7
aI11
aI8
aI8
aI9
aI6
aI4
aI6
aI4
aI52
aI45
aI58
aI74
aI50
aI63
aI46
aI61
aI55
aI53
aI59
aI46
aI50
aI43
aI53
aI45
aI48
aI44
aI57
aI62
aI61
aI67
aI50
aI68
aI53
aI49
aI42
aI47
aI45
aI62
aI60
aI46
aI75
aI61
aI47
aI48
aI64
aI44
aI61
aI45
aI48
aI64
aI56
aI54
aI35
aI38
aI38
aI31
aI55
aI54
aI59
aI61
aI37
aI34
aI49
aI58
aI43
aI49
aI47
aI55
aI36
aI66
aI58
aI54
aI56
aI67
aI66
aI63
aI47
aI62
aI80
aI47
aI43
aI48
aI38
aI51
aI39
aI43
aI44
aI52
aI35
aI54
aI58
aI44
aI49
aI44
aI49
aI49
aI39
aI55
aI55
aI35
aI38
aI40
aI54
aI43
aI59
aI41
aI58
aI46
aI49
aI51
aI54
aI67
aI56
aI67
aI41
aI67
aI54
aI48
aI36
aI50
aI47
aI49
aI50
aI60
aI53
aI44
aI54
aI38
aI49
aI44
aI40
aI54
aI65
aI59
aI42
aI48
aI37
aI47
aI42
aI62
aI51
aI29
aI62
aI58
aI50
aI43
aI49
aI52
aI46
aI40
aI55
aI22
aI52
aI38
aI46
aI3
aI3
aI3
aI3
aI3
aI3
aI2
aI2
aI3
aI4
aI3
aI2
aI3
aI3
aI3
aI3
aI3
aI2
aI4
aI3
aI2
aI00
tp198
a(F9677.37
(lp199
I4
aI5
aI50
aI56
aI61
aI60
aI61
aI50
aI55
aI48
aI47
aI54
aI52
aI59
aI55
aI50
aI54
aI43
aI64
aI54
aI55
aI35
aI26
aI36
aI49
aI42
aI35
aI44
aI69
aI59
aI51
aI42
aI69
aI57
aI63
aI36
aI53
aI55
aI42
aI48
aI53
aI45
aI46
aI46
aI8
aI11
aI15
aI14
aI13
aI11
aI17
aI15
aI12
aI13
aI12
aI11
aI11
aI13
aI9
aI8
aI15
aI9
aI11
aI7
aI11
aI8
aI8
aI9
aI7
aI4
aI6
aI5
aI53
aI45
aI58
aI74
aI51
aI62
aI45
aI60
aI54
aI51
aI59
aI46
aI49
aI45
aI52
aI45
aI47
aI45
aI56
aI63
aI63
aI67
aI50
aI68
aI53
aI50
aI42
aI46
aI45
aI63
aI60
aI45
aI76
aI61
aI48
aI47
aI65
aI45
aI61
aI47
aI48
aI65
aI57
aI53
aI33
aI38
aI37
aI31
aI56
aI54
aI62
aI61
aI38
aI33
aI49
aI59
aI43
aI49
aI48
aI56
aI36
aI66
aI60
aI53
aI57
aI67
aI67
aI63
aI48
aI63
aI80
aI47
aI44
aI48
aI38
aI52
aI38
aI44
aI41
aI53
aI34
aI56
aI58
aI46
aI48
aI44
aI50
aI50
aI38
aI56
aI54
aI34
aI35
aI39
aI56
aI42
aI58
aI42
aI58
aI45
aI49
aI51
aI53
aI66
aI54
aI69
aI41
aI67
aI53
aI46
aI35
aI49
aI47
aI49
aI50
aI60
aI52
aI44
aI54
aI40
aI50
aI45
aI39
aI54
aI65
aI60
aI42
aI48
aI36
aI45
aI43
aI62
aI52
aI29
aI60
aI60
aI50
aI43
aI49
aI51
aI45
aI37
aI55
aI22
aI50
aI39
aI48
aI2
aI3
aI4
aI4
aI3
aI3
aI3
aI3
aI3
aI3
aI3
aI2
aI3
aI2
aI4
aI3
aI2
aI2
aI4
aI2
aI3
aI00
tp200
a.