(lp0
(F12026.82
(lp1
I4
aI5
aI53
aI56
aI58
aI65
aI55
aI53
aI47
aI45
aI47
aI65
aI54
aI60
aI63
aI51
aI64
aI37
aI68
aI52
aI53
aI35
aI29
aI43
aI46
aI41
aI33
aI41
aI71
aI62
aI47
aI43
aI71
aI64
aI71
aI35
aI48
aI63
aI34
aI40
aI56
aI46
aI50
aI39
aI8
aI14
aI14
aI16
aI14
aI10
aI17
aI14
aI17
aI13
aI12
aI10
aI10
aI14
aI5
aI7
aI15
aI9
aI11
aI7
aI8
aI9
aI8
aI9
aI7
aI4
aI8
aI5
aI53
aI48
aI55
aI76
aI57
aI59
aI39
aI53
aI53
aI41
aI62
aI50
aI45
aI53
aI51
aI41
aI40
aI47
aI52
aI64
aI69
aI71
aI53
aI68
aI55
aI51
aI44
aI36
aI47
aI66
aI61
aI42
aI81
aI58
aI52
aI47
aI67
aI46
aI60
aI50
aI48
aI64
aI61
aI52
aI28
aI38
aI36
aI37
aI63
aI54
aI70
aI69
aI37
aI30
aI51
aI67
aI42
aI49
aI49
aI58
aI30
aI69
aI63
aI48
aI62
aI64
aI73
aI67
aI45
aI66
aI87
aI47
aI44
aI47
aI40
aI59
aI35
aI44
aI29
aI55
aI28
aI59
aI60
aI52
aI45
aI45
aI60
aI47
aI34
aI62
aI51
aI29
aI27
aI32
aI56
aI38
aI53
aI46
aI63
aI50
aI53
aI53
aI49
aI69
aI44
aI70
aI43
aI68
aI52
aI39
aI35
aI45
aI54
aI52
aI48
aI56
aI49
aI43
aI59
aI50
aI50
aI51
aI39
aI54
aI66
aI62
aI45
aI51
aI35
aI39
aI50
aI61
aI51
aI29
aI48
aI69
aI52
aI39
aI48
aI48
aI49
aI28
aI52
aI17
aI46
aI39
aI48
aI2
aI3
aI4
aI4
aI3
aI3
aI3
aI3
aI3
aI3
aI3
aI2
aI3
aI2
aI4
aI3
aI1
aI2
aI4
aI2
aI3
aI00
tp2
a(F12026.82
(lp3
I4
aI5
aI53
aI56
aI58
aI65
aI55
aI53
aI47
aI45
aI47
aI65
aI54
aI60
aI63
aI51
aI64
aI37
aI68
aI52
aI53
aI35
aI29
aI43
aI46
aI41
aI33
aI41
aI71
aI62
aI47
aI43
aI71
aI64
aI71
aI35
aI48
aI63
aI34
aI40
aI56
aI46
aI50
aI39
aI8
aI14
aI14
aI16
aI14
aI10
aI17
aI14
aI17
aI13
aI12
aI10
aI10
aI14
aI5
aI7
aI15
aI9
aI11
aI7
aI8
aI9
aI8
aI9
aI7
aI4
aI8
aI5
aI53
aI48
aI55
aI76
aI57
aI59
aI39
aI53
aI53
aI41
aI62
aI50
aI45
aI53
aI51
aI41
aI40
aI47
aI52
aI64
aI69
aI71
aI53
aI68
aI55
aI51
aI44
aI36
aI47
aI66
aI61
aI42
aI81
aI58
aI52
aI47
aI67
aI46
aI60
aI50
aI48
aI64
aI61
aI52
aI28
aI38
aI36
aI37
aI63
aI54
aI70
aI69
aI37
aI30
aI51
aI67
aI42
aI49
aI49
aI58
aI30
aI69
aI63
aI48
aI62
aI64
aI73
aI67
aI45
aI66
aI87
aI47
aI44
aI47
aI40
aI59
aI35
aI44
aI29
aI55
aI28
aI59
aI60
aI52
aI45
aI45
aI60
aI47
aI34
aI62
aI51
aI29
aI27
aI32
aI56
aI38
aI53
aI46
aI63
aI50
aI53
aI53
aI49
aI69
aI44
aI70
aI43
aI68
aI52
aI39
aI35
aI45
aI54
aI52
aI48
aI56
aI49
aI43
aI59
aI50
aI50
aI51
aI39
aI54
aI66
aI62
aI45
aI51
aI35
aI39
aI50
aI61
aI51
aI29
aI48
aI69
aI52
aI39
aI48
aI48
aI49
aI28
aI52
aI17
aI46
aI39
aI48
aI2
aI3
aI4
aI4
aI3
aI3
aI3
aI3
aI3
aI3
aI3
aI2
aI3
aI2
aI4
aI3
aI1
aI2
aI4
aI2
aI3
aI00
tp4
a(F12026.82
(lp5
I4
aI5
aI53
aI56
aI58
aI65
aI55
aI53
aI47
aI45
aI47
aI65
aI54
aI60
aI63
aI51
aI64
aI37
aI68
aI52
aI53
aI35
aI29
aI43
aI46
aI41
aI33
aI41
aI71
aI62
aI47
aI43
aI71
aI64
aI71
aI35
aI48
aI63
aI34
aI40
aI56
aI46
aI50
aI39
aI8
aI14
aI14
aI16
aI14
aI10
aI17
aI14
aI17
aI13
aI12
aI10
aI10
aI14
aI5
aI7
aI15
aI9
aI11
aI7
aI8
aI9
aI8
aI9
aI7
aI4
aI8
aI5
aI53
aI48
aI55
aI76
aI57
aI59
aI39
aI53
aI53
aI41
aI62
aI50
aI45
aI53
aI51
aI41
aI40
aI47
aI52
aI64
aI69
aI71
aI53
aI68
aI55
aI51
aI44
aI36
aI47
aI66
aI61
aI42
aI81
aI58
aI52
aI47
aI67
aI46
aI60
aI50
aI48
aI64
aI61
aI52
aI28
aI38
aI36
aI37
aI63
aI54
aI70
aI69
aI37
aI30
aI51
aI67
aI42
aI49
aI49
aI58
aI30
aI69
aI63
aI48
aI62
aI64
aI73
aI67
aI45
aI66
aI87
aI47
aI44
aI47
aI40
aI59
aI35
aI44
aI29
aI55
aI28
aI59
aI60
aI52
aI45
aI45
aI60
aI47
aI34
aI62
aI51
aI29
aI27
aI32
aI56
aI38
aI53
aI46
aI63
aI50
aI53
aI53
aI49
aI69
aI44
aI70
aI43
aI68
aI52
aI39
aI35
aI45
aI54
aI52
aI48
aI56
aI49
aI43
aI59
aI50
aI50
aI51
aI39
aI54
aI66
aI62
aI45
aI51
aI35
aI39
aI50
aI61
aI51
aI29
aI48
aI69
aI52
aI39
aI48
aI48
aI49
aI28
aI52
aI17
aI46
aI39
aI48
aI2
aI3
aI4
aI4
aI3
aI3
aI3
aI3
aI3
aI3
aI3
aI2
aI3
aI2
aI4
aI3
aI1
aI2
aI4
aI2
aI3
aI00
tp6
a(F12026.82
(lp7
I4
aI5
aI53
aI56
aI58
aI65
aI55
aI53
aI47
aI45
aI47
aI65
aI54
aI60
aI63
aI51
aI64
aI37
aI68
aI52
aI53
aI35
aI29
aI43
aI46
aI41
aI33
aI41
aI71
aI62
aI47
aI43
aI71
aI64
aI71
aI35
aI48
aI63
aI34
aI40
aI56
aI46
aI50
aI39
aI8
aI14
aI14
aI16
aI14
aI10
aI17
aI14
aI17
aI13
aI12
aI10
aI10
aI14
aI5
aI7
aI15
aI9
aI11
aI7
aI8
aI9
aI8
aI9
aI7
aI4
aI8
aI5
aI53
aI48
aI55
aI76
aI57
aI59
aI39
aI53
aI53
aI41
aI62
aI50
aI45
aI53
aI51
aI41
aI40
aI47
aI52
aI64
aI69
aI71
aI53
aI68
aI55
aI51
aI44
aI36
aI47
aI66
aI61
aI42
aI81
aI58
aI52
aI47
aI67
aI46
aI60
aI50
aI48
aI64
aI61
aI52
aI28
aI38
aI36
aI37
aI63
aI54
aI70
aI69
aI37
aI30
aI51
aI67
aI42
aI49
aI49
aI58
aI30
aI69
aI63
aI48
aI62
aI64
aI73
aI67
aI45
aI66
aI87
aI47
aI44
aI47
aI40
aI59
aI35
aI44
aI29
aI55
aI28
aI59
aI60
aI52
aI45
aI45
aI60
aI47
aI34
aI62
aI51
aI29
aI27
aI32
aI56
aI38
aI53
aI46
aI63
aI50
aI53
aI53
aI49
aI69
aI44
aI70
aI43
aI68
aI52
aI39
aI35
aI45
aI54
aI52
aI48
aI56
aI49
aI43
aI59
aI50
aI50
aI51
aI39
aI54
aI66
aI62
aI45
aI51
aI35
aI39
aI50
aI61
aI51
aI29
aI48
aI69
aI52
aI39
aI48
aI48
aI49
aI28
aI52
aI17
aI46
aI39
aI48
aI2
aI3
aI4
aI4
aI3
aI3
aI3
aI3
aI3
aI3
aI3
aI2
aI3
aI2
aI4
aI3
aI1
aI2
aI4
aI2
aI3
aI00
tp8
a(F12026.82
(lp9
I4
aI5
aI53
aI56
aI58
aI65
aI55
aI53
aI47
aI45
aI47
aI65
aI54
aI60
aI63
aI51
aI64
aI37
aI68
aI52
aI53
aI35
aI29
aI43
aI46
aI41
aI33
aI41
aI71
aI62
aI47
aI43
aI71
aI64
aI71
aI35
aI48
aI63
aI34
aI40
aI56
aI46
aI50
aI39
aI8
aI14
aI14
aI16
aI14
aI10
aI17
aI14
aI17
aI13
aI12
aI10
aI10
aI14
aI5
aI7
aI15
aI9
aI11
aI7
aI8
aI9
aI8
aI9
aI7
aI4
aI8
aI5
aI53
aI48
aI55
aI76
aI57
aI59
aI39
aI53
aI53
aI41
aI62
aI50
aI45
aI53
aI51
aI41
aI40
aI47
aI52
aI64
aI69
aI71
aI53
aI68
aI55
aI51
aI44
aI36
aI47
aI66
aI61
aI42
aI81
aI58
aI52
aI47
aI67
aI46
aI60
aI50
aI48
aI64
aI61
aI52
aI28
aI38
aI36
aI37
aI63
aI54
aI70
aI69
aI37
aI30
aI51
aI67
aI42
aI49
aI49
aI58
aI30
aI69
aI63
aI48
aI62
aI64
aI73
aI67
aI45
aI66
aI87
aI47
aI44
aI47
aI40
aI59
aI35
aI44
aI29
aI55
aI28
aI59
aI60
aI52
aI45
aI45
aI60
aI47
aI34
aI62
aI51
aI29
aI27
aI32
aI56
aI38
aI53
aI46
aI63
aI50
aI53
aI53
aI49
aI69
aI44
aI70
aI43
aI68
aI52
aI39
aI35
aI45
aI54
aI52
aI48
aI56
aI49
aI43
aI59
aI50
aI50
aI51
aI39
aI54
aI66
aI62
aI45
aI51
aI35
aI39
aI50
aI61
aI51
aI29
aI48
aI69
aI52
aI39
aI48
aI48
aI49
aI28
aI52
aI17
aI46
aI39
aI48
aI2
aI3
aI4
aI4
aI3
aI3
aI3
aI3
aI3
aI3
aI3
aI2
aI3
aI2
aI4
aI3
aI1
aI2
aI4
aI2
aI3
aI00
tp10
a(F12026.82
(lp11
I4
aI5
aI53
aI56
aI58
aI65
aI55
aI53
aI47
aI45
aI47
aI65
aI54
aI60
aI63
aI51
aI64
aI37
aI68
aI52
aI53
aI35
aI29
aI43
aI46
aI41
aI33
aI41
aI71
aI62
aI47
aI43
aI71
aI64
aI71
aI35
aI48
aI63
aI34
aI40
aI56
aI46
aI50
aI39
aI8
aI14
aI14
aI16
aI14
aI10
aI17
aI14
aI17
aI13
aI12
aI10
aI10
aI14
aI5
aI7
aI15
aI9
aI11
aI7
aI8
aI9
aI8
aI9
aI7
aI4
aI8
aI5
aI53
aI48
aI55
aI76
aI57
aI59
aI39
aI53
aI53
aI41
aI62
aI50
aI45
aI53
aI51
aI41
aI40
aI47
aI52
aI64
aI69
aI71
aI53
aI68
aI55
aI51
aI44
aI36
aI47
aI66
aI61
aI42
aI81
aI58
aI52
aI47
aI67
aI46
aI60
aI50
aI48
aI64
aI61
aI52
aI28
aI38
aI36
aI37
aI63
aI54
aI70
aI69
aI37
aI30
aI51
aI67
aI42
aI49
aI49
aI58
aI30
aI69
aI63
aI48
aI62
aI64
aI73
aI67
aI45
aI66
aI87
aI47
aI44
aI47
aI40
aI59
aI35
aI44
aI29
aI55
aI28
aI59
aI60
aI52
aI45
aI45
aI60
aI47
aI34
aI62
aI51
aI29
aI27
aI32
aI56
aI38
aI53
aI46
aI63
aI50
aI53
aI53
aI49
aI69
aI44
aI70
aI43
aI68
aI52
aI39
aI35
aI45
aI54
aI52
aI48
aI56
aI49
aI43
aI59
aI50
aI50
aI51
aI39
aI54
aI66
aI62
aI45
aI51
aI35
aI39
aI50
aI61
aI51
aI29
aI48
aI69
aI52
aI39
aI48
aI48
aI49
aI28
aI52
aI17
aI46
aI39
aI48
aI2
aI3
aI4
aI4
aI3
aI3
aI3
aI3
aI3
aI3
aI3
aI2
aI3
aI2
aI4
aI3
aI1
aI2
aI4
aI2
aI3
aI00
tp12
a(F12026.82
(lp13
I4
aI5
aI53
aI56
aI58
aI65
aI55
aI53
aI47
aI45
aI47
aI65
aI54
aI60
aI63
aI51
aI64
aI37
aI68
aI52
aI53
aI35
aI29
aI43
aI46
aI41
aI33
aI41
aI71
aI62
aI47
aI43
aI71
aI64
aI71
aI35
aI48
aI63
aI34
aI40
aI56
aI46
aI50
aI39
aI8
aI14
aI14
aI16
aI14
aI10
aI17
aI14
aI17
aI13
aI12
aI10
aI10
aI14
aI5
aI7
aI15
aI9
aI11
aI7
aI8
aI9
aI8
aI9
aI7
aI4
aI8
aI5
aI53
aI48
aI55
aI76
aI57
aI59
aI39
aI53
aI53
aI41
aI62
aI50
aI45
aI53
aI51
aI41
aI40
aI47
aI52
aI64
aI69
aI71
aI53
aI68
aI55
aI51
aI44
aI36
aI47
aI66
aI61
aI42
aI81
aI58
aI52
aI47
aI67
aI46
aI60
aI50
aI48
aI64
aI61
aI52
aI28
aI38
aI36
aI37
aI63
aI54
aI70
aI69
aI37
aI30
aI51
aI67
aI42
aI49
aI49
aI58
aI30
aI69
aI63
aI48
aI62
aI64
aI73
aI67
aI45
aI66
aI87
aI47
aI44
aI47
aI40
aI59
aI35
aI44
aI29
aI55
aI28
aI59
aI60
aI52
aI45
aI45
aI60
aI47
aI34
aI62
aI51
aI29
aI27
aI32
aI56
aI38
aI53
aI46
aI63
aI50
aI53
aI53
aI49
aI69
aI44
aI70
aI43
aI68
aI52
aI39
aI35
aI45
aI54
aI52
aI48
aI56
aI49
aI43
aI59
aI50
aI50
aI51
aI39
aI54
aI66
aI62
aI45
aI51
aI35
aI39
aI50
aI61
aI51
aI29
aI48
aI69
aI52
aI39
aI48
aI48
aI49
aI28
aI52
aI17
aI46
aI39
aI48
aI2
aI3
aI4
aI4
aI3
aI3
aI3
aI3
aI3
aI3
aI3
aI2
aI3
aI2
aI4
aI3
aI1
aI2
aI4
aI2
aI3
aI00
tp14
a(F12026.82
(lp15
I4
aI5
aI53
aI56
aI58
aI65
aI55
aI53
aI47
aI45
aI47
aI65
aI54
aI60
aI63
aI51
aI64
aI37
aI68
aI52
aI53
aI35
aI29
aI43
aI46
aI41
aI33
aI41
aI71
aI62
aI47
aI43
aI71
aI64
aI71
aI35
aI48
aI63
aI34
aI40
aI56
aI46
aI50
aI39
aI8
aI14
aI14
aI16
aI14
aI10
aI17
aI14
aI17
aI13
aI12
aI10
aI10
aI14
aI5
aI7
aI15
aI9
aI11
aI7
aI8
aI9
aI8
aI9
aI7
aI4
aI8
aI5
aI53
aI48
aI55
aI76
aI57
aI59
aI39
aI53
aI53
aI41
aI62
aI50
aI45
aI53
aI51
aI41
aI40
aI47
aI52
aI64
aI69
aI71
aI53
aI68
aI55
aI51
aI44
aI36
aI47
aI66
aI61
aI42
aI81
aI58
aI52
aI47
aI67
aI46
aI60
aI50
aI48
aI64
aI61
aI52
aI28
aI38
aI36
aI37
aI63
aI54
aI70
aI69
aI37
aI30
aI51
aI67
aI42
aI49
aI49
aI58
aI30
aI69
aI63
aI48
aI62
aI64
aI73
aI67
aI45
aI66
aI87
aI47
aI44
aI47
aI40
aI59
aI35
aI44
aI29
aI55
aI28
aI59
aI60
aI52
aI45
aI45
aI60
aI47
aI34
aI62
aI51
aI29
aI27
aI32
aI56
aI38
aI53
aI46
aI63
aI50
aI53
aI53
aI49
aI69
aI44
aI70
aI43
aI68
aI52
aI39
aI35
aI45
aI54
aI52
aI48
aI56
aI49
aI43
aI59
aI50
aI50
aI51
aI39
aI54
aI66
aI62
aI45
aI51
aI35
aI39
aI50
aI61
aI51
aI29
aI48
aI69
aI52
aI39
aI48
aI48
aI49
aI28
aI52
aI17
aI46
aI39
aI48
aI2
aI3
aI4
aI4
aI3
aI3
aI3
aI3
aI3
aI3
aI3
aI2
aI3
aI2
aI4
aI3
aI1
aI2
aI4
aI2
aI3
aI00
tp16
a(F12026.82
(lp17
I4
aI5
aI53
aI56
aI58
aI65
aI55
aI53
aI47
aI45
aI47
aI65
aI54
aI60
aI63
aI51
aI64
aI37
aI68
aI52
aI53
aI35
aI29
aI43
aI46
aI41
aI33
aI41
aI71
aI62
aI47
aI43
aI71
aI64
aI71
aI35
aI48
aI63
aI34
aI40
aI56
aI46
aI50
aI39
aI8
aI14
aI14
aI16
aI14
aI10
aI17
aI14
aI17
aI13
aI12
aI10
aI10
aI14
aI5
aI7
aI15
aI9
aI11
aI7
aI8
aI9
aI8
aI9
aI7
aI4
aI8
aI5
aI53
aI48
aI55
aI76
aI57
aI59
aI39
aI53
aI53
aI41
aI62
aI50
aI45
aI53
aI51
aI41
aI40
aI47
aI52
aI64
aI69
aI71
aI53
aI68
aI55
aI51
aI44
aI36
aI47
aI66
aI61
aI42
aI81
aI58
aI52
aI47
aI67
aI46
aI60
aI50
aI48
aI64
aI61
aI52
aI28
aI38
aI36
aI37
aI63
aI54
aI70
aI69
aI37
aI30
aI51
aI67
aI42
aI49
aI49
aI58
aI30
aI69
aI63
aI48
aI62
aI64
aI73
aI67
aI45
aI66
aI87
aI47
aI44
aI47
aI40
aI59
aI35
aI44
aI29
aI55
aI28
aI59
aI60
aI52
aI45
aI45
aI60
aI47
aI34
aI62
aI51
aI29
aI27
aI32
aI56
aI38
aI53
aI46
aI63
aI50
aI53
aI53
aI49
aI69
aI44
aI70
aI43
aI68
aI52
aI39
aI35
aI45
aI54
aI52
aI48
aI56
aI49
aI43
aI59
aI50
aI50
aI51
aI39
aI54
aI66
aI62
aI45
aI51
aI35
aI39
aI50
aI61
aI51
aI29
aI48
aI69
aI52
aI39
aI48
aI48
aI49
aI28
aI52
aI17
aI46
aI39
aI48
aI2
aI3
aI4
aI4
aI3
aI3
aI3
aI3
aI3
aI3
aI3
aI2
aI3
aI2
aI4
aI3
aI1
aI2
aI4
aI2
aI3
aI00
tp18
a(F12026.82
(lp19
I4
aI5
aI53
aI56
aI58
aI65
aI55
aI53
aI47
aI45
aI47
aI65
aI54
aI60
aI63
aI51
aI64
aI37
aI68
aI52
aI53
aI35
aI29
aI43
aI46
aI41
aI33
aI41
aI71
aI62
aI47
aI43
aI71
aI64
aI71
aI35
aI48
aI63
aI34
aI40
aI56
aI46
aI50
aI39
aI8
aI14
aI14
aI16
aI14
aI10
aI17
aI14
aI17
aI13
aI12
aI10
aI10
aI14
aI5
aI7
aI15
aI9
aI11
aI7
aI8
aI9
aI8
aI9
aI7
aI4
aI8
aI5
aI53
aI48
aI55
aI76
aI57
aI59
aI39
aI53
aI53
aI41
aI62
aI50
aI45
aI53
aI51
aI41
aI40
aI47
aI52
aI64
aI69
aI71
aI53
aI68
aI55
aI51
aI44
aI36
aI47
aI66
aI61
aI42
aI81
aI58
aI52
aI47
aI67
aI46
aI60
aI50
aI48
aI64
aI61
aI52
aI28
aI38
aI36
aI37
aI63
aI54
aI70
aI69
aI37
aI30
aI51
aI67
aI42
aI49
aI49
aI58
aI30
aI69
aI63
aI48
aI62
aI64
aI73
aI67
aI45
aI66
aI87
aI47
aI44
aI47
aI40
aI59
aI35
aI44
aI29
aI55
aI28
aI59
aI60
aI52
aI45
aI45
aI60
aI47
aI34
aI62
aI51
aI29
aI27
aI32
aI56
aI38
aI53
aI46
aI63
aI50
aI53
aI53
aI49
aI69
aI44
aI70
aI43
aI68
aI52
aI39
aI35
aI45
aI54
aI52
aI48
aI56
aI49
aI43
aI59
aI50
aI50
aI51
aI39
aI54
aI66
aI62
aI45
aI51
aI35
aI39
aI50
aI61
aI51
aI29
aI48
aI69
aI52
aI39
aI48
aI48
aI49
aI28
aI52
aI17
aI46
aI39
aI48
aI2
aI3
aI4
aI4
aI3
aI3
aI3
aI3
aI3
aI3
aI3
aI2
aI3
aI2
aI4
aI3
aI1
aI2
aI4
aI2
aI3
aI00
tp20
a(F12026.82
(lp21
I4
aI5
aI53
aI56
aI58
aI65
aI55
aI53
aI47
aI45
aI47
aI65
aI54
aI60
aI63
aI51
aI64
aI37
aI68
aI52
aI53
aI35
aI29
aI43
aI46
aI41
aI33
aI41
aI71
aI62
aI47
aI43
aI71
aI64
aI71
aI35
aI48
aI63
aI34
aI40
aI56
aI46
aI50
aI39
aI8
aI14
aI14
aI16
aI14
aI10
aI17
aI14
aI17
aI13
aI12
aI10
aI10
aI14
aI5
aI7
aI15
aI9
aI11
aI7
aI8
aI9
aI8
aI9
aI7
aI4
aI8
aI5
aI53
aI48
aI55
aI76
aI57
aI59
aI39
aI53
aI53
aI41
aI62
aI50
aI45
aI53
aI51
aI41
aI40
aI47
aI52
aI64
aI69
aI71
aI53
aI68
aI55
aI51
aI44
aI36
aI47
aI66
aI61
aI42
aI81
aI58
aI52
aI47
aI67
aI46
aI60
aI50
aI48
aI64
aI61
aI52
aI28
aI38
aI36
aI37
aI63
aI54
aI70
aI69
aI37
aI30
aI51
aI67
aI42
aI49
aI49
aI58
aI30
aI69
aI63
aI48
aI62
aI64
aI73
aI67
aI45
aI66
aI87
aI47
aI44
aI47
aI40
aI59
aI35
aI44
aI29
aI55
aI28
aI59
aI60
aI52
aI45
aI45
aI60
aI47
aI34
aI62
aI51
aI29
aI27
aI32
aI56
aI38
aI53
aI46
aI63
aI50
aI53
aI53
aI49
aI69
aI44
aI70
aI43
aI68
aI52
aI39
aI35
aI45
aI54
aI52
aI48
aI56
aI49
aI43
aI59
aI50
aI50
aI51
aI39
aI54
aI66
aI62
aI45
aI51
aI35
aI39
aI50
aI61
aI51
aI29
aI48
aI69
aI52
aI39
aI48
aI48
aI49
aI28
aI52
aI17
aI46
aI39
aI48
aI2
aI3
aI4
aI4
aI3
aI3
aI3
aI3
aI3
aI3
aI3
aI2
aI3
aI2
aI4
aI3
aI1
aI2
aI4
aI2
aI3
aI00
tp22
a(F12026.82
(lp23
I4
aI5
aI53
aI56
aI58
aI65
aI55
aI53
aI47
aI45
aI47
aI65
aI54
aI60
aI63
aI51
aI64
aI37
aI68
aI52
aI53
aI35
aI29
aI43
aI46
aI41
aI33
aI41
aI71
aI62
aI47
aI43
aI71
aI64
aI71
aI35
aI48
aI63
aI34
aI40
aI56
aI46
aI50
aI39
aI8
aI14
aI14
aI16
aI14
aI10
aI17
aI14
aI17
aI13
aI12
aI10
aI10
aI14
aI5
aI7
aI15
aI9
aI11
aI7
aI8
aI9
aI8
aI9
aI7
aI4
aI8
aI5
aI53
aI48
aI55
aI76
aI57
aI59
aI39
aI53
aI53
aI41
aI62
aI50
aI45
aI53
aI51
aI41
aI40
aI47
aI52
aI64
aI69
aI71
aI53
aI68
aI55
aI51
aI44
aI36
aI47
aI66
aI61
aI42
aI81
aI58
aI52
aI47
aI67
aI46
aI60
aI50
aI48
aI64
aI61
aI52
aI28
aI38
aI36
aI37
aI63
aI54
aI70
aI69
aI37
aI30
aI51
aI67
aI42
aI49
aI49
aI58
aI30
aI69
aI63
aI48
aI62
aI64
aI73
aI67
aI45
aI66
aI87
aI47
aI44
aI47
aI40
aI59
aI35
aI44
aI29
aI55
aI28
aI59
aI60
aI52
aI45
aI45
aI60
aI47
aI34
aI62
aI51
aI29
aI27
aI32
aI56
aI38
aI53
aI46
aI63
aI50
aI53
aI53
aI49
aI69
aI44
aI70
aI43
aI68
aI52
aI39
aI35
aI45
aI54
aI52
aI48
aI56
aI49
aI43
aI59
aI50
aI50
aI51
aI39
aI54
aI66
aI62
aI45
aI51
aI35
aI39
aI50
aI61
aI51
aI29
aI48
aI69
aI52
aI39
aI48
aI48
aI49
aI28
aI52
aI17
aI46
aI39
aI48
aI2
aI3
aI4
aI4
aI3
aI3
aI3
aI3
aI3
aI3
aI3
aI2
aI3
aI2
aI4
aI3
aI1
aI2
aI4
aI2
aI3
aI00
tp24
a(F12026.82
(lp25
I4
aI5
aI53
aI56
aI58
aI65
aI55
aI53
aI47
aI45
aI47
aI65
aI54
aI60
aI63
aI51
aI64
aI37
aI68
aI52
aI53
aI35
aI29
aI43
aI46
aI41
aI33
aI41
aI71
aI62
aI47
aI43
aI71
aI64
aI71
aI35
aI48
aI63
aI34
aI40
aI56
aI46
aI50
aI39
aI8
aI14
aI14
aI16
aI14
aI10
aI17
aI14
aI17
aI13
aI12
aI10
aI10
aI14
aI5
aI7
aI15
aI9
aI11
aI7
aI8
aI9
aI8
aI9
aI7
aI4
aI8
aI5
aI53
aI48
aI55
aI76
aI57
aI59
aI39
aI53
aI53
aI41
aI62
aI50
aI45
aI53
aI51
aI41
aI40
aI47
aI52
aI64
aI69
aI71
aI53
aI68
aI55
aI51
aI44
aI36
aI47
aI66
aI61
aI42
aI81
aI58
aI52
aI47
aI67
aI46
aI60
aI50
aI48
aI64
aI61
aI52
aI28
aI38
aI36
aI37
aI63
aI54
aI70
aI69
aI37
aI30
aI51
aI67
aI42
aI49
aI49
aI58
aI30
aI69
aI63
aI48
aI62
aI64
aI73
aI67
aI45
aI66
aI87
aI47
aI44
aI47
aI40
aI59
aI35
aI44
aI29
aI55
aI28
aI59
aI60
aI52
aI45
aI45
aI60
aI47
aI34
aI62
aI51
aI29
aI27
aI32
aI56
aI38
aI53
aI46
aI63
aI50
aI53
aI53
aI49
aI69
aI44
aI70
aI43
aI68
aI52
aI39
aI35
aI45
aI54
aI52
aI48
aI56
aI49
aI43
aI59
aI50
aI50
aI51
aI39
aI54
aI66
aI62
aI45
aI51
aI35
aI39
aI50
aI61
aI51
aI29
aI48
aI69
aI52
aI39
aI48
aI48
aI49
aI28
aI52
aI17
aI46
aI39
aI48
aI2
aI3
aI4
aI4
aI3
aI3
aI3
aI3
aI3
aI3
aI3
aI2
aI3
aI2
aI4
aI3
aI1
aI2
aI4
aI2
aI3
aI00
tp26
a(F12026.82
(lp27
I4
aI5
aI53
aI56
aI58
aI65
aI55
aI53
aI47
aI45
aI47
aI65
aI54
aI60
aI63
aI51
aI64
aI37
aI68
aI52
aI53
aI35
aI29
aI43
aI46
aI41
aI33
aI41
aI71
aI62
aI47
aI43
aI71
aI64
aI71
aI35
aI48
aI63
aI34
aI40
aI56
aI46
aI50
aI39
aI8
aI14
aI14
aI16
aI14
aI10
aI17
aI14
aI17
aI13
aI12
aI10
aI10
aI14
aI5
aI7
aI15
aI9
aI11
aI7
aI8
aI9
aI8
aI9
aI7
aI4
aI8
aI5
aI53
aI48
aI55
aI76
aI57
aI59
aI39
aI53
aI53
aI41
aI62
aI50
aI45
aI53
aI51
aI41
aI40
aI47
aI52
aI64
aI69
aI71
aI53
aI68
aI55
aI51
aI44
aI36
aI47
aI66
aI61
aI42
aI81
aI58
aI52
aI47
aI67
aI46
aI60
aI50
aI48
aI64
aI61
aI52
aI28
aI38
aI36
aI37
aI63
aI54
aI70
aI69
aI37
aI30
aI51
aI67
aI42
aI49
aI49
aI58
aI30
aI69
aI63
aI48
aI62
aI64
aI73
aI67
aI45
aI66
aI87
aI47
aI44
aI47
aI40
aI59
aI35
aI44
aI29
aI55
aI28
aI59
aI60
aI52
aI45
aI45
aI60
aI47
aI34
aI62
aI51
aI29
aI27
aI32
aI56
aI38
aI53
aI46
aI63
aI50
aI53
aI53
aI49
aI69
aI44
aI70
aI43
aI68
aI52
aI39
aI35
aI45
aI54
aI52
aI48
aI56
aI49
aI43
aI59
aI50
aI50
aI51
aI39
aI54
aI66
aI62
aI45
aI51
aI35
aI39
aI50
aI61
aI51
aI29
aI48
aI69
aI52
aI39
aI48
aI48
aI49
aI28
aI52
aI17
aI46
aI39
aI48
aI2
aI3
aI4
aI4
aI3
aI3
aI3
aI3
aI3
aI3
aI3
aI2
aI3
aI2
aI4
aI3
aI1
aI2
aI4
aI2
aI3
aI00
tp28
a(F12026.82
(lp29
I4
aI5
aI53
aI56
aI58
aI65
aI55
aI53
aI47
aI45
aI47
aI65
aI54
aI60
aI63
aI51
aI64
aI37
aI68
aI52
aI53
aI35
aI29
aI43
aI46
aI41
aI33
aI41
aI71
aI62
aI47
aI43
aI71
aI64
aI71
aI35
aI48
aI63
aI34
aI40
aI56
aI46
aI50
aI39
aI8
aI14
aI14
aI16
aI14
aI10
aI17
aI14
aI17
aI13
aI12
aI10
aI10
aI14
aI5
aI7
aI15
aI9
aI11
aI7
aI8
aI9
aI8
aI9
aI7
aI4
aI8
aI5
aI53
aI48
aI55
aI76
aI57
aI59
aI39
aI53
aI53
aI41
aI62
aI50
aI45
aI53
aI51
aI41
aI40
aI47
aI52
aI64
aI69
aI71
aI53
aI68
aI55
aI51
aI44
aI36
aI47
aI66
aI61
aI42
aI81
aI58
aI52
aI47
aI67
aI46
aI60
aI50
aI48
aI64
aI61
aI52
aI28
aI38
aI36
aI37
aI63
aI54
aI70
aI69
aI37
aI30
aI51
aI67
aI42
aI49
aI49
aI58
aI30
aI69
aI63
aI48
aI62
aI64
aI73
aI67
aI45
aI66
aI87
aI47
aI44
aI47
aI40
aI59
aI35
aI44
aI29
aI55
aI28
aI59
aI60
aI52
aI44
aI45
aI60
aI47
aI34
aI62
aI51
aI29
aI27
aI32
aI56
aI38
aI53
aI46
aI63
aI50
aI53
aI53
aI49
aI69
aI44
aI70
aI43
aI68
aI52
aI39
aI35
aI45
aI54
aI52
aI48
aI56
aI49
aI43
aI59
aI50
aI50
aI51
aI39
aI54
aI66
aI62
aI45
aI51
aI35
aI39
aI50
aI61
aI51
aI29
aI48
aI69
aI52
aI39
aI48
aI48
aI49
aI28
aI52
aI17
aI46
aI39
aI48
aI2
aI3
aI4
aI4
aI3
aI3
aI3
aI3
aI3
aI3
aI3
aI2
aI3
aI2
aI4
aI3
aI1
aI2
aI4
aI2
aI3
aI00
tp30
a(F12026.82
(lp31
I4
aI5
aI53
aI56
aI58
aI65
aI55
aI53
aI47
aI45
aI47
aI65
aI54
aI60
aI63
aI51
aI64
aI37
aI68
aI52
aI53
aI35
aI29
aI43
aI46
aI41
aI33
aI41
aI71
aI62
aI47
aI43
aI71
aI64
aI71
aI35
aI48
aI63
aI34
aI40
aI56
aI46
aI50
aI39
aI8
aI14
aI14
aI16
aI14
aI10
aI17
aI14
aI17
aI13
aI12
aI10
aI10
aI14
aI5
aI7
aI15
aI9
aI11
aI7
aI8
aI9
aI8
aI9
aI7
aI4
aI8
aI5
aI53
aI48
aI55
aI76
aI57
aI59
aI39
aI53
aI53
aI41
aI62
aI50
aI45
aI53
aI51
aI41
aI40
aI47
aI52
aI64
aI69
aI71
aI53
aI68
aI55
aI51
aI44
aI36
aI47
aI66
aI61
aI42
aI81
aI58
aI52
aI47
aI67
aI46
aI60
aI50
aI48
aI64
aI61
aI52
aI28
aI38
aI36
aI37
aI63
aI54
aI70
aI69
aI37
aI30
aI51
aI67
aI42
aI49
aI49
aI58
aI30
aI69
aI63
aI48
aI62
aI64
aI73
aI67
aI45
aI66
aI87
aI47
aI44
aI47
aI40
aI59
aI35
aI44
aI29
aI55
aI28
aI59
aI60
aI52
aI44
aI45
aI60
aI47
aI34
aI62
aI51
aI29
aI27
aI32
aI56
aI38
aI53
aI46
aI63
aI50
aI53
aI53
aI49
aI69
aI44
aI70
aI43
aI68
aI52
aI39
aI35
aI45
aI54
aI52
aI48
aI56
aI49
aI43
aI59
aI50
aI50
aI51
aI39
aI54
aI66
aI62
aI45
aI51
aI35
aI39
aI50
aI61
aI51
aI29
aI48
aI69
aI52
aI39
aI48
aI48
aI49
aI28
aI52
aI17
aI46
aI39
aI48
aI2
aI3
aI4
aI4
aI3
aI3
aI3
aI3
aI3
aI3
aI3
aI2
aI3
aI2
aI4
aI3
aI1
aI2
aI4
aI2
aI3
aI00
tp32
a(F12026.82
(lp33
I4
aI5
aI53
aI56
aI58
aI65
aI55
aI53
aI47
aI45
aI47
aI65
aI54
aI60
aI63
aI51
aI64
aI37
aI68
aI52
aI53
aI35
aI29
aI43
aI46
aI41
aI33
aI41
aI71
aI62
aI47
aI43
aI71
aI64
aI71
aI35
aI48
aI63
aI34
aI40
aI56
aI46
aI50
aI39
aI8
aI14
aI14
aI16
aI14
aI10
aI17
aI14
aI17
aI13
aI12
aI10
aI10
aI14
aI5
aI7
aI15
aI9
aI11
aI7
aI8
aI9
aI8
aI9
aI7
aI4
aI8
aI5
aI53
aI48
aI55
aI76
aI57
aI59
aI39
aI53
aI53
aI41
aI62
aI50
aI45
aI53
aI51
aI41
aI40
aI47
aI52
aI64
aI69
aI71
aI53
aI68
aI55
aI51
aI44
aI36
aI47
aI66
aI61
aI42
aI81
aI58
aI52
aI47
aI67
aI46
aI60
aI50
aI48
aI64
aI61
aI52
aI28
aI38
aI36
aI37
aI63
aI54
aI70
aI69
aI37
aI30
aI51
aI67
aI42
aI49
aI49
aI58
aI30
aI69
aI63
aI48
aI62
aI64
aI73
aI67
aI45
aI66
aI87
aI47
aI44
aI47
aI40
aI59
aI35
aI44
aI29
aI55
aI28
aI59
aI60
aI52
aI44
aI45
aI60
aI47
aI34
aI62
aI51
aI29
aI27
aI32
aI56
aI38
aI53
aI46
aI63
aI50
aI53
aI53
aI49
aI69
aI44
aI70
aI43
aI68
aI52
aI39
aI35
aI45
aI54
aI52
aI48
aI56
aI49
aI43
aI59
aI50
aI50
aI51
aI39
aI54
aI66
aI62
aI45
aI51
aI35
aI39
aI50
aI61
aI51
aI29
aI48
aI69
aI52
aI39
aI48
aI48
aI49
aI28
aI52
aI17
aI46
aI39
aI48
aI2
aI3
aI4
aI4
aI3
aI3
aI3
aI3
aI3
aI3
aI3
aI2
aI3
aI2
aI4
aI3
aI1
aI2
aI4
aI2
aI3
aI00
tp34
a(F12026.82
(lp35
I4
aI5
aI53
aI56
aI58
aI65
aI55
aI53
aI47
aI45
aI47
aI65
aI54
aI60
aI63
aI51
aI64
aI37
aI68
aI52
aI53
aI35
aI29
aI43
aI46
aI41
aI33
aI41
aI71
aI62
aI47
aI43
aI71
aI64
aI71
aI35
aI48
aI63
aI34
aI40
aI56
aI46
aI50
aI39
aI8
aI14
aI14
aI16
aI14
aI10
aI17
aI14
aI17
aI13
aI12
aI10
aI10
aI14
aI5
aI7
aI15
aI9
aI11
aI7
aI8
aI9
aI8
aI9
aI7
aI4
aI8
aI5
aI53
aI48
aI55
aI76
aI57
aI59
aI39
aI53
aI53
aI41
aI62
aI50
aI45
aI53
aI51
aI41
aI40
aI47
aI52
aI64
aI69
aI71
aI53
aI68
aI55
aI51
aI44
aI36
aI47
aI66
aI61
aI42
aI81
aI58
aI52
aI47
aI67
aI46
aI60
aI50
aI48
aI64
aI61
aI52
aI28
aI38
aI36
aI37
aI63
aI54
aI70
aI69
aI37
aI30
aI51
aI67
aI42
aI49
aI49
aI58
aI30
aI69
aI63
aI48
aI62
aI64
aI73
aI67
aI45
aI66
aI87
aI47
aI44
aI47
aI40
aI59
aI35
aI44
aI29
aI55
aI28
aI59
aI60
aI52
aI44
aI45
aI60
aI47
aI34
aI62
aI51
aI29
aI27
aI32
aI56
aI38
aI53
aI46
aI63
aI50
aI53
aI53
aI49
aI69
aI44
aI70
aI43
aI68
aI52
aI39
aI35
aI45
aI54
aI52
aI48
aI56
aI49
aI43
aI59
aI50
aI50
aI51
aI39
aI54
aI66
aI62
aI45
aI51
aI35
aI39
aI50
aI61
aI51
aI29
aI48
aI69
aI52
aI39
aI48
aI48
aI49
aI28
aI52
aI17
aI46
aI39
aI48
aI2
aI3
aI4
aI4
aI3
aI3
aI3
aI3
aI3
aI3
aI3
aI2
aI3
aI2
aI4
aI3
aI1
aI2
aI4
aI2
aI3
aI00
tp36
a(F12026.82
(lp37
I4
aI5
aI53
aI56
aI58
aI65
aI55
aI53
aI47
aI45
aI47
aI65
aI54
aI60
aI63
aI51
aI64
aI37
aI68
aI52
aI53
aI35
aI29
aI43
aI46
aI41
aI33
aI41
aI71
aI62
aI47
aI43
aI71
aI64
aI71
aI35
aI48
aI63
aI34
aI40
aI56
aI46
aI50
aI39
aI8
aI14
aI14
aI16
aI14
aI10
aI17
aI14
aI17
aI13
aI12
aI10
aI10
aI14
aI5
aI7
aI15
aI9
aI11
aI7
aI8
aI9
aI8
aI9
aI7
aI4
aI8
aI5
aI53
aI48
aI55
aI76
aI57
aI59
aI39
aI53
aI53
aI41
aI62
aI50
aI45
aI53
aI51
aI41
aI40
aI47
aI52
aI64
aI69
aI71
aI53
aI68
aI55
aI51
aI44
aI36
aI47
aI66
aI61
aI42
aI81
aI58
aI52
aI47
aI67
aI46
aI60
aI50
aI48
aI64
aI61
aI52
aI28
aI38
aI36
aI37
aI63
aI54
aI70
aI69
aI37
aI30
aI51
aI67
aI42
aI49
aI49
aI58
aI30
aI69
aI63
aI48
aI62
aI64
aI73
aI67
aI45
aI66
aI87
aI47
aI44
aI47
aI40
aI59
aI35
aI44
aI29
aI55
aI28
aI59
aI60
aI52
aI44
aI45
aI60
aI47
aI34
aI62
aI51
aI29
aI27
aI32
aI56
aI38
aI53
aI46
aI63
aI50
aI53
aI53
aI49
aI69
aI44
aI70
aI43
aI68
aI52
aI39
aI35
aI45
aI54
aI52
aI48
aI56
aI49
aI43
aI59
aI50
aI50
aI51
aI39
aI54
aI66
aI62
aI45
aI51
aI35
aI39
aI50
aI61
aI51
aI29
aI48
aI69
aI52
aI39
aI48
aI48
aI49
aI28
aI52
aI17
aI46
aI39
aI48
aI2
aI3
aI4
aI4
aI3
aI3
aI3
aI3
aI3
aI3
aI3
aI2
aI3
aI2
aI4
aI3
aI1
aI2
aI4
aI2
aI3
aI00
tp38
a(F12026.82
(lp39
I4
aI5
aI53
aI56
aI58
aI65
aI55
aI53
aI47
aI45
aI47
aI65
aI54
aI60
aI63
aI51
aI64
aI37
aI68
aI52
aI53
aI35
aI29
aI43
aI46
aI41
aI33
aI41
aI71
aI62
aI47
aI43
aI71
aI64
aI71
aI35
aI48
aI63
aI34
aI40
aI56
aI46
aI50
aI39
aI8
aI14
aI14
aI16
aI14
aI10
aI17
aI14
aI17
aI13
aI12
aI10
aI10
aI14
aI5
aI7
aI15
aI9
aI11
aI7
aI8
aI9
aI8
aI9
aI7
aI4
aI8
aI5
aI53
aI48
aI55
aI76
aI57
aI59
aI39
aI53
aI53
aI41
aI62
aI50
aI45
aI53
aI51
aI41
aI40
aI47
aI52
aI64
aI69
aI71
aI53
aI68
aI55
aI51
aI44
aI36
aI47
aI66
aI61
aI42
aI81
aI58
aI52
aI47
aI67
aI46
aI60
aI50
aI48
aI64
aI61
aI52
aI28
aI38
aI36
aI37
aI63
aI54
aI70
aI69
aI37
aI30
aI51
aI67
aI42
aI49
aI49
aI58
aI30
aI69
aI63
aI48
aI62
aI64
aI73
aI67
aI45
aI66
aI87
aI47
aI44
aI47
aI40
aI59
aI35
aI44
aI29
aI55
aI28
aI59
aI60
aI52
aI44
aI45
aI60
aI47
aI34
aI62
aI51
aI29
aI27
aI32
aI56
aI38
aI53
aI46
aI63
aI50
aI53
aI53
aI49
aI69
aI44
aI70
aI43
aI68
aI52
aI39
aI35
aI45
aI54
aI52
aI48
aI56
aI49
aI43
aI59
aI50
aI50
aI51
aI39
aI54
aI66
aI62
aI45
aI51
aI35
aI39
aI50
aI61
aI51
aI29
aI48
aI69
aI52
aI39
aI48
aI48
aI49
aI28
aI52
aI17
aI46
aI39
aI48
aI2
aI3
aI4
aI4
aI3
aI3
aI3
aI3
aI3
aI3
aI3
aI2
aI3
aI2
aI4
aI3
aI1
aI2
aI4
aI2
aI3
aI00
tp40
a(F12026.82
(lp41
I4
aI5
aI53
aI56
aI58
aI65
aI55
aI53
aI47
aI45
aI47
aI65
aI54
aI60
aI63
aI51
aI64
aI37
aI68
aI52
aI53
aI35
aI29
aI43
aI46
aI41
aI33
aI41
aI71
aI62
aI47
aI43
aI71
aI64
aI71
aI35
aI48
aI63
aI34
aI40
aI56
aI46
aI50
aI39
aI8
aI14
aI14
aI16
aI14
aI10
aI17
aI14
aI17
aI13
aI12
aI10
aI10
aI14
aI5
aI7
aI15
aI9
aI11
aI7
aI8
aI9
aI8
aI9
aI7
aI4
aI8
aI5
aI53
aI48
aI55
aI76
aI57
aI59
aI39
aI53
aI53
aI41
aI62
aI50
aI45
aI53
aI51
aI41
aI40
aI47
aI52
aI64
aI69
aI71
aI53
aI68
aI55
aI51
aI44
aI36
aI47
aI66
aI61
aI42
aI81
aI58
aI52
aI47
aI67
aI46
aI60
aI50
aI48
aI64
aI61
aI52
aI28
aI38
aI36
aI37
aI63
aI54
aI70
aI69
aI37
aI30
aI51
aI67
aI42
aI49
aI49
aI58
aI30
aI69
aI63
aI48
aI62
aI64
aI73
aI67
aI45
aI66
aI87
aI47
aI44
aI47
aI40
aI59
aI35
aI44
aI29
aI55
aI28
aI59
aI60
aI52
aI44
aI45
aI60
aI47
aI34
aI62
aI51
aI29
aI27
aI32
aI56
aI38
aI53
aI46
aI63
aI50
aI53
aI53
aI49
aI69
aI44
aI70
aI43
aI68
aI52
aI39
aI35
aI45
aI54
aI52
aI48
aI56
aI49
aI43
aI59
aI50
aI50
aI51
aI39
aI54
aI66
aI62
aI45
aI51
aI35
aI39
aI50
aI61
aI51
aI29
aI48
aI69
aI52
aI39
aI48
aI48
aI49
aI28
aI52
aI17
aI46
aI39
aI48
aI2
aI3
aI4
aI4
aI3
aI3
aI3
aI3
aI3
aI3
aI3
aI2
aI3
aI2
aI4
aI3
aI1
aI2
aI4
aI2
aI3
aI00
tp42
a(F12026.82
(lp43
I4
aI5
aI53
aI56
aI58
aI65
aI55
aI53
aI47
aI45
aI47
aI65
aI54
aI60
aI63
aI51
aI64
aI37
aI68
aI52
aI53
aI35
aI29
aI43
aI46
aI41
aI33
aI41
aI71
aI62
aI47
aI43
aI71
aI64
aI71
aI35
aI48
aI63
aI34
aI40
aI56
aI46
aI50
aI39
aI8
aI14
aI14
aI16
aI14
aI10
aI17
aI14
aI17
aI13
aI12
aI10
aI10
aI14
aI5
aI7
aI15
aI9
aI11
aI7
aI8
aI9
aI8
aI9
aI7
aI4
aI8
aI5
aI53
aI48
aI55
aI76
aI57
aI59
aI39
aI53
aI53
aI41
aI62
aI50
aI45
aI53
aI51
aI41
aI40
aI47
aI52
aI64
aI69
aI71
aI53
aI68
aI55
aI51
aI44
aI36
aI47
aI66
aI61
aI42
aI81
aI58
aI52
aI47
aI67
aI46
aI60
aI50
aI48
aI64
aI61
aI52
aI28
aI38
aI36
aI37
aI63
aI54
aI70
aI69
aI37
aI30
aI51
aI67
aI42
aI49
aI49
aI58
aI30
aI69
aI63
aI48
aI62
aI64
aI73
aI67
aI45
aI66
aI87
aI47
aI44
aI47
aI40
aI59
aI35
aI44
aI29
aI55
aI28
aI59
aI60
aI52
aI44
aI45
aI60
aI47
aI34
aI62
aI51
aI29
aI27
aI32
aI56
aI38
aI53
aI46
aI63
aI50
aI53
aI53
aI49
aI69
aI44
aI70
aI43
aI68
aI52
aI39
aI35
aI45
aI54
aI52
aI48
aI56
aI49
aI43
aI59
aI50
aI50
aI51
aI39
aI54
aI66
aI62
aI45
aI51
aI35
aI39
aI50
aI61
aI51
aI29
aI48
aI69
aI52
aI39
aI48
aI48
aI49
aI28
aI52
aI17
aI46
aI39
aI48
aI2
aI3
aI4
aI4
aI3
aI3
aI3
aI3
aI3
aI3
aI3
aI2
aI3
aI2
aI4
aI3
aI1
aI2
aI4
aI2
aI3
aI00
tp44
a(F12026.82
(lp45
I4
aI5
aI53
aI56
aI58
aI65
aI55
aI53
aI47
aI45
aI47
aI65
aI54
aI60
aI63
aI51
aI64
aI37
aI68
aI52
aI53
aI35
aI29
aI43
aI46
aI41
aI33
aI41
aI71
aI62
aI47
aI43
aI71
aI64
aI71
aI35
aI48
aI63
aI34
aI40
aI56
aI46
aI50
aI39
aI8
aI14
aI14
aI16
aI14
aI10
aI17
aI14
aI17
aI13
aI12
aI10
aI10
aI14
aI5
aI7
aI15
aI9
aI11
aI7
aI8
aI9
aI8
aI9
aI7
aI4
aI8
aI5
aI53
aI48
aI55
aI76
aI57
aI59
aI39
aI53
aI53
aI41
aI62
aI50
aI45
aI53
aI51
aI41
aI40
aI47
aI52
aI64
aI69
aI71
aI53
aI68
aI55
aI51
aI44
aI36
aI47
aI66
aI61
aI42
aI81
aI58
aI52
aI47
aI67
aI46
aI60
aI50
aI48
aI64
aI61
aI52
aI28
aI38
aI36
aI37
aI63
aI54
aI70
aI69
aI37
aI30
aI51
aI67
aI42
aI49
aI49
aI58
aI30
aI69
aI63
aI48
aI62
aI64
aI73
aI67
aI45
aI66
aI87
aI47
aI44
aI47
aI40
aI59
aI35
aI44
aI29
aI55
aI28
aI59
aI60
aI52
aI44
aI45
aI60
aI47
aI34
aI62
aI51
aI29
aI27
aI32
aI56
aI38
aI53
aI46
aI63
aI50
aI53
aI53
aI49
aI69
aI44
aI70
aI43
aI68
aI52
aI39
aI35
aI45
aI54
aI52
aI48
aI56
aI49
aI43
aI59
aI50
aI50
aI51
aI39
aI54
aI66
aI62
aI45
aI51
aI35
aI39
aI50
aI61
aI51
aI29
aI48
aI69
aI52
aI39
aI48
aI48
aI49
aI28
aI52
aI17
aI46
aI39
aI48
aI2
aI3
aI4
aI4
aI3
aI3
aI3
aI3
aI3
aI3
aI3
aI2
aI3
aI2
aI4
aI3
aI1
aI2
aI4
aI2
aI3
aI00
tp46
a(F12026.82
(lp47
I4
aI5
aI53
aI56
aI58
aI65
aI55
aI53
aI47
aI45
aI47
aI65
aI54
aI60
aI63
aI51
aI64
aI37
aI68
aI52
aI53
aI35
aI29
aI43
aI46
aI41
aI33
aI41
aI71
aI62
aI47
aI43
aI71
aI64
aI71
aI35
aI48
aI63
aI34
aI40
aI56
aI46
aI50
aI39
aI8
aI14
aI14
aI16
aI14
aI10
aI17
aI14
aI17
aI13
aI12
aI10
aI10
aI14
aI5
aI7
aI15
aI9
aI11
aI7
aI8
aI9
aI8
aI9
aI7
aI4
aI8
aI5
aI53
aI48
aI55
aI76
aI57
aI59
aI39
aI53
aI53
aI41
aI62
aI50
aI45
aI53
aI51
aI41
aI40
aI47
aI52
aI64
aI69
aI71
aI53
aI68
aI55
aI51
aI44
aI36
aI47
aI66
aI61
aI42
aI81
aI58
aI52
aI47
aI67
aI46
aI60
aI50
aI48
aI64
aI61
aI52
aI28
aI38
aI36
aI37
aI63
aI54
aI70
aI69
aI37
aI30
aI51
aI67
aI42
aI49
aI49
aI58
aI30
aI69
aI63
aI48
aI62
aI64
aI73
aI67
aI45
aI66
aI87
aI47
aI44
aI47
aI40
aI59
aI35
aI44
aI29
aI55
aI28
aI59
aI60
aI52
aI44
aI45
aI60
aI47
aI34
aI62
aI51
aI29
aI27
aI32
aI56
aI38
aI53
aI46
aI63
aI50
aI53
aI53
aI49
aI69
aI44
aI70
aI43
aI68
aI52
aI39
aI35
aI45
aI54
aI52
aI48
aI56
aI49
aI43
aI59
aI50
aI50
aI51
aI39
aI54
aI66
aI62
aI45
aI51
aI35
aI39
aI50
aI61
aI51
aI29
aI48
aI69
aI52
aI39
aI48
aI48
aI49
aI28
aI52
aI17
aI46
aI39
aI48
aI2
aI3
aI4
aI4
aI3
aI3
aI3
aI3
aI3
aI3
aI3
aI2
aI3
aI2
aI4
aI3
aI1
aI2
aI4
aI2
aI3
aI00
tp48
a(F12026.82
(lp49
I4
aI5
aI53
aI56
aI58
aI65
aI55
aI53
aI47
aI45
aI47
aI65
aI54
aI60
aI63
aI51
aI64
aI37
aI68
aI52
aI53
aI35
aI29
aI43
aI46
aI41
aI33
aI41
aI71
aI62
aI47
aI43
aI71
aI64
aI71
aI35
aI48
aI63
aI34
aI40
aI56
aI46
aI50
aI39
aI8
aI14
aI14
aI16
aI14
aI10
aI17
aI14
aI17
aI13
aI12
aI10
aI10
aI14
aI5
aI7
aI15
aI9
aI11
aI7
aI8
aI9
aI8
aI9
aI7
aI4
aI8
aI5
aI53
aI48
aI55
aI76
aI57
aI59
aI39
aI53
aI53
aI41
aI62
aI50
aI45
aI53
aI51
aI41
aI40
aI47
aI52
aI64
aI69
aI71
aI53
aI68
aI55
aI51
aI44
aI36
aI47
aI66
aI61
aI42
aI81
aI58
aI52
aI47
aI67
aI46
aI60
aI50
aI48
aI64
aI61
aI52
aI28
aI38
aI36
aI37
aI63
aI54
aI70
aI69
aI37
aI30
aI51
aI67
aI42
aI49
aI49
aI58
aI30
aI69
aI63
aI48
aI62
aI64
aI73
aI67
aI45
aI66
aI87
aI47
aI44
aI47
aI40
aI59
aI35
aI44
aI29
aI55
aI28
aI59
aI60
aI52
aI44
aI45
aI60
aI47
aI34
aI62
aI51
aI29
aI27
aI32
aI56
aI38
aI53
aI46
aI63
aI50
aI53
aI53
aI49
aI69
aI44
aI70
aI43
aI68
aI52
aI39
aI35
aI45
aI54
aI52
aI48
aI56
aI49
aI43
aI59
aI50
aI50
aI51
aI39
aI54
aI66
aI62
aI45
aI51
aI35
aI39
aI50
aI61
aI51
aI29
aI48
aI69
aI52
aI39
aI48
aI48
aI49
aI28
aI52
aI17
aI46
aI39
aI48
aI2
aI3
aI4
aI4
aI3
aI3
aI3
aI3
aI3
aI3
aI3
aI2
aI3
aI2
aI4
aI3
aI1
aI2
aI4
aI2
aI3
aI00
tp50
a(F12026.82
(lp51
I4
aI5
aI53
aI56
aI58
aI65
aI55
aI53
aI47
aI45
aI47
aI65
aI54
aI60
aI63
aI51
aI64
aI37
aI68
aI52
aI53
aI35
aI29
aI43
aI46
aI41
aI33
aI41
aI71
aI62
aI47
aI43
aI71
aI64
aI71
aI35
aI48
aI63
aI34
aI40
aI56
aI46
aI50
aI39
aI8
aI14
aI14
aI16
aI14
aI10
aI17
aI14
aI17
aI13
aI12
aI10
aI10
aI14
aI5
aI7
aI15
aI9
aI11
aI7
aI8
aI9
aI8
aI9
aI7
aI4
aI8
aI5
aI53
aI48
aI55
aI76
aI57
aI59
aI39
aI53
aI53
aI41
aI62
aI50
aI45
aI53
aI51
aI41
aI40
aI47
aI52
aI64
aI69
aI71
aI53
aI68
aI55
aI51
aI44
aI36
aI47
aI66
aI61
aI42
aI81
aI58
aI52
aI47
aI67
aI46
aI60
aI50
aI48
aI64
aI61
aI52
aI28
aI38
aI36
aI37
aI63
aI54
aI70
aI69
aI37
aI30
aI51
aI67
aI42
aI49
aI49
aI58
aI30
aI69
aI63
aI48
aI62
aI64
aI73
aI67
aI45
aI66
aI87
aI47
aI44
aI47
aI40
aI59
aI35
aI44
aI29
aI55
aI28
aI59
aI60
aI52
aI44
aI45
aI60
aI47
aI34
aI62
aI51
aI29
aI27
aI32
aI56
aI38
aI53
aI46
aI63
aI50
aI53
aI53
aI49
aI69
aI44
aI70
aI43
aI68
aI52
aI39
aI35
aI45
aI54
aI52
aI48
aI56
aI49
aI43
aI59
aI50
aI50
aI51
aI39
aI54
aI66
aI62
aI45
aI51
aI35
aI39
aI50
aI61
aI51
aI29
aI48
aI69
aI52
aI39
aI48
aI48
aI49
aI28
aI52
aI17
aI46
aI39
aI48
aI2
aI3
aI4
aI4
aI3
aI3
aI3
aI3
aI3
aI3
aI3
aI2
aI3
aI2
aI4
aI3
aI1
aI2
aI4
aI2
aI3
aI00
tp52
a(F12026.82
(lp53
I4
aI5
aI53
aI56
aI58
aI65
aI55
aI53
aI47
aI45
aI47
aI65
aI54
aI60
aI63
aI51
aI64
aI37
aI68
aI52
aI53
aI35
aI29
aI43
aI46
aI41
aI33
aI41
aI71
aI62
aI47
aI43
aI71
aI64
aI71
aI35
aI48
aI63
aI34
aI40
aI56
aI46
aI50
aI39
aI8
aI14
aI14
aI16
aI14
aI10
aI17
aI14
aI17
aI13
aI12
aI10
aI10
aI14
aI5
aI7
aI15
aI9
aI11
aI7
aI8
aI9
aI8
aI9
aI7
aI4
aI8
aI5
aI53
aI48
aI55
aI76
aI57
aI59
aI39
aI53
aI53
aI41
aI62
aI50
aI45
aI53
aI51
aI41
aI40
aI47
aI52
aI64
aI69
aI71
aI53
aI68
aI55
aI51
aI44
aI36
aI47
aI66
aI61
aI42
aI81
aI58
aI52
aI47
aI66
aI46
aI60
aI50
aI48
aI64
aI61
aI52
aI28
aI38
aI36
aI37
aI63
aI54
aI70
aI69
aI37
aI30
aI51
aI67
aI42
aI49
aI49
aI58
aI30
aI69
aI63
aI48
aI62
aI64
aI73
aI67
aI45
aI66
aI87
aI47
aI44
aI47
aI40
aI59
aI35
aI44
aI29
aI55
aI28
aI59
aI60
aI52
aI45
aI45
aI60
aI47
aI34
aI62
aI51
aI29
aI27
aI32
aI56
aI38
aI53
aI46
aI63
aI50
aI53
aI53
aI49
aI69
aI44
aI70
aI43
aI68
aI52
aI39
aI35
aI45
aI54
aI52
aI48
aI56
aI49
aI43
aI59
aI50
aI50
aI51
aI39
aI54
aI66
aI62
aI45
aI51
aI35
aI39
aI50
aI61
aI51
aI29
aI48
aI69
aI52
aI39
aI48
aI48
aI49
aI28
aI52
aI17
aI46
aI39
aI48
aI2
aI3
aI4
aI4
aI3
aI3
aI3
aI3
aI3
aI3
aI3
aI2
aI3
aI2
aI4
aI3
aI1
aI2
aI4
aI2
aI3
aI00
tp54
a(F12026.82
(lp55
I4
aI5
aI53
aI56
aI58
aI65
aI55
aI53
aI47
aI45
aI47
aI65
aI54
aI60
aI63
aI51
aI64
aI37
aI68
aI52
aI53
aI35
aI29
aI43
aI46
aI41
aI33
aI41
aI71
aI62
aI47
aI43
aI71
aI64
aI71
aI35
aI48
aI63
aI34
aI40
aI56
aI46
aI50
aI39
aI8
aI14
aI14
aI16
aI14
aI10
aI17
aI14
aI17
aI13
aI12
aI10
aI10
aI14
aI5
aI7
aI15
aI9
aI11
aI7
aI8
aI9
aI8
aI9
aI7
aI4
aI8
aI5
aI53
aI48
aI55
aI76
aI57
aI59
aI39
aI53
aI53
aI41
aI62
aI50
aI45
aI53
aI51
aI41
aI40
aI47
aI52
aI64
aI69
aI71
aI53
aI68
aI55
aI51
aI44
aI36
aI47
aI66
aI61
aI42
aI81
aI58
aI52
aI47
aI66
aI46
aI60
aI50
aI48
aI64
aI61
aI52
aI28
aI38
aI36
aI37
aI63
aI54
aI70
aI69
aI37
aI30
aI51
aI67
aI42
aI49
aI49
aI58
aI30
aI69
aI63
aI48
aI62
aI64
aI73
aI67
aI45
aI66
aI87
aI47
aI44
aI47
aI40
aI59
aI35
aI44
aI29
aI55
aI28
aI59
aI60
aI52
aI45
aI45
aI60
aI47
aI34
aI62
aI51
aI29
aI27
aI32
aI56
aI38
aI53
aI46
aI63
aI50
aI53
aI53
aI49
aI69
aI44
aI70
aI43
aI68
aI52
aI39
aI35
aI45
aI54
aI52
aI48
aI56
aI49
aI43
aI59
aI50
aI50
aI51
aI39
aI54
aI66
aI62
aI45
aI51
aI35
aI39
aI50
aI61
aI51
aI29
aI48
aI69
aI52
aI39
aI48
aI48
aI49
aI28
aI52
aI17
aI46
aI39
aI48
aI2
aI3
aI4
aI4
aI3
aI3
aI3
aI3
aI3
aI3
aI3
aI2
aI3
aI2
aI4
aI3
aI1
aI2
aI4
aI2
aI3
aI00
tp56
a(F12026.82
(lp57
I4
aI5
aI53
aI56
aI58
aI65
aI55
aI53
aI47
aI45
aI47
aI65
aI54
aI60
aI63
aI51
aI64
aI37
aI68
aI52
aI53
aI35
aI29
aI43
aI46
aI41
aI33
aI41
aI71
aI62
aI47
aI43
aI71
aI64
aI71
aI35
aI48
aI63
aI34
aI40
aI56
aI46
aI50
aI39
aI8
aI14
aI14
aI16
aI14
aI10
aI17
aI14
aI17
aI13
aI12
aI10
aI10
aI14
aI5
aI7
aI15
aI9
aI11
aI7
aI8
aI9
aI8
aI9
aI7
aI4
aI8
aI5
aI53
aI48
aI55
aI76
aI57
aI59
aI39
aI53
aI53
aI41
aI62
aI50
aI45
aI53
aI51
aI41
aI40
aI47
aI52
aI64
aI69
aI71
aI53
aI68
aI55
aI51
aI44
aI36
aI47
aI66
aI61
aI42
aI81
aI58
aI52
aI47
aI66
aI46
aI60
aI50
aI48
aI64
aI61
aI52
aI28
aI38
aI36
aI37
aI63
aI54
aI70
aI69
aI37
aI30
aI51
aI67
aI42
aI49
aI49
aI58
aI30
aI69
aI63
aI48
aI62
aI64
aI73
aI67
aI45
aI66
aI87
aI47
aI44
aI47
aI40
aI59
aI35
aI44
aI29
aI55
aI28
aI59
aI60
aI52
aI45
aI45
aI60
aI47
aI34
aI62
aI51
aI29
aI27
aI32
aI56
aI38
aI53
aI46
aI63
aI50
aI53
aI53
aI49
aI69
aI44
aI70
aI43
aI68
aI52
aI39
aI35
aI45
aI54
aI52
aI48
aI56
aI49
aI43
aI59
aI50
aI50
aI51
aI39
aI54
aI66
aI62
aI45
aI51
aI35
aI39
aI50
aI61
aI51
aI29
aI48
aI69
aI52
aI39
aI48
aI48
aI49
aI28
aI52
aI17
aI46
aI39
aI48
aI2
aI3
aI4
aI4
aI3
aI3
aI3
aI3
aI3
aI3
aI3
aI2
aI3
aI2
aI4
aI3
aI1
aI2
aI4
aI2
aI3
aI00
tp58
a(F12026.82
(lp59
I4
aI5
aI53
aI56
aI58
aI65
aI55
aI53
aI47
aI45
aI47
aI65
aI54
aI60
aI63
aI51
aI64
aI37
aI68
aI52
aI53
aI35
aI29
aI43
aI46
aI41
aI33
aI41
aI71
aI62
aI47
aI43
aI71
aI64
aI71
aI35
aI48
aI63
aI34
aI40
aI56
aI46
aI50
aI39
aI8
aI14
aI14
aI16
aI14
aI10
aI17
aI14
aI17
aI13
aI12
aI10
aI10
aI14
aI5
aI7
aI15
aI9
aI11
aI7
aI8
aI9
aI8
aI9
aI7
aI4
aI8
aI5
aI53
aI48
aI55
aI76
aI57
aI59
aI39
aI53
aI53
aI41
aI62
aI50
aI45
aI53
aI51
aI41
aI40
aI47
aI52
aI64
aI69
aI71
aI53
aI68
aI55
aI51
aI44
aI36
aI47
aI66
aI61
aI42
aI81
aI58
aI52
aI47
aI66
aI46
aI60
aI50
aI48
aI64
aI61
aI52
aI28
aI38
aI36
aI37
aI63
aI54
aI70
aI69
aI37
aI30
aI51
aI67
aI42
aI49
aI49
aI58
aI30
aI69
aI63
aI48
aI62
aI64
aI73
aI67
aI45
aI66
aI87
aI47
aI44
aI47
aI40
aI59
aI35
aI44
aI29
aI55
aI28
aI59
aI60
aI52
aI44
aI45
aI60
aI47
aI34
aI62
aI51
aI29
aI27
aI32
aI56
aI38
aI53
aI46
aI63
aI50
aI53
aI53
aI49
aI69
aI44
aI70
aI43
aI68
aI52
aI39
aI35
aI45
aI54
aI52
aI48
aI56
aI49
aI43
aI59
aI50
aI50
aI51
aI39
aI54
aI66
aI62
aI45
aI51
aI35
aI39
aI50
aI61
aI51
aI29
aI48
aI69
aI52
aI39
aI48
aI48
aI49
aI28
aI52
aI17
aI46
aI39
aI48
aI2
aI3
aI4
aI4
aI3
aI3
aI3
aI3
aI3
aI3
aI3
aI2
aI3
aI2
aI4
aI3
aI1
aI2
aI4
aI2
aI3
aI00
tp60
a(F12026.82
(lp61
I4
aI5
aI53
aI56
aI58
aI65
aI55
aI53
aI47
aI45
aI47
aI65
aI54
aI60
aI63
aI51
aI64
aI37
aI68
aI52
aI53
aI35
aI29
aI43
aI46
aI41
aI33
aI41
aI71
aI62
aI47
aI43
aI71
aI64
aI71
aI35
aI48
aI63
aI34
aI40
aI56
aI46
aI50
aI39
aI8
aI14
aI14
aI16
aI14
aI10
aI17
aI14
aI17
aI13
aI12
aI10
aI10
aI14
aI5
aI7
aI15
aI9
aI11
aI7
aI8
aI9
aI8
aI9
aI7
aI4
aI8
aI5
aI53
aI48
aI55
aI76
aI57
aI59
aI39
aI53
aI53
aI41
aI62
aI50
aI45
aI53
aI51
aI41
aI40
aI47
aI52
aI64
aI69
aI71
aI53
aI68
aI55
aI51
aI44
aI36
aI47
aI66
aI61
aI42
aI81
aI58
aI52
aI47
aI66
aI46
aI60
aI50
aI48
aI64
aI61
aI52
aI28
aI38
aI36
aI37
aI63
aI54
aI70
aI69
aI37
aI30
aI51
aI67
aI42
aI49
aI49
aI58
aI30
aI69
aI63
aI48
aI62
aI64
aI73
aI67
aI45
aI66
aI87
aI47
aI44
aI47
aI40
aI59
aI35
aI44
aI29
aI55
aI28
aI59
aI60
aI52
aI44
aI45
aI60
aI47
aI34
aI62
aI51
aI29
aI27
aI32
aI56
aI38
aI53
aI46
aI63
aI50
aI53
aI53
aI49
aI69
aI44
aI70
aI43
aI68
aI52
aI39
aI35
aI45
aI54
aI52
aI48
aI56
aI49
aI43
aI59
aI50
aI50
aI51
aI39
aI54
aI66
aI62
aI45
aI51
aI35
aI39
aI50
aI61
aI51
aI29
aI48
aI69
aI52
aI39
aI48
aI48
aI49
aI28
aI52
aI17
aI46
aI39
aI48
aI2
aI3
aI4
aI4
aI3
aI3
aI3
aI3
aI3
aI3
aI3
aI2
aI3
aI2
aI4
aI3
aI1
aI2
aI4
aI2
aI3
aI00
tp62
a(F12026.82
(lp63
I4
aI5
aI53
aI56
aI58
aI65
aI55
aI53
aI47
aI45
aI47
aI65
aI54
aI60
aI63
aI51
aI64
aI37
aI68
aI52
aI53
aI35
aI29
aI43
aI46
aI41
aI33
aI41
aI71
aI62
aI47
aI43
aI71
aI64
aI71
aI35
aI48
aI63
aI34
aI40
aI56
aI46
aI50
aI39
aI8
aI14
aI14
aI16
aI14
aI10
aI17
aI14
aI17
aI13
aI12
aI10
aI10
aI14
aI5
aI7
aI15
aI9
aI11
aI7
aI8
aI9
aI8
aI9
aI7
aI4
aI8
aI5
aI53
aI48
aI55
aI76
aI57
aI59
aI39
aI53
aI53
aI41
aI62
aI50
aI45
aI53
aI51
aI41
aI40
aI47
aI52
aI64
aI69
aI71
aI53
aI68
aI55
aI51
aI44
aI36
aI47
aI66
aI61
aI42
aI81
aI58
aI52
aI47
aI66
aI46
aI60
aI50
aI48
aI64
aI61
aI52
aI28
aI38
aI36
aI37
aI63
aI54
aI70
aI69
aI37
aI30
aI51
aI67
aI42
aI49
aI49
aI58
aI30
aI69
aI63
aI48
aI62
aI64
aI73
aI67
aI45
aI66
aI87
aI47
aI44
aI47
aI40
aI59
aI35
aI44
aI29
aI55
aI28
aI59
aI60
aI52
aI44
aI45
aI60
aI47
aI34
aI62
aI51
aI29
aI27
aI32
aI56
aI38
aI53
aI46
aI63
aI50
aI53
aI53
aI49
aI69
aI44
aI70
aI43
aI68
aI52
aI39
aI35
aI45
aI54
aI52
aI48
aI56
aI49
aI43
aI59
aI50
aI50
aI51
aI39
aI54
aI66
aI62
aI45
aI51
aI35
aI39
aI50
aI61
aI51
aI29
aI48
aI69
aI52
aI39
aI48
aI48
aI49
aI28
aI52
aI17
aI46
aI39
aI48
aI2
aI3
aI4
aI4
aI3
aI3
aI3
aI3
aI3
aI3
aI3
aI2
aI3
aI2
aI4
aI3
aI1
aI2
aI4
aI2
aI3
aI00
tp64
a(F12026.82
(lp65
I4
aI5
aI53
aI56
aI58
aI65
aI55
aI53
aI47
aI45
aI47
aI65
aI54
aI60
aI63
aI51
aI64
aI37
aI68
aI52
aI53
aI35
aI29
aI43
aI46
aI41
aI33
aI41
aI71
aI62
aI47
aI43
aI71
aI64
aI71
aI35
aI48
aI63
aI34
aI40
aI56
aI46
aI50
aI39
aI8
aI14
aI14
aI16
aI14
aI10
aI17
aI14
aI17
aI13
aI12
aI10
aI10
aI14
aI5
aI7
aI15
aI9
aI11
aI7
aI8
aI9
aI8
aI9
aI7
aI4
aI8
aI5
aI53
aI48
aI55
aI76
aI57
aI59
aI39
aI53
aI53
aI41
aI62
aI50
aI45
aI53
aI51
aI41
aI40
aI47
aI52
aI64
aI69
aI71
aI53
aI68
aI55
aI51
aI44
aI36
aI47
aI66
aI61
aI42
aI81
aI58
aI52
aI47
aI66
aI46
aI60
aI50
aI48
aI64
aI61
aI52
aI28
aI38
aI36
aI37
aI63
aI54
aI70
aI69
aI37
aI30
aI51
aI67
aI42
aI49
aI49
aI58
aI30
aI69
aI63
aI48
aI62
aI64
aI73
aI67
aI45
aI66
aI87
aI47
aI44
aI47
aI40
aI59
aI35
aI44
aI29
aI55
aI28
aI59
aI60
aI52
aI44
aI45
aI60
aI47
aI34
aI62
aI51
aI29
aI27
aI32
aI56
aI38
aI53
aI46
aI63
aI50
aI53
aI53
aI49
aI69
aI44
aI70
aI43
aI68
aI52
aI39
aI35
aI45
aI54
aI52
aI48
aI56
aI49
aI43
aI59
aI50
aI50
aI51
aI39
aI54
aI66
aI62
aI45
aI51
aI35
aI39
aI50
aI61
aI51
aI29
aI48
aI69
aI52
aI39
aI48
aI48
aI49
aI28
aI52
aI17
aI46
aI39
aI48
aI2
aI3
aI4
aI4
aI3
aI3
aI3
aI3
aI3
aI3
aI3
aI2
aI3
aI2
aI4
aI3
aI1
aI2
aI4
aI2
aI3
aI00
tp66
a(F12026.82
g65
I00
tp67
a(F12026.82
(lp68
I4
aI5
aI53
aI56
aI58
aI65
aI55
aI53
aI47
aI45
aI47
aI65
aI54
aI60
aI63
aI51
aI64
aI37
aI68
aI52
aI53
aI35
aI29
aI43
aI46
aI41
aI33
aI41
aI71
aI62
aI47
aI43
aI71
aI64
aI71
aI35
aI48
aI63
aI34
aI40
aI56
aI46
aI50
aI39
aI8
aI14
aI14
aI16
aI14
aI10
aI17
aI14
aI17
aI13
aI12
aI10
aI10
aI14
aI5
aI7
aI15
aI9
aI11
aI7
aI8
aI9
aI8
aI9
aI7
aI4
aI8
aI5
aI53
aI48
aI55
aI76
aI57
aI59
aI39
aI53
aI53
aI41
aI62
aI50
aI45
aI53
aI51
aI41
aI40
aI47
aI52
aI64
aI69
aI71
aI53
aI68
aI55
aI51
aI44
aI36
aI47
aI66
aI61
aI42
aI81
aI58
aI52
aI47
aI66
aI46
aI60
aI50
aI48
aI64
aI61
aI52
aI28
aI38
aI36
aI37
aI63
aI54
aI70
aI69
aI37
aI30
aI51
aI67
aI42
aI49
aI49
aI58
aI30
aI69
aI63
aI48
aI62
aI64
aI73
aI67
aI45
aI66
aI87
aI47
aI44
aI47
aI40
aI59
aI35
aI44
aI29
aI55
aI28
aI59
aI60
aI52
aI44
aI45
aI60
aI47
aI34
aI62
aI51
aI29
aI27
aI32
aI56
aI38
aI53
aI46
aI63
aI50
aI53
aI53
aI49
aI69
aI44
aI70
aI43
aI68
aI52
aI39
aI35
aI45
aI54
aI52
aI48
aI56
aI49
aI43
aI59
aI50
aI50
aI51
aI39
aI54
aI66
aI62
aI45
aI51
aI35
aI39
aI50
aI61
aI51
aI29
aI48
aI69
aI52
aI39
aI48
aI48
aI49
aI28
aI52
aI17
aI46
aI39
aI48
aI2
aI3
aI4
aI4
aI3
aI3
aI3
aI3
aI3
aI3
aI3
aI2
aI3
aI2
aI4
aI3
aI1
aI2
aI4
aI2
aI3
aI00
tp69
a(F12026.82
(lp70
I4
aI5
aI53
aI56
aI58
aI65
aI55
aI53
aI47
aI45
aI47
aI65
aI54
aI60
aI63
aI51
aI64
aI37
aI68
aI52
aI53
aI35
aI29
aI43
aI46
aI41
aI33
aI41
aI70
aI62
aI47
aI43
aI71
aI64
aI71
aI35
aI48
aI63
aI34
aI40
aI56
aI46
aI50
aI39
aI8
aI15
aI14
aI16
aI14
aI10
aI17
aI14
aI17
aI13
aI12
aI10
aI10
aI14
aI4
aI7
aI15
aI9
aI11
aI7
aI8
aI9
aI8
aI9
aI7
aI4
aI8
aI5
aI53
aI48
aI55
aI76
aI57
aI59
aI39
aI53
aI53
aI41
aI62
aI49
aI45
aI53
aI51
aI41
aI40
aI47
aI52
aI64
aI69
aI71
aI53
aI68
aI55
aI52
aI44
aI35
aI47
aI66
aI61
aI42
aI81
aI58
aI52
aI47
aI68
aI46
aI60
aI50
aI48
aI64
aI61
aI52
aI28
aI38
aI36
aI37
aI63
aI54
aI70
aI69
aI37
aI30
aI51
aI67
aI42
aI49
aI49
aI58
aI30
aI69
aI63
aI48
aI62
aI64
aI73
aI67
aI45
aI66
aI87
aI47
aI44
aI47
aI40
aI59
aI35
aI45
aI29
aI55
aI28
aI59
aI60
aI52
aI45
aI45
aI60
aI47
aI34
aI62
aI51
aI28
aI27
aI32
aI56
aI38
aI53
aI46
aI63
aI50
aI53
aI53
aI49
aI69
aI44
aI70
aI43
aI68
aI52
aI39
aI36
aI45
aI54
aI52
aI48
aI56
aI49
aI43
aI59
aI50
aI50
aI51
aI39
aI54
aI66
aI62
aI45
aI51
aI35
aI39
aI50
aI61
aI51
aI29
aI48
aI69
aI52
aI39
aI48
aI48
aI49
aI28
aI52
aI17
aI46
aI39
aI48
aI2
aI3
aI4
aI4
aI3
aI3
aI3
aI3
aI3
aI3
aI3
aI2
aI3
aI2
aI4
aI3
aI1
aI2
aI4
aI2
aI3
aI00
tp71
a(F12026.82
(lp72
I4
aI5
aI53
aI56
aI58
aI65
aI55
aI53
aI47
aI45
aI47
aI65
aI54
aI60
aI63
aI51
aI64
aI37
aI68
aI52
aI53
aI35
aI29
aI43
aI46
aI41
aI33
aI41
aI70
aI62
aI47
aI43
aI71
aI64
aI71
aI35
aI48
aI63
aI34
aI40
aI56
aI46
aI50
aI39
aI8
aI14
aI14
aI16
aI14
aI10
aI17
aI14
aI17
aI13
aI12
aI10
aI10
aI14
aI5
aI7
aI15
aI9
aI11
aI7
aI8
aI9
aI8
aI9
aI7
aI4
aI8
aI5
aI53
aI48
aI55
aI76
aI57
aI59
aI39
aI53
aI53
aI41
aI62
aI50
aI45
aI53
aI51
aI41
aI40
aI47
aI52
aI64
aI69
aI71
aI53
aI68
aI55
aI51
aI44
aI36
aI47
aI66
aI61
aI42
aI81
aI58
aI52
aI47
aI68
aI46
aI60
aI50
aI48
aI64
aI61
aI52
aI28
aI38
aI36
aI37
aI63
aI54
aI70
aI69
aI37
aI30
aI51
aI67
aI42
aI49
aI49
aI58
aI30
aI69
aI63
aI48
aI62
aI64
aI73
aI67
aI45
aI66
aI87
aI47
aI44
aI47
aI40
aI59
aI35
aI45
aI29
aI55
aI28
aI59
aI60
aI52
aI45
aI45
aI60
aI47
aI34
aI62
aI51
aI28
aI27
aI32
aI56
aI38
aI53
aI46
aI63
aI50
aI53
aI53
aI49
aI69
aI44
aI70
aI43
aI68
aI52
aI39
aI36
aI45
aI54
aI52
aI48
aI56
aI49
aI43
aI59
aI50
aI50
aI51
aI39
aI54
aI66
aI62
aI45
aI51
aI35
aI39
aI50
aI61
aI51
aI29
aI48
aI69
aI52
aI39
aI48
aI48
aI49
aI28
aI52
aI17
aI46
aI39
aI48
aI2
aI3
aI4
aI4
aI3
aI3
aI3
aI3
aI3
aI3
aI3
aI2
aI3
aI2
aI4
aI3
aI1
aI2
aI4
aI2
aI3
aI00
tp73
a(F12026.82
(lp74
I4
aI5
aI53
aI56
aI58
aI65
aI55
aI53
aI47
aI45
aI47
aI65
aI54
aI60
aI63
aI51
aI64
aI37
aI68
aI52
aI53
aI35
aI29
aI43
aI46
aI41
aI33
aI41
aI70
aI62
aI47
aI43
aI71
aI64
aI71
aI35
aI48
aI63
aI34
aI40
aI56
aI46
aI50
aI39
aI8
aI14
aI14
aI16
aI14
aI10
aI17
aI14
aI17
aI13
aI12
aI10
aI10
aI14
aI5
aI7
aI15
aI9
aI11
aI7
aI8
aI9
aI8
aI9
aI7
aI4
aI8
aI5
aI53
aI48
aI55
aI76
aI57
aI59
aI39
aI53
aI53
aI41
aI62
aI50
aI45
aI53
aI51
aI41
aI40
aI47
aI52
aI64
aI69
aI71
aI53
aI68
aI55
aI51
aI44
aI36
aI47
aI66
aI61
aI42
aI81
aI58
aI52
aI47
aI68
aI46
aI60
aI50
aI48
aI64
aI61
aI52
aI28
aI38
aI36
aI37
aI63
aI54
aI70
aI69
aI37
aI30
aI51
aI67
aI42
aI49
aI49
aI58
aI30
aI69
aI63
aI48
aI62
aI64
aI73
aI67
aI45
aI66
aI87
aI47
aI44
aI47
aI40
aI59
aI35
aI45
aI29
aI55
aI28
aI59
aI60
aI52
aI45
aI45
aI60
aI47
aI34
aI62
aI51
aI28
aI27
aI32
aI56
aI38
aI53
aI46
aI63
aI50
aI53
aI53
aI49
aI69
aI44
aI70
aI43
aI68
aI52
aI39
aI36
aI45
aI54
aI52
aI48
aI56
aI49
aI43
aI59
aI50
aI50
aI51
aI39
aI54
aI66
aI62
aI45
aI51
aI35
aI39
aI50
aI61
aI51
aI29
aI48
aI69
aI52
aI39
aI48
aI48
aI49
aI28
aI52
aI17
aI46
aI39
aI48
aI2
aI3
aI4
aI4
aI3
aI3
aI3
aI3
aI3
aI3
aI3
aI2
aI3
aI2
aI4
aI3
aI1
aI2
aI4
aI2
aI3
aI00
tp75
a(F12026.82
(lp76
I4
aI5
aI53
aI56
aI58
aI65
aI55
aI53
aI47
aI45
aI47
aI65
aI54
aI60
aI63
aI51
aI64
aI37
aI68
aI52
aI53
aI35
aI29
aI43
aI46
aI41
aI33
aI41
aI70
aI62
aI47
aI43
aI71
aI64
aI71
aI35
aI48
aI63
aI34
aI40
aI56
aI46
aI50
aI39
aI8
aI14
aI14
aI16
aI14
aI10
aI17
aI14
aI17
aI13
aI12
aI10
aI10
aI14
aI5
aI7
aI15
aI9
aI11
aI7
aI8
aI9
aI8
aI9
aI7
aI4
aI8
aI5
aI53
aI48
aI55
aI76
aI57
aI59
aI39
aI53
aI53
aI41
aI62
aI50
aI45
aI53
aI51
aI41
aI40
aI47
aI52
aI64
aI69
aI71
aI53
aI68
aI55
aI51
aI44
aI36
aI47
aI66
aI61
aI42
aI81
aI58
aI52
aI47
aI68
aI46
aI60
aI50
aI48
aI64
aI61
aI52
aI28
aI38
aI36
aI37
aI63
aI54
aI70
aI69
aI37
aI30
aI51
aI67
aI42
aI49
aI49
aI58
aI30
aI69
aI63
aI48
aI62
aI64
aI73
aI67
aI45
aI66
aI87
aI47
aI44
aI47
aI40
aI59
aI35
aI45
aI29
aI55
aI28
aI59
aI60
aI52
aI45
aI45
aI60
aI47
aI34
aI62
aI51
aI28
aI27
aI32
aI56
aI38
aI53
aI46
aI63
aI50
aI53
aI53
aI49
aI69
aI44
aI70
aI43
aI68
aI52
aI39
aI36
aI45
aI54
aI52
aI48
aI56
aI49
aI43
aI59
aI50
aI50
aI51
aI39
aI54
aI66
aI62
aI45
aI51
aI35
aI39
aI50
aI61
aI51
aI29
aI48
aI69
aI52
aI39
aI48
aI48
aI49
aI28
aI52
aI17
aI46
aI39
aI48
aI2
aI3
aI4
aI4
aI3
aI3
aI3
aI3
aI3
aI3
aI3
aI2
aI3
aI2
aI4
aI3
aI1
aI2
aI4
aI2
aI3
aI00
tp77
a(F12026.82
(lp78
I4
aI5
aI53
aI56
aI58
aI65
aI55
aI53
aI47
aI45
aI47
aI65
aI54
aI60
aI63
aI51
aI64
aI37
aI68
aI52
aI53
aI35
aI29
aI43
aI46
aI41
aI33
aI41
aI70
aI62
aI47
aI43
aI71
aI64
aI71
aI35
aI48
aI63
aI34
aI40
aI56
aI46
aI50
aI39
aI8
aI14
aI14
aI16
aI14
aI10
aI17
aI14
aI17
aI13
aI12
aI10
aI10
aI14
aI5
aI7
aI15
aI9
aI11
aI7
aI8
aI9
aI8
aI9
aI7
aI4
aI8
aI5
aI53
aI48
aI55
aI76
aI57
aI59
aI39
aI53
aI53
aI41
aI62
aI50
aI45
aI53
aI51
aI41
aI40
aI47
aI52
aI64
aI69
aI71
aI53
aI68
aI55
aI51
aI44
aI36
aI47
aI66
aI61
aI42
aI81
aI58
aI52
aI47
aI68
aI46
aI60
aI50
aI48
aI64
aI61
aI52
aI28
aI38
aI36
aI37
aI63
aI54
aI70
aI69
aI37
aI30
aI51
aI67
aI42
aI49
aI49
aI58
aI30
aI69
aI63
aI48
aI62
aI64
aI73
aI67
aI45
aI66
aI87
aI47
aI44
aI47
aI40
aI59
aI35
aI45
aI29
aI55
aI28
aI59
aI60
aI52
aI44
aI45
aI60
aI47
aI34
aI62
aI51
aI28
aI27
aI32
aI56
aI38
aI53
aI46
aI63
aI50
aI53
aI53
aI49
aI69
aI44
aI70
aI43
aI68
aI52
aI39
aI36
aI45
aI54
aI52
aI48
aI56
aI49
aI43
aI59
aI50
aI50
aI51
aI39
aI54
aI66
aI62
aI45
aI51
aI35
aI39
aI50
aI61
aI51
aI29
aI48
aI69
aI52
aI39
aI48
aI48
aI49
aI28
aI52
aI17
aI46
aI39
aI48
aI2
aI3
aI4
aI4
aI3
aI3
aI3
aI3
aI3
aI3
aI3
aI2
aI3
aI2
aI4
aI3
aI1
aI2
aI4
aI2
aI3
aI00
tp79
a(F12026.82
(lp80
I4
aI5
aI53
aI56
aI58
aI65
aI55
aI53
aI47
aI45
aI47
aI65
aI54
aI60
aI63
aI51
aI64
aI37
aI68
aI52
aI53
aI35
aI29
aI43
aI46
aI41
aI33
aI41
aI70
aI62
aI47
aI43
aI71
aI64
aI71
aI35
aI48
aI63
aI34
aI40
aI56
aI46
aI50
aI39
aI8
aI14
aI14
aI16
aI14
aI10
aI17
aI14
aI17
aI13
aI12
aI10
aI10
aI14
aI5
aI7
aI15
aI9
aI11
aI7
aI8
aI9
aI8
aI9
aI7
aI4
aI8
aI5
aI53
aI48
aI55
aI76
aI57
aI59
aI39
aI53
aI53
aI41
aI62
aI50
aI45
aI53
aI51
aI41
aI40
aI47
aI52
aI64
aI69
aI71
aI53
aI68
aI55
aI51
aI44
aI36
aI47
aI66
aI61
aI42
aI81
aI58
aI52
aI47
aI68
aI46
aI60
aI50
aI48
aI64
aI61
aI52
aI28
aI38
aI36
aI37
aI63
aI54
aI70
aI69
aI37
aI30
aI51
aI67
aI42
aI49
aI49
aI58
aI30
aI69
aI63
aI48
aI62
aI64
aI73
aI67
aI45
aI66
aI87
aI47
aI44
aI47
aI40
aI59
aI35
aI45
aI29
aI55
aI28
aI59
aI60
aI52
aI44
aI45
aI60
aI47
aI34
aI62
aI51
aI28
aI27
aI32
aI56
aI38
aI53
aI46
aI63
aI50
aI53
aI53
aI49
aI69
aI44
aI70
aI43
aI68
aI52
aI39
aI36
aI45
aI54
aI52
aI48
aI56
aI49
aI43
aI59
aI50
aI50
aI51
aI39
aI54
aI66
aI62
aI45
aI51
aI35
aI39
aI50
aI61
aI51
aI29
aI48
aI69
aI52
aI39
aI48
aI48
aI49
aI28
aI52
aI17
aI46
aI39
aI48
aI2
aI3
aI4
aI4
aI3
aI3
aI3
aI3
aI3
aI3
aI3
aI2
aI3
aI2
aI4
aI3
aI1
aI2
aI4
aI2
aI3
aI00
tp81
a(F12026.82
(lp82
I4
aI5
aI53
aI56
aI58
aI65
aI55
aI53
aI47
aI45
aI47
aI65
aI54
aI60
aI63
aI51
aI64
aI37
aI68
aI52
aI53
aI35
aI29
aI43
aI46
aI41
aI33
aI41
aI70
aI62
aI47
aI43
aI71
aI64
aI71
aI35
aI48
aI63
aI34
aI40
aI56
aI46
aI50
aI39
aI8
aI14
aI14
aI16
aI14
aI10
aI17
aI14
aI17
aI13
aI12
aI10
aI10
aI14
aI5
aI7
aI15
aI9
aI11
aI7
aI8
aI9
aI8
aI9
aI7
aI4
aI8
aI5
aI53
aI48
aI55
aI76
aI57
aI59
aI39
aI53
aI53
aI41
aI62
aI50
aI45
aI53
aI51
aI41
aI40
aI47
aI52
aI64
aI69
aI71
aI53
aI68
aI55
aI51
aI44
aI36
aI47
aI66
aI61
aI42
aI81
aI58
aI52
aI47
aI68
aI46
aI60
aI50
aI48
aI64
aI61
aI52
aI28
aI38
aI36
aI37
aI63
aI54
aI70
aI69
aI37
aI30
aI51
aI67
aI42
aI49
aI49
aI58
aI30
aI69
aI63
aI48
aI62
aI64
aI73
aI67
aI45
aI66
aI87
aI47
aI44
aI47
aI40
aI59
aI35
aI45
aI29
aI55
aI28
aI59
aI60
aI52
aI44
aI45
aI60
aI47
aI34
aI62
aI51
aI28
aI27
aI32
aI56
aI38
aI53
aI46
aI63
aI50
aI53
aI53
aI49
aI69
aI44
aI70
aI43
aI68
aI52
aI39
aI36
aI45
aI54
aI52
aI48
aI56
aI49
aI43
aI59
aI50
aI50
aI51
aI39
aI54
aI66
aI62
aI45
aI51
aI35
aI39
aI50
aI61
aI51
aI29
aI48
aI69
aI52
aI39
aI48
aI48
aI49
aI28
aI52
aI17
aI46
aI39
aI48
aI2
aI3
aI4
aI4
aI3
aI3
aI3
aI3
aI3
aI3
aI3
aI2
aI3
aI2
aI4
aI3
aI1
aI2
aI4
aI2
aI3
aI00
tp83
a(F12026.82
(lp84
I4
aI5
aI53
aI56
aI58
aI65
aI55
aI53
aI47
aI45
aI47
aI65
aI54
aI60
aI63
aI51
aI64
aI37
aI68
aI52
aI53
aI35
aI29
aI43
aI46
aI41
aI33
aI41
aI70
aI62
aI47
aI43
aI71
aI64
aI71
aI35
aI48
aI63
aI34
aI40
aI56
aI46
aI50
aI39
aI8
aI14
aI14
aI16
aI14
aI10
aI17
aI14
aI17
aI13
aI12
aI10
aI10
aI14
aI5
aI7
aI15
aI9
aI11
aI7
aI8
aI9
aI8
aI9
aI7
aI4
aI8
aI5
aI53
aI48
aI55
aI76
aI57
aI59
aI39
aI53
aI53
aI41
aI62
aI50
aI45
aI53
aI51
aI41
aI40
aI47
aI52
aI64
aI69
aI71
aI53
aI68
aI55
aI51
aI44
aI36
aI47
aI66
aI61
aI42
aI81
aI58
aI52
aI47
aI68
aI46
aI60
aI50
aI48
aI64
aI61
aI52
aI28
aI38
aI36
aI37
aI63
aI54
aI70
aI69
aI37
aI30
aI51
aI67
aI42
aI49
aI49
aI58
aI30
aI69
aI63
aI48
aI62
aI64
aI73
aI67
aI45
aI66
aI87
aI47
aI44
aI47
aI40
aI59
aI35
aI45
aI29
aI55
aI28
aI59
aI60
aI52
aI44
aI45
aI60
aI47
aI34
aI62
aI51
aI28
aI27
aI32
aI56
aI38
aI53
aI46
aI63
aI50
aI53
aI53
aI49
aI69
aI44
aI70
aI43
aI68
aI52
aI39
aI36
aI45
aI54
aI52
aI48
aI56
aI49
aI43
aI59
aI50
aI50
aI51
aI39
aI54
aI66
aI62
aI45
aI51
aI35
aI39
aI50
aI61
aI51
aI29
aI48
aI69
aI52
aI39
aI48
aI48
aI49
aI28
aI52
aI17
aI46
aI39
aI48
aI2
aI3
aI4
aI4
aI3
aI3
aI3
aI3
aI3
aI3
aI3
aI2
aI3
aI2
aI4
aI3
aI1
aI2
aI4
aI2
aI3
aI00
tp85
a(F12026.82
(lp86
I4
aI5
aI53
aI56
aI58
aI65
aI55
aI53
aI47
aI45
aI47
aI65
aI54
aI60
aI63
aI51
aI64
aI37
aI68
aI52
aI53
aI35
aI29
aI43
aI46
aI41
aI33
aI41
aI70
aI62
aI47
aI43
aI71
aI64
aI71
aI35
aI48
aI63
aI34
aI40
aI56
aI46
aI50
aI39
aI8
aI14
aI14
aI16
aI14
aI10
aI17
aI14
aI17
aI13
aI12
aI10
aI10
aI14
aI5
aI7
aI15
aI9
aI11
aI7
aI8
aI9
aI8
aI9
aI7
aI4
aI8
aI5
aI53
aI48
aI55
aI76
aI57
aI59
aI39
aI53
aI53
aI41
aI62
aI50
aI45
aI53
aI51
aI41
aI40
aI47
aI52
aI64
aI69
aI71
aI53
aI68
aI55
aI51
aI44
aI36
aI47
aI66
aI61
aI42
aI81
aI58
aI52
aI47
aI67
aI46
aI60
aI50
aI48
aI64
aI61
aI52
aI28
aI38
aI36
aI37
aI63
aI54
aI70
aI69
aI37
aI30
aI51
aI67
aI42
aI49
aI49
aI58
aI30
aI69
aI63
aI48
aI62
aI64
aI73
aI67
aI45
aI66
aI87
aI47
aI44
aI47
aI40
aI59
aI35
aI45
aI29
aI55
aI28
aI59
aI60
aI52
aI45
aI45
aI60
aI47
aI34
aI62
aI51
aI29
aI27
aI32
aI56
aI38
aI53
aI46
aI63
aI50
aI53
aI53
aI49
aI69
aI44
aI70
aI43
aI68
aI52
aI39
aI36
aI45
aI54
aI52
aI48
aI56
aI49
aI43
aI59
aI50
aI50
aI51
aI39
aI54
aI66
aI62
aI45
aI51
aI35
aI39
aI50
aI61
aI51
aI29
aI48
aI69
aI52
aI39
aI48
aI48
aI49
aI28
aI52
aI17
aI46
aI39
aI48
aI2
aI3
aI4
aI4
aI3
aI3
aI3
aI3
aI3
aI3
aI3
aI2
aI3
aI2
aI4
aI3
aI1
aI2
aI4
aI2
aI3
aI00
tp87
a(F12026.82
(lp88
I4
aI5
aI53
aI56
aI58
aI65
aI55
aI53
aI47
aI45
aI47
aI65
aI54
aI60
aI63
aI51
aI64
aI37
aI68
aI52
aI53
aI35
aI29
aI43
aI46
aI41
aI33
aI41
aI70
aI62
aI47
aI43
aI71
aI64
aI71
aI35
aI48
aI63
aI34
aI40
aI56
aI46
aI50
aI39
aI8
aI14
aI14
aI16
aI14
aI10
aI17
aI14
aI17
aI13
aI12
aI10
aI10
aI14
aI5
aI7
aI15
aI9
aI11
aI7
aI8
aI9
aI8
aI9
aI7
aI4
aI8
aI5
aI53
aI48
aI55
aI76
aI57
aI59
aI39
aI53
aI53
aI41
aI62
aI50
aI45
aI53
aI51
aI41
aI40
aI47
aI52
aI64
aI69
aI71
aI53
aI68
aI55
aI51
aI44
aI36
aI47
aI66
aI61
aI42
aI81
aI58
aI52
aI47
aI67
aI46
aI60
aI50
aI48
aI64
aI61
aI52
aI28
aI38
aI36
aI37
aI63
aI54
aI70
aI69
aI37
aI30
aI51
aI67
aI42
aI49
aI49
aI58
aI30
aI69
aI63
aI48
aI62
aI64
aI73
aI67
aI45
aI66
aI87
aI47
aI44
aI47
aI40
aI59
aI35
aI45
aI29
aI55
aI28
aI59
aI60
aI52
aI45
aI45
aI60
aI47
aI34
aI62
aI51
aI29
aI27
aI32
aI56
aI38
aI53
aI46
aI63
aI50
aI53
aI53
aI49
aI69
aI44
aI70
aI43
aI68
aI52
aI39
aI36
aI45
aI54
aI52
aI48
aI56
aI49
aI43
aI59
aI50
aI50
aI51
aI39
aI54
aI66
aI62
aI45
aI51
aI35
aI39
aI50
aI61
aI51
aI29
aI48
aI69
aI52
aI39
aI48
aI48
aI49
aI28
aI52
aI17
aI46
aI39
aI48
aI2
aI3
aI4
aI4
aI3
aI3
aI3
aI3
aI3
aI3
aI3
aI2
aI3
aI2
aI4
aI3
aI1
aI2
aI4
aI2
aI3
aI00
tp89
a(F12026.82
(lp90
I4
aI5
aI53
aI56
aI58
aI65
aI55
aI53
aI47
aI45
aI47
aI65
aI54
aI60
aI63
aI51
aI64
aI37
aI68
aI52
aI53
aI35
aI29
aI43
aI46
aI41
aI33
aI41
aI70
aI62
aI47
aI43
aI71
aI64
aI71
aI35
aI48
aI63
aI34
aI40
aI56
aI46
aI50
aI39
aI8
aI14
aI14
aI16
aI14
aI10
aI17
aI14
aI17
aI13
aI12
aI10
aI10
aI14
aI5
aI7
aI15
aI9
aI11
aI7
aI8
aI9
aI8
aI9
aI7
aI4
aI8
aI5
aI53
aI48
aI55
aI76
aI57
aI59
aI39
aI53
aI53
aI41
aI62
aI50
aI45
aI53
aI51
aI41
aI40
aI47
aI52
aI64
aI69
aI71
aI53
aI68
aI55
aI51
aI44
aI36
aI47
aI66
aI61
aI42
aI81
aI58
aI52
aI47
aI67
aI46
aI60
aI50
aI48
aI64
aI61
aI52
aI28
aI38
aI36
aI37
aI63
aI54
aI70
aI69
aI37
aI30
aI51
aI67
aI42
aI49
aI49
aI58
aI30
aI69
aI63
aI48
aI62
aI64
aI73
aI67
aI45
aI66
aI87
aI47
aI44
aI47
aI40
aI59
aI35
aI45
aI29
aI55
aI28
aI59
aI60
aI52
aI45
aI45
aI60
aI47
aI34
aI62
aI51
aI29
aI27
aI32
aI56
aI38
aI53
aI46
aI63
aI50
aI53
aI53
aI49
aI69
aI44
aI70
aI43
aI68
aI52
aI39
aI36
aI45
aI54
aI52
aI48
aI56
aI49
aI43
aI59
aI50
aI50
aI51
aI39
aI54
aI66
aI62
aI45
aI51
aI35
aI39
aI50
aI61
aI51
aI29
aI48
aI69
aI52
aI39
aI48
aI48
aI49
aI28
aI52
aI17
aI46
aI39
aI48
aI2
aI3
aI4
aI4
aI3
aI3
aI3
aI3
aI3
aI3
aI3
aI2
aI3
aI2
aI4
aI3
aI1
aI2
aI4
aI2
aI3
aI00
tp91
a(F12026.82
(lp92
I4
aI5
aI53
aI56
aI58
aI65
aI55
aI53
aI47
aI45
aI47
aI65
aI54
aI60
aI63
aI51
aI64
aI37
aI68
aI52
aI53
aI35
aI29
aI43
aI46
aI41
aI33
aI41
aI70
aI62
aI47
aI43
aI71
aI64
aI71
aI35
aI48
aI63
aI34
aI40
aI56
aI46
aI50
aI39
aI8
aI14
aI14
aI16
aI14
aI10
aI17
aI14
aI17
aI13
aI12
aI10
aI10
aI14
aI5
aI7
aI15
aI9
aI11
aI7
aI8
aI9
aI8
aI9
aI7
aI4
aI8
aI5
aI53
aI48
aI55
aI76
aI57
aI59
aI39
aI53
aI53
aI41
aI62
aI50
aI45
aI53
aI51
aI41
aI40
aI47
aI52
aI64
aI69
aI71
aI53
aI68
aI55
aI51
aI44
aI36
aI47
aI66
aI61
aI42
aI81
aI58
aI52
aI47
aI67
aI46
aI60
aI50
aI48
aI64
aI61
aI52
aI28
aI38
aI36
aI37
aI63
aI54
aI70
aI69
aI37
aI30
aI51
aI67
aI42
aI49
aI49
aI58
aI30
aI69
aI63
aI48
aI62
aI64
aI73
aI67
aI45
aI66
aI87
aI47
aI44
aI47
aI40
aI59
aI35
aI45
aI29
aI55
aI28
aI59
aI60
aI52
aI44
aI45
aI60
aI47
aI34
aI62
aI51
aI29
aI27
aI32
aI56
aI38
aI53
aI46
aI63
aI50
aI53
aI53
aI49
aI69
aI44
aI70
aI43
aI68
aI52
aI39
aI36
aI45
aI54
aI52
aI48
aI56
aI49
aI43
aI59
aI50
aI50
aI51
aI39
aI54
aI66
aI62
aI45
aI51
aI35
aI39
aI50
aI61
aI51
aI29
aI48
aI69
aI52
aI39
aI48
aI48
aI49
aI28
aI52
aI17
aI46
aI39
aI48
aI2
aI3
aI4
aI4
aI3
aI3
aI3
aI3
aI3
aI3
aI3
aI2
aI3
aI2
aI4
aI3
aI1
aI2
aI4
aI2
aI3
aI00
tp93
a(F12026.82
(lp94
I4
aI5
aI53
aI56
aI58
aI65
aI55
aI53
aI47
aI45
aI47
aI65
aI54
aI60
aI63
aI51
aI64
aI37
aI68
aI52
aI53
aI35
aI29
aI43
aI46
aI41
aI33
aI41
aI70
aI62
aI47
aI43
aI71
aI64
aI71
aI35
aI48
aI63
aI34
aI40
aI56
aI46
aI50
aI39
aI8
aI14
aI14
aI16
aI14
aI10
aI17
aI14
aI17
aI13
aI12
aI10
aI10
aI14
aI5
aI7
aI15
aI9
aI11
aI7
aI8
aI9
aI8
aI9
aI7
aI4
aI8
aI5
aI53
aI48
aI55
aI76
aI57
aI59
aI39
aI53
aI53
aI41
aI62
aI50
aI45
aI53
aI51
aI41
aI40
aI47
aI52
aI64
aI69
aI71
aI53
aI68
aI55
aI51
aI44
aI36
aI47
aI66
aI61
aI42
aI81
aI58
aI52
aI47
aI67
aI46
aI60
aI50
aI48
aI64
aI61
aI52
aI28
aI38
aI36
aI37
aI63
aI54
aI70
aI69
aI37
aI30
aI51
aI67
aI42
aI49
aI49
aI58
aI30
aI69
aI63
aI48
aI62
aI64
aI73
aI67
aI45
aI66
aI87
aI47
aI44
aI47
aI40
aI59
aI35
aI44
aI29
aI55
aI28
aI59
aI60
aI52
aI44
aI45
aI60
aI47
aI34
aI62
aI51
aI29
aI27
aI32
aI56
aI38
aI53
aI46
aI63
aI50
aI53
aI53
aI49
aI69
aI44
aI70
aI43
aI68
aI52
aI39
aI35
aI45
aI54
aI52
aI48
aI56
aI49
aI43
aI59
aI50
aI50
aI51
aI39
aI54
aI66
aI62
aI45
aI51
aI35
aI39
aI50
aI61
aI51
aI29
aI48
aI69
aI52
aI39
aI48
aI48
aI49
aI28
aI52
aI17
aI46
aI39
aI48
aI2
aI3
aI4
aI4
aI3
aI3
aI3
aI3
aI3
aI3
aI3
aI2
aI3
aI2
aI4
aI3
aI1
aI2
aI4
aI2
aI3
aI00
tp95
a(F12026.82
(lp96
I4
aI5
aI53
aI56
aI58
aI65
aI55
aI53
aI47
aI45
aI47
aI65
aI54
aI60
aI63
aI51
aI64
aI37
aI68
aI52
aI53
aI35
aI29
aI43
aI46
aI41
aI33
aI41
aI70
aI62
aI47
aI43
aI71
aI64
aI71
aI35
aI48
aI63
aI34
aI40
aI56
aI46
aI50
aI38
aI8
aI15
aI14
aI16
aI14
aI10
aI17
aI14
aI17
aI13
aI12
aI10
aI10
aI14
aI4
aI7
aI15
aI9
aI11
aI7
aI8
aI9
aI8
aI9
aI7
aI4
aI8
aI5
aI53
aI48
aI55
aI76
aI57
aI59
aI39
aI53
aI53
aI41
aI62
aI49
aI45
aI53
aI51
aI41
aI40
aI47
aI52
aI64
aI69
aI71
aI53
aI68
aI55
aI52
aI44
aI35
aI47
aI66
aI61
aI42
aI81
aI58
aI52
aI47
aI68
aI46
aI60
aI50
aI48
aI64
aI61
aI52
aI28
aI38
aI36
aI37
aI63
aI54
aI70
aI69
aI37
aI30
aI51
aI67
aI42
aI49
aI49
aI58
aI30
aI69
aI63
aI48
aI62
aI64
aI73
aI67
aI45
aI66
aI87
aI47
aI44
aI47
aI40
aI59
aI35
aI45
aI29
aI55
aI28
aI59
aI60
aI52
aI45
aI45
aI60
aI47
aI34
aI62
aI51
aI29
aI27
aI32
aI56
aI38
aI53
aI46
aI63
aI50
aI53
aI53
aI49
aI69
aI44
aI70
aI43
aI68
aI52
aI39
aI36
aI45
aI54
aI52
aI48
aI56
aI49
aI43
aI59
aI50
aI50
aI51
aI39
aI54
aI66
aI62
aI45
aI51
aI35
aI39
aI50
aI61
aI51
aI29
aI48
aI69
aI52
aI39
aI48
aI48
aI49
aI28
aI52
aI17
aI46
aI39
aI48
aI2
aI3
aI4
aI4
aI3
aI3
aI3
aI3
aI3
aI3
aI3
aI2
aI3
aI2
aI4
aI3
aI1
aI2
aI4
aI2
aI3
aI00
tp97
a(F12026.82
(lp98
I4
aI5
aI53
aI56
aI58
aI65
aI55
aI53
aI47
aI45
aI47
aI65
aI54
aI60
aI63
aI51
aI64
aI37
aI68
aI52
aI53
aI35
aI29
aI43
aI46
aI41
aI33
aI41
aI70
aI62
aI47
aI43
aI71
aI64
aI71
aI35
aI48
aI63
aI34
aI40
aI56
aI46
aI50
aI38
aI8
aI15
aI14
aI16
aI14
aI10
aI17
aI14
aI17
aI13
aI12
aI10
aI10
aI14
aI4
aI7
aI15
aI9
aI11
aI7
aI8
aI9
aI8
aI9
aI7
aI4
aI8
aI5
aI53
aI48
aI55
aI76
aI57
aI59
aI39
aI53
aI53
aI41
aI62
aI49
aI45
aI53
aI51
aI41
aI40
aI47
aI52
aI64
aI69
aI71
aI53
aI68
aI55
aI52
aI44
aI35
aI47
aI66
aI61
aI42
aI81
aI58
aI52
aI47
aI68
aI46
aI60
aI50
aI48
aI64
aI61
aI52
aI28
aI38
aI36
aI37
aI63
aI54
aI70
aI69
aI37
aI30
aI51
aI67
aI42
aI49
aI49
aI58
aI30
aI69
aI63
aI48
aI62
aI64
aI73
aI67
aI45
aI66
aI87
aI47
aI44
aI47
aI40
aI59
aI35
aI45
aI29
aI55
aI28
aI59
aI60
aI52
aI45
aI45
aI60
aI47
aI34
aI62
aI51
aI29
aI27
aI32
aI56
aI38
aI53
aI46
aI63
aI50
aI53
aI53
aI49
aI69
aI44
aI70
aI43
aI68
aI52
aI39
aI36
aI45
aI54
aI52
aI48
aI56
aI49
aI43
aI59
aI50
aI50
aI51
aI39
aI54
aI66
aI62
aI45
aI51
aI35
aI39
aI50
aI61
aI51
aI29
aI48
aI69
aI52
aI39
aI48
aI48
aI49
aI28
aI52
aI17
aI46
aI39
aI48
aI2
aI3
aI4
aI4
aI3
aI3
aI3
aI3
aI3
aI3
aI3
aI2
aI3
aI2
aI4
aI3
aI1
aI2
aI4
aI2
aI3
aI00
tp99
a(F12026.82
(lp100
I4
aI5
aI53
aI56
aI58
aI65
aI55
aI53
aI47
aI45
aI47
aI65
aI54
aI60
aI63
aI51
aI64
aI37
aI68
aI52
aI53
aI35
aI29
aI43
aI46
aI41
aI33
aI41
aI70
aI62
aI47
aI43
aI71
aI64
aI71
aI35
aI48
aI63
aI34
aI40
aI56
aI46
aI50
aI38
aI8
aI15
aI14
aI16
aI14
aI10
aI17
aI14
aI17
aI13
aI12
aI10
aI10
aI14
aI4
aI7
aI15
aI9
aI11
aI7
aI8
aI9
aI8
aI9
aI7
aI4
aI8
aI5
aI53
aI48
aI55
aI76
aI57
aI59
aI39
aI53
aI53
aI41
aI62
aI49
aI45
aI53
aI51
aI41
aI40
aI47
aI52
aI64
aI69
aI71
aI53
aI68
aI55
aI52
aI44
aI35
aI47
aI66
aI61
aI42
aI81
aI58
aI52
aI47
aI68
aI46
aI60
aI50
aI48
aI64
aI61
aI52
aI28
aI38
aI36
aI37
aI63
aI54
aI70
aI69
aI37
aI30
aI51
aI67
aI42
aI49
aI49
aI58
aI30
aI69
aI63
aI48
aI62
aI64
aI73
aI67
aI45
aI66
aI87
aI47
aI44
aI47
aI40
aI59
aI35
aI45
aI29
aI55
aI28
aI59
aI60
aI52
aI45
aI45
aI60
aI47
aI34
aI62
aI51
aI28
aI27
aI32
aI56
aI38
aI53
aI46
aI63
aI50
aI53
aI53
aI49
aI69
aI44
aI70
aI43
aI68
aI52
aI39
aI36
aI45
aI54
aI52
aI48
aI56
aI49
aI43
aI59
aI50
aI50
aI51
aI39
aI54
aI66
aI62
aI45
aI51
aI35
aI39
aI50
aI61
aI51
aI29
aI48
aI69
aI52
aI39
aI48
aI48
aI49
aI28
aI52
aI17
aI46
aI39
aI48
aI2
aI3
aI4
aI4
aI3
aI3
aI3
aI3
aI3
aI3
aI3
aI2
aI3
aI2
aI4
aI3
aI1
aI2
aI4
aI2
aI3
aI00
tp101
a(F12026.82
(lp102
I4
aI5
aI53
aI56
aI58
aI65
aI55
aI53
aI47
aI45
aI47
aI65
aI54
aI60
aI63
aI51
aI64
aI37
aI68
aI52
aI53
aI35
aI29
aI43
aI46
aI41
aI33
aI41
aI70
aI62
aI47
aI43
aI71
aI64
aI71
aI35
aI48
aI63
aI34
aI40
aI56
aI46
aI50
aI38
aI8
aI15
aI14
aI16
aI14
aI10
aI17
aI14
aI17
aI13
aI12
aI10
aI10
aI14
aI4
aI7
aI15
aI9
aI11
aI7
aI8
aI9
aI8
aI9
aI7
aI4
aI8
aI5
aI53
aI48
aI55
aI76
aI57
aI59
aI39
aI53
aI53
aI41
aI62
aI49
aI45
aI53
aI51
aI41
aI40
aI47
aI52
aI64
aI69
aI71
aI53
aI68
aI55
aI52
aI44
aI35
aI47
aI66
aI61
aI42
aI81
aI58
aI52
aI47
aI68
aI46
aI60
aI50
aI48
aI64
aI61
aI52
aI28
aI38
aI36
aI37
aI63
aI54
aI70
aI69
aI37
aI30
aI51
aI67
aI42
aI49
aI49
aI58
aI30
aI69
aI63
aI48
aI62
aI64
aI73
aI67
aI45
aI66
aI87
aI47
aI44
aI47
aI40
aI59
aI35
aI45
aI29
aI55
aI28
aI59
aI60
aI52
aI45
aI45
aI60
aI47
aI34
aI62
aI51
aI28
aI27
aI32
aI56
aI38
aI53
aI46
aI63
aI50
aI53
aI53
aI49
aI69
aI44
aI70
aI43
aI68
aI52
aI39
aI36
aI45
aI54
aI52
aI48
aI56
aI49
aI43
aI59
aI50
aI50
aI51
aI39
aI54
aI66
aI62
aI45
aI51
aI35
aI39
aI50
aI61
aI51
aI29
aI48
aI69
aI52
aI39
aI48
aI48
aI49
aI28
aI52
aI17
aI46
aI39
aI48
aI2
aI3
aI4
aI4
aI3
aI3
aI3
aI3
aI3
aI3
aI3
aI2
aI3
aI2
aI4
aI3
aI1
aI2
aI4
aI2
aI3
aI00
tp103
a(F12026.82
(lp104
I4
aI5
aI53
aI56
aI58
aI65
aI55
aI53
aI47
aI45
aI47
aI65
aI54
aI60
aI63
aI51
aI64
aI37
aI68
aI52
aI53
aI35
aI29
aI43
aI46
aI41
aI33
aI41
aI70
aI62
aI47
aI43
aI71
aI64
aI71
aI35
aI48
aI63
aI34
aI40
aI56
aI46
aI50
aI38
aI8
aI15
aI14
aI16
aI14
aI10
aI17
aI14
aI17
aI13
aI12
aI10
aI10
aI14
aI4
aI7
aI15
aI9
aI11
aI7
aI8
aI9
aI8
aI9
aI7
aI4
aI8
aI5
aI53
aI48
aI55
aI76
aI57
aI59
aI39
aI53
aI53
aI41
aI62
aI49
aI45
aI53
aI51
aI41
aI40
aI47
aI52
aI64
aI69
aI71
aI53
aI68
aI55
aI52
aI44
aI35
aI47
aI66
aI61
aI42
aI81
aI58
aI52
aI47
aI68
aI46
aI60
aI50
aI48
aI64
aI61
aI52
aI28
aI38
aI36
aI37
aI63
aI54
aI70
aI69
aI37
aI30
aI51
aI67
aI42
aI49
aI49
aI58
aI30
aI69
aI63
aI48
aI62
aI64
aI73
aI67
aI45
aI66
aI87
aI47
aI44
aI47
aI40
aI59
aI35
aI45
aI29
aI55
aI28
aI59
aI60
aI52
aI45
aI45
aI60
aI47
aI34
aI62
aI51
aI28
aI27
aI32
aI56
aI38
aI53
aI46
aI63
aI50
aI53
aI53
aI49
aI69
aI44
aI70
aI43
aI68
aI52
aI39
aI36
aI45
aI54
aI52
aI48
aI56
aI49
aI43
aI59
aI50
aI50
aI51
aI39
aI54
aI66
aI62
aI45
aI51
aI35
aI39
aI50
aI61
aI51
aI29
aI48
aI69
aI52
aI39
aI48
aI48
aI49
aI28
aI52
aI17
aI46
aI39
aI48
aI2
aI3
aI4
aI4
aI3
aI3
aI3
aI3
aI3
aI3
aI3
aI2
aI3
aI2
aI4
aI3
aI1
aI2
aI4
aI2
aI3
aI00
tp105
a(F12026.82
(lp106
I4
aI5
aI53
aI56
aI58
aI65
aI55
aI53
aI47
aI45
aI47
aI65
aI54
aI60
aI63
aI51
aI64
aI37
aI68
aI52
aI53
aI35
aI29
aI43
aI46
aI41
aI33
aI41
aI70
aI62
aI47
aI43
aI71
aI64
aI71
aI35
aI48
aI63
aI34
aI40
aI56
aI46
aI50
aI38
aI8
aI15
aI14
aI16
aI14
aI10
aI17
aI14
aI17
aI13
aI12
aI10
aI10
aI14
aI4
aI7
aI15
aI9
aI11
aI7
aI8
aI9
aI8
aI9
aI7
aI4
aI8
aI5
aI53
aI48
aI55
aI76
aI57
aI59
aI39
aI53
aI53
aI41
aI62
aI49
aI45
aI53
aI51
aI41
aI40
aI47
aI52
aI64
aI69
aI71
aI53
aI68
aI55
aI52
aI44
aI35
aI47
aI66
aI61
aI42
aI81
aI58
aI52
aI47
aI68
aI46
aI60
aI50
aI48
aI64
aI61
aI52
aI28
aI38
aI36
aI37
aI63
aI54
aI70
aI69
aI37
aI30
aI51
aI67
aI42
aI49
aI49
aI58
aI30
aI69
aI63
aI48
aI62
aI64
aI73
aI67
aI45
aI66
aI87
aI47
aI44
aI47
aI40
aI59
aI35
aI45
aI29
aI55
aI28
aI59
aI60
aI52
aI45
aI45
aI60
aI47
aI34
aI62
aI51
aI28
aI27
aI32
aI56
aI38
aI53
aI46
aI63
aI50
aI53
aI53
aI49
aI69
aI44
aI70
aI43
aI68
aI52
aI39
aI36
aI45
aI54
aI52
aI48
aI56
aI49
aI43
aI59
aI50
aI50
aI51
aI39
aI54
aI66
aI62
aI45
aI51
aI35
aI39
aI50
aI61
aI51
aI29
aI48
aI69
aI52
aI39
aI48
aI48
aI49
aI28
aI52
aI17
aI46
aI39
aI48
aI2
aI3
aI4
aI4
aI3
aI3
aI3
aI3
aI3
aI3
aI3
aI2
aI3
aI2
aI4
aI3
aI1
aI2
aI4
aI2
aI3
aI00
tp107
a(F12026.82
(lp108
I4
aI5
aI53
aI56
aI58
aI65
aI55
aI53
aI47
aI45
aI47
aI65
aI54
aI60
aI63
aI51
aI64
aI37
aI68
aI52
aI53
aI35
aI29
aI43
aI46
aI41
aI33
aI41
aI70
aI62
aI47
aI43
aI71
aI64
aI71
aI35
aI48
aI63
aI34
aI40
aI56
aI46
aI50
aI38
aI8
aI15
aI14
aI16
aI14
aI10
aI17
aI14
aI17
aI13
aI12
aI10
aI10
aI14
aI4
aI7
aI15
aI9
aI11
aI7
aI8
aI9
aI8
aI9
aI7
aI4
aI8
aI5
aI53
aI48
aI55
aI76
aI57
aI59
aI39
aI53
aI53
aI41
aI62
aI49
aI45
aI53
aI51
aI41
aI40
aI47
aI52
aI64
aI69
aI71
aI53
aI68
aI55
aI52
aI44
aI35
aI47
aI66
aI61
aI42
aI81
aI58
aI52
aI47
aI68
aI46
aI60
aI50
aI48
aI64
aI61
aI52
aI28
aI38
aI36
aI37
aI63
aI54
aI70
aI69
aI37
aI30
aI51
aI67
aI42
aI49
aI49
aI58
aI30
aI69
aI63
aI48
aI62
aI64
aI73
aI67
aI45
aI66
aI87
aI47
aI44
aI47
aI40
aI59
aI35
aI45
aI29
aI55
aI28
aI59
aI60
aI52
aI45
aI45
aI60
aI47
aI34
aI62
aI51
aI28
aI27
aI32
aI56
aI38
aI53
aI46
aI63
aI50
aI53
aI53
aI49
aI69
aI44
aI70
aI43
aI68
aI52
aI39
aI36
aI45
aI54
aI52
aI48
aI56
aI49
aI43
aI59
aI50
aI50
aI51
aI39
aI54
aI66
aI62
aI45
aI51
aI35
aI39
aI50
aI61
aI51
aI29
aI48
aI69
aI52
aI39
aI48
aI48
aI49
aI28
aI52
aI17
aI46
aI39
aI48
aI2
aI3
aI4
aI4
aI3
aI3
aI3
aI3
aI3
aI3
aI3
aI2
aI3
aI2
aI4
aI3
aI1
aI2
aI4
aI2
aI3
aI00
tp109
a(F12026.82
(lp110
I4
aI5
aI53
aI56
aI58
aI65
aI55
aI53
aI47
aI45
aI47
aI65
aI54
aI60
aI63
aI51
aI64
aI37
aI68
aI52
aI53
aI35
aI29
aI43
aI46
aI41
aI33
aI41
aI70
aI62
aI47
aI43
aI71
aI64
aI71
aI35
aI48
aI63
aI34
aI40
aI56
aI46
aI50
aI38
aI8
aI15
aI14
aI16
aI14
aI10
aI17
aI14
aI17
aI13
aI12
aI10
aI10
aI14
aI4
aI7
aI15
aI9
aI11
aI7
aI8
aI9
aI8
aI9
aI7
aI4
aI8
aI5
aI53
aI48
aI55
aI76
aI57
aI59
aI39
aI53
aI53
aI41
aI62
aI49
aI45
aI53
aI51
aI41
aI40
aI47
aI52
aI64
aI69
aI71
aI53
aI68
aI55
aI52
aI44
aI35
aI47
aI66
aI61
aI42
aI81
aI58
aI52
aI47
aI68
aI46
aI60
aI50
aI48
aI64
aI61
aI52
aI28
aI38
aI36
aI37
aI63
aI54
aI70
aI69
aI37
aI30
aI51
aI67
aI42
aI49
aI49
aI58
aI30
aI69
aI63
aI48
aI62
aI64
aI73
aI67
aI45
aI66
aI87
aI47
aI44
aI47
aI40
aI59
aI35
aI45
aI29
aI55
aI28
aI59
aI60
aI52
aI45
aI45
aI60
aI47
aI34
aI62
aI51
aI28
aI27
aI32
aI56
aI38
aI53
aI46
aI63
aI50
aI53
aI53
aI49
aI69
aI44
aI70
aI43
aI68
aI52
aI39
aI36
aI45
aI54
aI52
aI48
aI56
aI49
aI43
aI59
aI50
aI50
aI51
aI39
aI54
aI66
aI62
aI45
aI51
aI35
aI39
aI50
aI61
aI51
aI29
aI48
aI69
aI52
aI39
aI48
aI48
aI49
aI28
aI52
aI17
aI46
aI39
aI48
aI2
aI3
aI4
aI4
aI3
aI3
aI3
aI3
aI3
aI3
aI3
aI2
aI3
aI2
aI4
aI3
aI1
aI2
aI4
aI2
aI3
aI00
tp111
a(F12026.82
(lp112
I4
aI5
aI53
aI56
aI58
aI65
aI55
aI53
aI47
aI45
aI47
aI65
aI54
aI60
aI63
aI51
aI64
aI37
aI68
aI52
aI53
aI35
aI29
aI43
aI46
aI41
aI33
aI41
aI70
aI62
aI47
aI43
aI71
aI64
aI71
aI35
aI48
aI63
aI34
aI40
aI56
aI46
aI50
aI38
aI8
aI15
aI14
aI16
aI14
aI10
aI17
aI14
aI17
aI13
aI12
aI10
aI10
aI14
aI4
aI7
aI15
aI9
aI11
aI7
aI8
aI9
aI8
aI9
aI7
aI4
aI8
aI5
aI53
aI48
aI55
aI76
aI57
aI59
aI39
aI53
aI53
aI41
aI62
aI49
aI45
aI53
aI51
aI41
aI40
aI47
aI52
aI64
aI69
aI71
aI53
aI68
aI55
aI52
aI44
aI35
aI47
aI66
aI61
aI42
aI81
aI58
aI52
aI47
aI67
aI46
aI60
aI50
aI48
aI64
aI61
aI52
aI28
aI38
aI36
aI37
aI63
aI54
aI70
aI69
aI37
aI30
aI51
aI67
aI42
aI49
aI49
aI58
aI30
aI69
aI63
aI48
aI62
aI64
aI73
aI67
aI45
aI66
aI87
aI47
aI44
aI47
aI40
aI59
aI35
aI45
aI29
aI55
aI28
aI59
aI60
aI52
aI45
aI45
aI60
aI47
aI34
aI62
aI51
aI29
aI27
aI32
aI56
aI38
aI53
aI46
aI63
aI50
aI53
aI53
aI49
aI69
aI44
aI70
aI43
aI68
aI52
aI39
aI36
aI45
aI54
aI52
aI48
aI56
aI49
aI43
aI59
aI50
aI50
aI51
aI39
aI54
aI66
aI62
aI45
aI51
aI35
aI39
aI50
aI61
aI51
aI29
aI48
aI69
aI52
aI39
aI48
aI48
aI49
aI28
aI52
aI17
aI46
aI39
aI48
aI2
aI3
aI4
aI4
aI3
aI3
aI3
aI3
aI3
aI3
aI3
aI2
aI3
aI2
aI4
aI3
aI1
aI2
aI4
aI2
aI3
aI00
tp113
a(F12026.82
(lp114
I4
aI5
aI53
aI56
aI58
aI65
aI55
aI53
aI47
aI45
aI47
aI65
aI54
aI60
aI63
aI51
aI64
aI37
aI68
aI52
aI53
aI35
aI29
aI43
aI46
aI41
aI33
aI41
aI70
aI62
aI47
aI43
aI71
aI64
aI71
aI35
aI48
aI63
aI34
aI40
aI56
aI46
aI50
aI38
aI8
aI14
aI14
aI16
aI14
aI10
aI17
aI14
aI17
aI13
aI12
aI10
aI10
aI14
aI5
aI7
aI15
aI9
aI11
aI7
aI8
aI9
aI8
aI9
aI7
aI4
aI8
aI5
aI53
aI48
aI55
aI76
aI57
aI59
aI39
aI53
aI53
aI41
aI62
aI50
aI45
aI53
aI51
aI41
aI40
aI47
aI52
aI64
aI69
aI71
aI53
aI68
aI55
aI51
aI44
aI36
aI47
aI66
aI61
aI42
aI81
aI58
aI52
aI47
aI68
aI46
aI60
aI50
aI48
aI63
aI61
aI52
aI28
aI38
aI36
aI37
aI63
aI54
aI70
aI69
aI37
aI30
aI51
aI67
aI42
aI49
aI49
aI58
aI30
aI69
aI63
aI48
aI62
aI64
aI73
aI67
aI45
aI66
aI87
aI47
aI44
aI47
aI40
aI59
aI35
aI45
aI29
aI55
aI28
aI59
aI60
aI52
aI45
aI45
aI60
aI47
aI34
aI62
aI51
aI29
aI27
aI32
aI56
aI38
aI53
aI46
aI63
aI50
aI53
aI53
aI49
aI69
aI44
aI70
aI43
aI68
aI52
aI39
aI36
aI45
aI54
aI52
aI48
aI56
aI49
aI43
aI59
aI50
aI50
aI51
aI39
aI54
aI66
aI62
aI45
aI51
aI35
aI39
aI50
aI61
aI51
aI29
aI48
aI69
aI52
aI39
aI48
aI48
aI49
aI28
aI52
aI17
aI46
aI39
aI48
aI2
aI3
aI4
aI4
aI3
aI3
aI3
aI3
aI3
aI3
aI3
aI2
aI3
aI2
aI4
aI3
aI1
aI2
aI4
aI2
aI3
aI00
tp115
a(F12026.82
(lp116
I4
aI5
aI53
aI56
aI58
aI65
aI55
aI53
aI47
aI45
aI47
aI65
aI54
aI60
aI63
aI51
aI64
aI37
aI68
aI52
aI53
aI35
aI29
aI43
aI46
aI41
aI33
aI41
aI70
aI62
aI47
aI43
aI71
aI64
aI71
aI35
aI48
aI63
aI34
aI40
aI56
aI46
aI50
aI38
aI8
aI14
aI14
aI16
aI14
aI10
aI17
aI14
aI17
aI13
aI12
aI10
aI10
aI14
aI5
aI7
aI15
aI9
aI11
aI7
aI8
aI9
aI8
aI9
aI7
aI4
aI8
aI5
aI53
aI48
aI55
aI76
aI57
aI59
aI39
aI53
aI53
aI41
aI62
aI50
aI45
aI53
aI51
aI41
aI40
aI47
aI52
aI64
aI69
aI71
aI53
aI68
aI55
aI51
aI44
aI36
aI47
aI66
aI61
aI42
aI81
aI58
aI52
aI47
aI68
aI46
aI60
aI50
aI48
aI63
aI61
aI52
aI28
aI38
aI36
aI37
aI63
aI54
aI70
aI69
aI37
aI30
aI51
aI67
aI42
aI49
aI49
aI58
aI30
aI69
aI63
aI48
aI62
aI64
aI73
aI67
aI45
aI66
aI87
aI47
aI44
aI47
aI40
aI59
aI35
aI45
aI29
aI55
aI28
aI59
aI60
aI52
aI45
aI45
aI60
aI47
aI34
aI62
aI51
aI28
aI27
aI32
aI56
aI38
aI53
aI46
aI63
aI50
aI53
aI53
aI49
aI69
aI44
aI70
aI43
aI68
aI52
aI39
aI36
aI45
aI54
aI52
aI48
aI56
aI49
aI43
aI59
aI50
aI50
aI51
aI39
aI54
aI66
aI62
aI45
aI51
aI35
aI39
aI50
aI61
aI51
aI29
aI48
aI69
aI52
aI39
aI48
aI48
aI49
aI28
aI52
aI17
aI46
aI39
aI48
aI2
aI3
aI4
aI4
aI3
aI3
aI3
aI3
aI3
aI3
aI3
aI2
aI3
aI2
aI4
aI3
aI1
aI2
aI4
aI2
aI3
aI00
tp117
a(F12026.82
(lp118
I4
aI5
aI53
aI56
aI58
aI65
aI55
aI53
aI47
aI45
aI47
aI65
aI54
aI60
aI63
aI51
aI64
aI37
aI68
aI52
aI53
aI35
aI29
aI43
aI46
aI41
aI33
aI41
aI69
aI62
aI47
aI43
aI71
aI64
aI71
aI35
aI48
aI63
aI34
aI40
aI56
aI46
aI50
aI38
aI8
aI15
aI14
aI16
aI14
aI10
aI17
aI14
aI17
aI13
aI12
aI10
aI10
aI14
aI4
aI7
aI15
aI9
aI11
aI7
aI8
aI9
aI8
aI9
aI7
aI4
aI8
aI5
aI53
aI48
aI55
aI76
aI57
aI59
aI39
aI53
aI53
aI41
aI62
aI49
aI45
aI53
aI51
aI41
aI40
aI47
aI52
aI64
aI69
aI71
aI53
aI68
aI55
aI52
aI44
aI35
aI47
aI66
aI61
aI42
aI81
aI58
aI52
aI47
aI69
aI46
aI60
aI50
aI48
aI64
aI61
aI52
aI28
aI38
aI36
aI37
aI63
aI54
aI70
aI69
aI37
aI30
aI51
aI67
aI42
aI49
aI49
aI58
aI30
aI69
aI63
aI48
aI62
aI64
aI73
aI67
aI45
aI66
aI87
aI47
aI44
aI47
aI40
aI59
aI35
aI46
aI29
aI55
aI28
aI59
aI60
aI52
aI45
aI45
aI60
aI47
aI34
aI62
aI51
aI28
aI27
aI32
aI56
aI38
aI53
aI46
aI63
aI50
aI53
aI53
aI49
aI69
aI44
aI70
aI43
aI68
aI52
aI39
aI37
aI45
aI54
aI52
aI48
aI56
aI49
aI43
aI59
aI50
aI50
aI51
aI39
aI54
aI66
aI62
aI45
aI51
aI35
aI39
aI50
aI61
aI51
aI29
aI48
aI69
aI52
aI39
aI48
aI48
aI49
aI28
aI52
aI17
aI46
aI39
aI48
aI2
aI3
aI4
aI4
aI3
aI3
aI3
aI3
aI3
aI3
aI3
aI2
aI3
aI2
aI4
aI3
aI1
aI2
aI4
aI2
aI3
aI00
tp119
a(F12026.82
(lp120
I4
aI5
aI53
aI56
aI58
aI65
aI55
aI53
aI47
aI45
aI47
aI65
aI54
aI60
aI63
aI51
aI64
aI37
aI68
aI52
aI53
aI35
aI29
aI43
aI46
aI41
aI33
aI41
aI69
aI62
aI47
aI43
aI71
aI64
aI71
aI35
aI48
aI63
aI34
aI40
aI56
aI46
aI50
aI38
aI8
aI15
aI14
aI16
aI14
aI10
aI17
aI14
aI17
aI13
aI12
aI10
aI10
aI14
aI4
aI7
aI15
aI9
aI11
aI7
aI8
aI9
aI8
aI9
aI7
aI4
aI8
aI5
aI53
aI48
aI55
aI76
aI57
aI59
aI39
aI53
aI53
aI41
aI62
aI49
aI45
aI53
aI51
aI41
aI40
aI47
aI52
aI64
aI69
aI71
aI53
aI68
aI55
aI52
aI44
aI35
aI47
aI66
aI61
aI42
aI81
aI58
aI52
aI47
aI69
aI46
aI60
aI50
aI48
aI64
aI61
aI52
aI28
aI38
aI36
aI37
aI63
aI54
aI70
aI69
aI37
aI30
aI51
aI67
aI42
aI49
aI49
aI58
aI30
aI69
aI63
aI48
aI62
aI64
aI73
aI67
aI45
aI66
aI87
aI47
aI44
aI47
aI40
aI59
aI35
aI46
aI29
aI55
aI28
aI59
aI60
aI52
aI45
aI45
aI60
aI47
aI34
aI62
aI51
aI27
aI27
aI32
aI56
aI38
aI53
aI46
aI63
aI50
aI53
aI53
aI49
aI69
aI44
aI70
aI43
aI68
aI52
aI39
aI37
aI45
aI54
aI52
aI48
aI56
aI49
aI43
aI59
aI50
aI50
aI51
aI39
aI54
aI66
aI62
aI45
aI51
aI35
aI39
aI50
aI61
aI51
aI29
aI48
aI69
aI52
aI39
aI48
aI48
aI49
aI28
aI52
aI17
aI46
aI39
aI48
aI2
aI3
aI4
aI4
aI3
aI3
aI3
aI3
aI3
aI3
aI3
aI2
aI3
aI2
aI4
aI3
aI1
aI2
aI4
aI2
aI3
aI00
tp121
a(F12026.82
(lp122
I4
aI5
aI53
aI56
aI58
aI65
aI55
aI53
aI47
aI45
aI47
aI65
aI54
aI60
aI63
aI51
aI64
aI37
aI68
aI52
aI53
aI35
aI29
aI43
aI46
aI41
aI33
aI41
aI69
aI62
aI47
aI43
aI71
aI64
aI71
aI35
aI48
aI63
aI34
aI40
aI56
aI46
aI50
aI38
aI8
aI15
aI14
aI16
aI14
aI10
aI17
aI14
aI17
aI13
aI12
aI10
aI10
aI14
aI4
aI7
aI15
aI9
aI11
aI7
aI8
aI9
aI8
aI9
aI7
aI4
aI8
aI5
aI53
aI48
aI55
aI76
aI57
aI59
aI39
aI53
aI53
aI41
aI62
aI49
aI45
aI53
aI51
aI41
aI40
aI47
aI52
aI64
aI69
aI71
aI53
aI68
aI55
aI52
aI44
aI35
aI47
aI66
aI61
aI42
aI81
aI58
aI52
aI47
aI69
aI46
aI60
aI50
aI48
aI64
aI61
aI52
aI28
aI38
aI36
aI37
aI63
aI54
aI70
aI69
aI37
aI30
aI51
aI67
aI42
aI49
aI49
aI58
aI30
aI69
aI63
aI48
aI62
aI64
aI73
aI67
aI45
aI66
aI87
aI47
aI44
aI47
aI40
aI59
aI35
aI46
aI29
aI55
aI28
aI59
aI60
aI52
aI45
aI45
aI60
aI47
aI34
aI62
aI51
aI27
aI27
aI32
aI56
aI38
aI53
aI46
aI63
aI50
aI53
aI53
aI49
aI69
aI44
aI70
aI43
aI68
aI52
aI39
aI37
aI45
aI54
aI52
aI48
aI56
aI49
aI43
aI59
aI50
aI50
aI51
aI39
aI54
aI66
aI62
aI45
aI51
aI35
aI39
aI50
aI61
aI51
aI29
aI48
aI69
aI52
aI39
aI48
aI48
aI49
aI28
aI52
aI17
aI46
aI39
aI48
aI2
aI3
aI4
aI4
aI3
aI3
aI3
aI3
aI3
aI3
aI3
aI2
aI3
aI2
aI4
aI3
aI1
aI2
aI4
aI2
aI3
aI00
tp123
a(F12026.82
(lp124
I4
aI5
aI53
aI56
aI58
aI65
aI55
aI53
aI47
aI45
aI47
aI65
aI54
aI60
aI63
aI51
aI64
aI37
aI68
aI52
aI53
aI35
aI29
aI43
aI46
aI41
aI33
aI41
aI69
aI62
aI47
aI43
aI71
aI64
aI71
aI35
aI48
aI63
aI34
aI40
aI56
aI46
aI50
aI38
aI8
aI15
aI14
aI16
aI14
aI10
aI17
aI14
aI17
aI13
aI12
aI10
aI10
aI14
aI4
aI7
aI15
aI9
aI11
aI7
aI8
aI9
aI8
aI9
aI7
aI4
aI8
aI5
aI53
aI48
aI55
aI76
aI57
aI59
aI39
aI53
aI53
aI41
aI62
aI49
aI45
aI53
aI51
aI41
aI40
aI47
aI52
aI64
aI69
aI71
aI53
aI68
aI55
aI52
aI44
aI35
aI47
aI66
aI61
aI42
aI81
aI58
aI52
aI47
aI69
aI46
aI60
aI50
aI48
aI64
aI61
aI52
aI28
aI38
aI36
aI37
aI63
aI54
aI70
aI69
aI37
aI30
aI51
aI67
aI42
aI49
aI49
aI58
aI30
aI69
aI63
aI48
aI62
aI64
aI73
aI67
aI45
aI66
aI87
aI47
aI44
aI47
aI40
aI59
aI35
aI46
aI29
aI55
aI28
aI59
aI60
aI52
aI45
aI45
aI60
aI47
aI34
aI62
aI51
aI27
aI27
aI32
aI56
aI38
aI53
aI46
aI63
aI50
aI53
aI53
aI49
aI69
aI44
aI70
aI43
aI68
aI52
aI39
aI37
aI45
aI54
aI52
aI48
aI56
aI49
aI43
aI59
aI50
aI50
aI51
aI39
aI54
aI66
aI62
aI45
aI51
aI35
aI39
aI50
aI61
aI51
aI29
aI48
aI69
aI52
aI39
aI48
aI48
aI49
aI28
aI52
aI17
aI46
aI39
aI48
aI2
aI3
aI4
aI4
aI3
aI3
aI3
aI3
aI3
aI3
aI3
aI2
aI3
aI2
aI4
aI3
aI1
aI2
aI4
aI2
aI3
aI00
tp125
a(F12026.82
(lp126
I4
aI5
aI53
aI56
aI58
aI65
aI55
aI53
aI47
aI45
aI47
aI65
aI54
aI60
aI63
aI51
aI64
aI37
aI68
aI52
aI53
aI35
aI29
aI43
aI46
aI41
aI33
aI41
aI69
aI62
aI47
aI43
aI71
aI64
aI71
aI35
aI48
aI63
aI34
aI40
aI56
aI46
aI50
aI38
aI8
aI15
aI14
aI16
aI14
aI10
aI17
aI14
aI17
aI13
aI12
aI10
aI10
aI14
aI4
aI7
aI15
aI9
aI11
aI7
aI8
aI9
aI8
aI9
aI7
aI4
aI8
aI5
aI53
aI48
aI55
aI76
aI57
aI59
aI39
aI53
aI53
aI41
aI62
aI49
aI45
aI53
aI51
aI41
aI40
aI47
aI52
aI64
aI69
aI71
aI53
aI68
aI55
aI52
aI44
aI35
aI47
aI66
aI61
aI42
aI81
aI58
aI52
aI47
aI69
aI46
aI60
aI50
aI48
aI64
aI61
aI52
aI28
aI38
aI36
aI37
aI63
aI54
aI70
aI69
aI37
aI30
aI51
aI67
aI42
aI49
aI49
aI58
aI30
aI69
aI63
aI48
aI62
aI64
aI73
aI67
aI45
aI66
aI87
aI47
aI44
aI47
aI40
aI59
aI35
aI46
aI29
aI55
aI28
aI59
aI60
aI52
aI45
aI45
aI60
aI47
aI34
aI62
aI51
aI27
aI27
aI32
aI56
aI38
aI53
aI46
aI63
aI50
aI53
aI53
aI49
aI69
aI44
aI70
aI43
aI68
aI52
aI39
aI37
aI45
aI54
aI52
aI48
aI56
aI49
aI43
aI59
aI50
aI50
aI51
aI39
aI54
aI66
aI62
aI45
aI51
aI35
aI39
aI50
aI61
aI51
aI29
aI48
aI69
aI52
aI39
aI48
aI48
aI49
aI28
aI52
aI17
aI46
aI39
aI48
aI2
aI3
aI4
aI4
aI3
aI3
aI3
aI3
aI3
aI3
aI3
aI2
aI3
aI2
aI4
aI3
aI1
aI2
aI4
aI2
aI3
aI00
tp127
a(F12026.82
(lp128
I4
aI5
aI53
aI56
aI58
aI65
aI55
aI53
aI47
aI45
aI47
aI65
aI54
aI60
aI63
aI51
aI64
aI37
aI68
aI52
aI53
aI35
aI29
aI43
aI46
aI41
aI33
aI41
aI69
aI62
aI47
aI43
aI71
aI64
aI71
aI35
aI48
aI63
aI34
aI40
aI56
aI46
aI50
aI38
aI8
aI15
aI14
aI16
aI14
aI10
aI17
aI14
aI17
aI13
aI12
aI10
aI10
aI14
aI4
aI7
aI15
aI9
aI11
aI7
aI8
aI9
aI8
aI9
aI7
aI4
aI8
aI5
aI53
aI48
aI55
aI76
aI57
aI59
aI39
aI53
aI53
aI41
aI62
aI49
aI45
aI53
aI51
aI41
aI40
aI47
aI52
aI64
aI69
aI71
aI53
aI68
aI55
aI52
aI44
aI35
aI47
aI66
aI61
aI42
aI81
aI58
aI52
aI47
aI69
aI46
aI60
aI50
aI48
aI64
aI61
aI52
aI28
aI38
aI36
aI37
aI63
aI54
aI70
aI69
aI37
aI30
aI51
aI67
aI42
aI49
aI49
aI58
aI30
aI69
aI63
aI48
aI62
aI64
aI73
aI67
aI45
aI66
aI87
aI47
aI44
aI47
aI40
aI59
aI35
aI46
aI29
aI55
aI28
aI59
aI60
aI52
aI45
aI45
aI60
aI47
aI34
aI62
aI51
aI27
aI27
aI32
aI56
aI38
aI53
aI46
aI63
aI50
aI53
aI53
aI49
aI69
aI44
aI70
aI43
aI68
aI52
aI39
aI37
aI45
aI54
aI52
aI48
aI56
aI49
aI43
aI59
aI50
aI50
aI51
aI39
aI54
aI66
aI62
aI45
aI51
aI35
aI39
aI50
aI61
aI51
aI29
aI48
aI69
aI52
aI39
aI48
aI48
aI49
aI28
aI52
aI17
aI46
aI39
aI48
aI2
aI3
aI4
aI4
aI3
aI3
aI3
aI3
aI3
aI3
aI3
aI2
aI3
aI2
aI4
aI3
aI1
aI2
aI4
aI2
aI3
aI00
tp129
a(F12026.82
(lp130
I4
aI5
aI53
aI56
aI58
aI65
aI55
aI53
aI47
aI45
aI47
aI65
aI54
aI60
aI63
aI51
aI64
aI37
aI68
aI52
aI53
aI35
aI29
aI43
aI46
aI41
aI33
aI41
aI69
aI62
aI47
aI43
aI71
aI64
aI71
aI35
aI48
aI63
aI34
aI40
aI56
aI46
aI50
aI38
aI8
aI15
aI14
aI16
aI14
aI10
aI17
aI14
aI17
aI13
aI12
aI10
aI10
aI14
aI4
aI7
aI15
aI9
aI11
aI7
aI8
aI9
aI8
aI9
aI7
aI4
aI8
aI5
aI53
aI48
aI55
aI76
aI57
aI59
aI39
aI53
aI53
aI41
aI62
aI49
aI45
aI53
aI51
aI41
aI40
aI47
aI52
aI64
aI69
aI71
aI53
aI68
aI55
aI52
aI44
aI35
aI47
aI66
aI61
aI42
aI81
aI58
aI52
aI47
aI68
aI46
aI60
aI50
aI48
aI64
aI61
aI52
aI28
aI38
aI36
aI37
aI63
aI54
aI70
aI69
aI37
aI30
aI51
aI67
aI42
aI49
aI49
aI58
aI30
aI69
aI63
aI48
aI62
aI64
aI73
aI67
aI45
aI66
aI87
aI47
aI44
aI47
aI40
aI59
aI35
aI46
aI29
aI55
aI28
aI59
aI60
aI52
aI45
aI45
aI60
aI47
aI34
aI62
aI51
aI28
aI27
aI32
aI56
aI38
aI53
aI46
aI63
aI50
aI53
aI53
aI49
aI69
aI44
aI70
aI43
aI68
aI52
aI39
aI37
aI45
aI54
aI52
aI48
aI56
aI49
aI43
aI59
aI50
aI50
aI51
aI39
aI54
aI66
aI62
aI45
aI51
aI35
aI39
aI50
aI61
aI51
aI29
aI48
aI69
aI52
aI39
aI48
aI48
aI49
aI28
aI52
aI17
aI46
aI39
aI48
aI2
aI3
aI4
aI4
aI3
aI3
aI3
aI3
aI3
aI3
aI3
aI2
aI3
aI2
aI4
aI3
aI1
aI2
aI4
aI2
aI3
aI00
tp131
a(F12026.82
(lp132
I4
aI5
aI53
aI56
aI58
aI65
aI55
aI53
aI47
aI45
aI47
aI65
aI54
aI60
aI63
aI51
aI64
aI37
aI68
aI52
aI53
aI35
aI29
aI43
aI46
aI41
aI33
aI41
aI69
aI62
aI47
aI43
aI71
aI64
aI71
aI35
aI48
aI63
aI34
aI40
aI56
aI46
aI50
aI38
aI8
aI15
aI14
aI16
aI14
aI10
aI17
aI14
aI17
aI13
aI12
aI10
aI10
aI14
aI4
aI7
aI15
aI9
aI11
aI7
aI8
aI9
aI8
aI9
aI7
aI4
aI8
aI5
aI53
aI48
aI55
aI76
aI57
aI59
aI39
aI53
aI53
aI41
aI62
aI49
aI45
aI53
aI51
aI41
aI40
aI47
aI52
aI64
aI69
aI71
aI53
aI68
aI55
aI52
aI44
aI35
aI47
aI66
aI61
aI42
aI81
aI58
aI52
aI47
aI68
aI46
aI60
aI50
aI48
aI64
aI61
aI52
aI28
aI38
aI36
aI37
aI63
aI54
aI70
aI69
aI37
aI30
aI51
aI67
aI42
aI49
aI49
aI58
aI30
aI69
aI63
aI48
aI62
aI64
aI73
aI67
aI45
aI66
aI87
aI47
aI44
aI47
aI40
aI59
aI35
aI46
aI29
aI55
aI28
aI59
aI60
aI52
aI45
aI45
aI60
aI47
aI34
aI62
aI51
aI28
aI27
aI32
aI56
aI38
aI53
aI46
aI63
aI50
aI53
aI53
aI49
aI69
aI44
aI70
aI43
aI68
aI52
aI39
aI37
aI45
aI54
aI52
aI48
aI56
aI49
aI43
aI59
aI50
aI50
aI51
aI39
aI54
aI66
aI62
aI45
aI51
aI35
aI39
aI50
aI61
aI51
aI29
aI48
aI69
aI52
aI39
aI48
aI48
aI49
aI28
aI52
aI17
aI46
aI39
aI48
aI2
aI3
aI4
aI4
aI3
aI3
aI3
aI3
aI3
aI3
aI3
aI2
aI3
aI2
aI4
aI3
aI1
aI2
aI4
aI2
aI3
aI00
tp133
a(F12026.82
(lp134
I4
aI5
aI53
aI56
aI58
aI65
aI55
aI53
aI47
aI45
aI47
aI65
aI54
aI60
aI63
aI51
aI64
aI37
aI68
aI52
aI53
aI35
aI29
aI43
aI46
aI41
aI33
aI41
aI69
aI62
aI47
aI43
aI71
aI64
aI71
aI35
aI48
aI63
aI34
aI40
aI56
aI46
aI50
aI38
aI8
aI14
aI14
aI16
aI14
aI10
aI17
aI14
aI17
aI13
aI12
aI10
aI10
aI14
aI5
aI7
aI15
aI9
aI11
aI7
aI8
aI9
aI8
aI9
aI7
aI4
aI8
aI5
aI53
aI48
aI55
aI76
aI57
aI59
aI39
aI53
aI53
aI41
aI62
aI49
aI45
aI53
aI51
aI41
aI40
aI47
aI52
aI64
aI69
aI71
aI53
aI68
aI55
aI51
aI44
aI36
aI47
aI66
aI61
aI42
aI81
aI58
aI52
aI47
aI69
aI46
aI60
aI50
aI48
aI64
aI61
aI52
aI28
aI38
aI36
aI37
aI63
aI54
aI70
aI69
aI37
aI30
aI51
aI67
aI42
aI49
aI49
aI58
aI30
aI69
aI63
aI48
aI62
aI64
aI73
aI67
aI45
aI66
aI87
aI47
aI44
aI47
aI40
aI59
aI35
aI45
aI29
aI55
aI28
aI59
aI60
aI52
aI44
aI45
aI60
aI47
aI34
aI62
aI51
aI28
aI27
aI32
aI56
aI38
aI53
aI46
aI63
aI50
aI53
aI53
aI49
aI69
aI44
aI70
aI43
aI68
aI52
aI39
aI36
aI45
aI54
aI52
aI48
aI56
aI49
aI43
aI59
aI50
aI50
aI51
aI39
aI54
aI66
aI62
aI45
aI51
aI35
aI39
aI50
aI61
aI51
aI29
aI48
aI69
aI52
aI39
aI48
aI48
aI49
aI28
aI52
aI17
aI46
aI39
aI48
aI2
aI3
aI4
aI4
aI3
aI3
aI3
aI3
aI3
aI3
aI3
aI2
aI3
aI2
aI4
aI3
aI1
aI2
aI4
aI2
aI3
aI00
tp135
a(F12026.82
(lp136
I4
aI5
aI53
aI56
aI58
aI65
aI55
aI53
aI47
aI45
aI47
aI65
aI54
aI60
aI63
aI51
aI64
aI37
aI68
aI52
aI53
aI35
aI29
aI43
aI46
aI41
aI33
aI41
aI68
aI62
aI47
aI43
aI71
aI64
aI71
aI35
aI48
aI63
aI34
aI40
aI56
aI46
aI50
aI37
aI8
aI15
aI14
aI16
aI14
aI10
aI17
aI14
aI18
aI13
aI12
aI10
aI10
aI14
aI4
aI7
aI15
aI9
aI11
aI7
aI8
aI9
aI8
aI9
aI7
aI4
aI8
aI5
aI53
aI48
aI55
aI76
aI57
aI59
aI39
aI53
aI53
aI41
aI62
aI49
aI45
aI53
aI51
aI41
aI40
aI47
aI52
aI64
aI69
aI71
aI53
aI68
aI55
aI52
aI44
aI35
aI47
aI66
aI61
aI42
aI81
aI58
aI52
aI47
aI70
aI46
aI60
aI50
aI48
aI63
aI61
aI52
aI28
aI38
aI36
aI37
aI63
aI54
aI70
aI69
aI37
aI30
aI51
aI67
aI41
aI49
aI49
aI58
aI30
aI69
aI63
aI48
aI62
aI64
aI73
aI67
aI45
aI65
aI87
aI47
aI44
aI47
aI40
aI59
aI35
aI46
aI29
aI55
aI28
aI59
aI60
aI52
aI45
aI45
aI60
aI47
aI34
aI62
aI51
aI27
aI27
aI32
aI56
aI38
aI53
aI46
aI63
aI51
aI53
aI53
aI49
aI69
aI44
aI70
aI43
aI68
aI52
aI39
aI37
aI45
aI54
aI52
aI48
aI56
aI49
aI43
aI59
aI50
aI50
aI51
aI39
aI54
aI66
aI62
aI45
aI51
aI35
aI39
aI50
aI61
aI51
aI29
aI48
aI69
aI52
aI39
aI48
aI48
aI49
aI28
aI52
aI17
aI46
aI39
aI48
aI2
aI3
aI4
aI4
aI3
aI3
aI3
aI3
aI3
aI3
aI3
aI2
aI3
aI2
aI4
aI3
aI1
aI2
aI4
aI2
aI3
aI00
tp137
a(F12026.82
(lp138
I4
aI5
aI53
aI56
aI58
aI64
aI55
aI54
aI47
aI45
aI47
aI65
aI54
aI60
aI63
aI50
aI64
aI37
aI68
aI53
aI54
aI35
aI30
aI43
aI46
aI42
aI33
aI41
aI72
aI62
aI47
aI43
aI70
aI64
aI72
aI35
aI48
aI63
aI34
aI40
aI56
aI47
aI50
aI40
aI8
aI13
aI14
aI16
aI14
aI10
aI17
aI14
aI16
aI13
aI12
aI10
aI10
aI14
aI6
aI7
aI15
aI9
aI11
aI7
aI8
aI9
aI8
aI9
aI7
aI4
aI8
aI5
aI52
aI48
aI54
aI76
aI57
aI59
aI39
aI53
aI53
aI41
aI62
aI51
aI45
aI52
aI51
aI41
aI40
aI46
aI52
aI64
aI69
aI71
aI54
aI67
aI56
aI50
aI44
aI37
aI47
aI66
aI61
aI42
aI82
aI58
aI52
aI48
aI66
aI47
aI60
aI50
aI49
aI64
aI61
aI52
aI28
aI39
aI37
aI37
aI63
aI53
aI70
aI70
aI38
aI31
aI51
aI67
aI43
aI49
aI49
aI58
aI30
aI70
aI62
aI48
aI62
aI63
aI73
aI68
aI44
aI67
aI87
aI46
aI43
aI46
aI40
aI59
aI36
aI43
aI29
aI54
aI28
aI59
aI61
aI52
aI44
aI45
aI60
aI47
aI34
aI62
aI51
aI30
aI27
aI31
aI55
aI37
aI53
aI46
aI63
aI49
aI53
aI53
aI48
aI69
aI44
aI69
aI43
aI67
aI52
aI40
aI34
aI45
aI55
aI52
aI48
aI56
aI49
aI43
aI59
aI50
aI49
aI52
aI39
aI54
aI67
aI61
aI45
aI52
aI35
aI39
aI50
aI61
aI52
aI28
aI48
aI69
aI52
aI39
aI47
aI48
aI49
aI28
aI52
aI17
aI46
aI39
aI48
aI2
aI3
aI4
aI4
aI3
aI3
aI3
aI3
aI3
aI3
aI3
aI2
aI3
aI2
aI4
aI3
aI1
aI2
aI4
aI2
aI3
aI00
tp139
a(F12026.82
(lp140
I4
aI5
aI53
aI56
aI58
aI64
aI55
aI54
aI47
aI45
aI47
aI65
aI54
aI60
aI63
aI50
aI64
aI37
aI68
aI53
aI54
aI35
aI30
aI43
aI46
aI42
aI33
aI41
aI72
aI62
aI47
aI43
aI70
aI64
aI72
aI35
aI48
aI63
aI34
aI40
aI56
aI47
aI50
aI40
aI8
aI13
aI14
aI16
aI14
aI10
aI17
aI14
aI16
aI13
aI12
aI10
aI10
aI14
aI6
aI7
aI15
aI9
aI11
aI7
aI8
aI9
aI8
aI9
aI7
aI4
aI8
aI5
aI52
aI48
aI54
aI76
aI57
aI59
aI39
aI53
aI53
aI41
aI62
aI51
aI45
aI52
aI51
aI41
aI40
aI46
aI52
aI64
aI69
aI71
aI54
aI67
aI56
aI50
aI44
aI37
aI47
aI66
aI61
aI42
aI82
aI58
aI52
aI48
aI66
aI47
aI60
aI50
aI49
aI64
aI61
aI52
aI28
aI39
aI37
aI37
aI63
aI53
aI70
aI70
aI38
aI31
aI51
aI67
aI43
aI49
aI49
aI58
aI30
aI70
aI62
aI48
aI62
aI63
aI73
aI68
aI44
aI67
aI87
aI46
aI43
aI46
aI40
aI59
aI36
aI43
aI29
aI54
aI28
aI59
aI61
aI52
aI44
aI45
aI60
aI47
aI34
aI62
aI51
aI30
aI27
aI31
aI55
aI37
aI53
aI46
aI63
aI49
aI53
aI53
aI48
aI69
aI44
aI69
aI43
aI67
aI52
aI40
aI34
aI45
aI55
aI52
aI48
aI56
aI49
aI43
aI59
aI50
aI49
aI52
aI39
aI54
aI67
aI61
aI45
aI52
aI35
aI39
aI50
aI61
aI52
aI28
aI48
aI69
aI52
aI39
aI47
aI48
aI49
aI28
aI52
aI17
aI46
aI39
aI48
aI2
aI3
aI4
aI4
aI3
aI3
aI3
aI3
aI3
aI3
aI3
aI2
aI3
aI2
aI4
aI3
aI1
aI2
aI4
aI2
aI3
aI00
tp141
a(F12026.82
(lp142
I4
aI5
aI53
aI56
aI58
aI64
aI55
aI54
aI47
aI45
aI47
aI65
aI54
aI60
aI63
aI50
aI64
aI37
aI68
aI53
aI54
aI35
aI30
aI43
aI46
aI42
aI33
aI41
aI72
aI62
aI47
aI43
aI70
aI64
aI72
aI35
aI48
aI63
aI34
aI40
aI56
aI47
aI50
aI40
aI8
aI13
aI14
aI16
aI14
aI10
aI17
aI14
aI16
aI13
aI12
aI10
aI10
aI14
aI6
aI7
aI15
aI9
aI11
aI7
aI8
aI9
aI8
aI9
aI7
aI4
aI8
aI5
aI52
aI48
aI54
aI76
aI57
aI59
aI39
aI53
aI53
aI41
aI62
aI51
aI45
aI52
aI51
aI41
aI40
aI46
aI52
aI64
aI69
aI71
aI54
aI67
aI56
aI50
aI44
aI37
aI47
aI66
aI61
aI42
aI82
aI58
aI52
aI48
aI66
aI47
aI60
aI50
aI49
aI64
aI61
aI52
aI28
aI39
aI37
aI37
aI63
aI53
aI70
aI70
aI38
aI31
aI51
aI67
aI43
aI49
aI49
aI58
aI30
aI70
aI62
aI48
aI62
aI63
aI73
aI68
aI44
aI67
aI87
aI46
aI43
aI46
aI40
aI59
aI36
aI43
aI29
aI54
aI28
aI59
aI61
aI52
aI44
aI45
aI60
aI47
aI34
aI62
aI51
aI30
aI27
aI31
aI55
aI37
aI53
aI46
aI63
aI49
aI53
aI53
aI48
aI69
aI44
aI69
aI43
aI67
aI52
aI40
aI34
aI45
aI55
aI52
aI48
aI56
aI49
aI43
aI59
aI50
aI49
aI52
aI39
aI54
aI67
aI61
aI45
aI52
aI35
aI39
aI50
aI61
aI52
aI28
aI48
aI69
aI52
aI39
aI47
aI48
aI49
aI28
aI52
aI17
aI46
aI39
aI48
aI2
aI3
aI4
aI4
aI3
aI3
aI3
aI3
aI3
aI3
aI3
aI2
aI3
aI2
aI4
aI3
aI1
aI2
aI4
aI2
aI3
aI00
tp143
a(F12026.82
(lp144
I4
aI5
aI53
aI56
aI58
aI64
aI55
aI54
aI47
aI45
aI47
aI65
aI54
aI60
aI63
aI50
aI64
aI37
aI68
aI53
aI54
aI35
aI30
aI43
aI46
aI42
aI33
aI41
aI72
aI62
aI47
aI43
aI70
aI64
aI72
aI35
aI48
aI63
aI34
aI40
aI56
aI47
aI50
aI40
aI8
aI13
aI14
aI16
aI14
aI10
aI17
aI14
aI16
aI13
aI12
aI10
aI10
aI14
aI6
aI7
aI15
aI9
aI11
aI7
aI8
aI9
aI8
aI9
aI7
aI4
aI8
aI5
aI52
aI48
aI54
aI76
aI57
aI59
aI39
aI53
aI53
aI41
aI62
aI51
aI45
aI52
aI51
aI41
aI40
aI46
aI52
aI64
aI69
aI71
aI54
aI67
aI56
aI50
aI44
aI37
aI47
aI66
aI61
aI42
aI82
aI58
aI52
aI48
aI66
aI47
aI60
aI50
aI49
aI64
aI61
aI52
aI28
aI39
aI37
aI37
aI63
aI53
aI70
aI70
aI38
aI31
aI51
aI67
aI43
aI49
aI49
aI58
aI30
aI70
aI62
aI48
aI62
aI63
aI73
aI68
aI44
aI67
aI87
aI46
aI43
aI46
aI40
aI59
aI36
aI43
aI29
aI54
aI28
aI59
aI61
aI52
aI44
aI45
aI60
aI47
aI34
aI62
aI51
aI30
aI27
aI31
aI55
aI37
aI53
aI46
aI63
aI49
aI53
aI53
aI48
aI69
aI44
aI69
aI43
aI67
aI52
aI40
aI34
aI45
aI55
aI52
aI48
aI56
aI49
aI43
aI59
aI50
aI49
aI52
aI39
aI54
aI67
aI61
aI45
aI52
aI35
aI39
aI50
aI61
aI52
aI28
aI48
aI69
aI52
aI39
aI47
aI48
aI49
aI28
aI52
aI17
aI46
aI39
aI48
aI2
aI3
aI4
aI4
aI3
aI3
aI3
aI3
aI3
aI3
aI3
aI2
aI3
aI2
aI4
aI3
aI1
aI2
aI4
aI2
aI3
aI00
tp145
a(F12026.82
(lp146
I4
aI5
aI53
aI56
aI58
aI64
aI55
aI54
aI47
aI45
aI47
aI65
aI54
aI60
aI63
aI50
aI64
aI37
aI68
aI53
aI54
aI35
aI30
aI43
aI46
aI42
aI33
aI41
aI72
aI62
aI47
aI43
aI70
aI64
aI72
aI35
aI48
aI63
aI34
aI40
aI56
aI47
aI50
aI40
aI8
aI13
aI14
aI16
aI14
aI10
aI17
aI14
aI16
aI13
aI12
aI10
aI10
aI14
aI6
aI7
aI15
aI9
aI11
aI7
aI8
aI9
aI8
aI9
aI7
aI4
aI8
aI5
aI52
aI48
aI54
aI76
aI57
aI59
aI39
aI53
aI53
aI41
aI62
aI51
aI45
aI52
aI51
aI41
aI40
aI46
aI52
aI64
aI69
aI71
aI54
aI67
aI56
aI50
aI44
aI37
aI47
aI66
aI61
aI42
aI82
aI58
aI52
aI48
aI66
aI47
aI60
aI50
aI49
aI64
aI61
aI52
aI28
aI39
aI37
aI37
aI63
aI53
aI70
aI70
aI38
aI31
aI51
aI67
aI43
aI49
aI49
aI58
aI30
aI70
aI62
aI48
aI62
aI63
aI73
aI68
aI44
aI67
aI87
aI46
aI43
aI46
aI40
aI59
aI36
aI43
aI29
aI54
aI28
aI59
aI61
aI52
aI44
aI45
aI60
aI47
aI34
aI62
aI51
aI30
aI27
aI31
aI55
aI37
aI53
aI46
aI63
aI49
aI53
aI53
aI48
aI69
aI44
aI69
aI43
aI67
aI52
aI40
aI34
aI45
aI55
aI52
aI48
aI56
aI49
aI43
aI59
aI50
aI49
aI52
aI39
aI54
aI67
aI61
aI45
aI52
aI35
aI39
aI50
aI61
aI52
aI28
aI48
aI69
aI52
aI39
aI47
aI48
aI49
aI28
aI52
aI17
aI46
aI39
aI48
aI2
aI3
aI4
aI4
aI3
aI3
aI3
aI3
aI3
aI3
aI3
aI2
aI3
aI2
aI4
aI3
aI1
aI2
aI4
aI2
aI3
aI00
tp147
a(F12026.82
(lp148
I4
aI5
aI53
aI56
aI58
aI64
aI55
aI54
aI47
aI45
aI47
aI65
aI54
aI60
aI63
aI50
aI64
aI37
aI68
aI53
aI54
aI35
aI30
aI43
aI46
aI42
aI33
aI41
aI72
aI62
aI47
aI43
aI70
aI64
aI72
aI35
aI48
aI63
aI34
aI40
aI56
aI47
aI50
aI40
aI8
aI13
aI14
aI16
aI14
aI10
aI17
aI14
aI16
aI13
aI12
aI10
aI10
aI14
aI6
aI7
aI15
aI9
aI11
aI7
aI8
aI9
aI8
aI9
aI7
aI4
aI8
aI5
aI52
aI48
aI54
aI76
aI57
aI59
aI39
aI53
aI53
aI41
aI62
aI51
aI45
aI52
aI51
aI41
aI40
aI46
aI52
aI64
aI69
aI71
aI54
aI67
aI56
aI50
aI44
aI37
aI47
aI66
aI61
aI42
aI82
aI58
aI52
aI48
aI65
aI47
aI60
aI50
aI49
aI64
aI61
aI52
aI28
aI39
aI37
aI37
aI63
aI53
aI70
aI70
aI38
aI31
aI51
aI67
aI43
aI49
aI49
aI58
aI30
aI70
aI62
aI48
aI62
aI63
aI73
aI68
aI44
aI67
aI87
aI46
aI43
aI46
aI40
aI59
aI36
aI43
aI29
aI54
aI28
aI59
aI61
aI52
aI44
aI45
aI60
aI47
aI34
aI62
aI51
aI30
aI27
aI31
aI55
aI37
aI53
aI46
aI63
aI49
aI53
aI53
aI48
aI69
aI44
aI69
aI43
aI67
aI52
aI40
aI34
aI45
aI55
aI52
aI48
aI56
aI49
aI43
aI59
aI50
aI49
aI52
aI39
aI54
aI67
aI61
aI45
aI52
aI35
aI39
aI50
aI61
aI52
aI28
aI48
aI69
aI52
aI39
aI47
aI48
aI49
aI28
aI52
aI17
aI46
aI39
aI48
aI2
aI3
aI4
aI4
aI3
aI3
aI3
aI3
aI3
aI3
aI3
aI2
aI3
aI2
aI4
aI3
aI1
aI2
aI4
aI2
aI3
aI00
tp149
a(F12026.82
(lp150
I4
aI5
aI53
aI56
aI58
aI64
aI55
aI54
aI47
aI45
aI47
aI65
aI54
aI60
aI63
aI50
aI64
aI37
aI68
aI53
aI54
aI35
aI30
aI43
aI46
aI42
aI33
aI41
aI72
aI62
aI47
aI43
aI70
aI64
aI72
aI35
aI48
aI63
aI34
aI40
aI56
aI47
aI50
aI40
aI8
aI13
aI14
aI16
aI14
aI10
aI17
aI14
aI16
aI13
aI12
aI10
aI10
aI14
aI6
aI7
aI15
aI9
aI11
aI7
aI8
aI9
aI8
aI9
aI7
aI4
aI8
aI5
aI52
aI48
aI54
aI76
aI57
aI59
aI39
aI53
aI53
aI41
aI62
aI51
aI45
aI52
aI51
aI41
aI40
aI46
aI52
aI64
aI69
aI71
aI54
aI67
aI56
aI50
aI44
aI37
aI47
aI66
aI61
aI42
aI82
aI58
aI52
aI48
aI65
aI47
aI60
aI50
aI49
aI64
aI61
aI52
aI28
aI39
aI37
aI37
aI63
aI53
aI70
aI70
aI38
aI31
aI51
aI67
aI43
aI49
aI49
aI58
aI30
aI70
aI62
aI48
aI62
aI63
aI73
aI68
aI44
aI67
aI87
aI46
aI43
aI46
aI40
aI59
aI36
aI43
aI29
aI54
aI28
aI59
aI61
aI52
aI44
aI45
aI60
aI47
aI34
aI62
aI51
aI30
aI27
aI31
aI55
aI37
aI53
aI46
aI63
aI49
aI53
aI53
aI48
aI69
aI44
aI69
aI43
aI67
aI52
aI40
aI34
aI45
aI55
aI52
aI48
aI56
aI49
aI43
aI59
aI50
aI49
aI52
aI39
aI54
aI67
aI61
aI45
aI52
aI35
aI39
aI50
aI61
aI52
aI28
aI48
aI69
aI52
aI39
aI47
aI48
aI49
aI28
aI52
aI17
aI46
aI39
aI48
aI2
aI3
aI4
aI4
aI3
aI3
aI3
aI3
aI3
aI3
aI3
aI2
aI3
aI2
aI4
aI3
aI1
aI2
aI4
aI2
aI3
aI00
tp151
a(F12026.82
(lp152
I4
aI5
aI53
aI56
aI58
aI64
aI55
aI54
aI47
aI45
aI47
aI65
aI54
aI60
aI63
aI50
aI64
aI37
aI68
aI53
aI54
aI35
aI30
aI43
aI46
aI42
aI33
aI41
aI72
aI62
aI47
aI43
aI70
aI64
aI72
aI35
aI48
aI63
aI34
aI40
aI56
aI47
aI50
aI40
aI8
aI13
aI14
aI16
aI14
aI10
aI17
aI14
aI16
aI13
aI12
aI10
aI10
aI14
aI6
aI7
aI15
aI9
aI11
aI7
aI8
aI9
aI8
aI9
aI7
aI4
aI8
aI5
aI52
aI48
aI54
aI76
aI57
aI59
aI39
aI53
aI53
aI41
aI62
aI51
aI45
aI52
aI51
aI41
aI40
aI46
aI52
aI64
aI69
aI71
aI54
aI67
aI56
aI50
aI44
aI37
aI47
aI66
aI61
aI42
aI82
aI58
aI52
aI48
aI65
aI47
aI60
aI50
aI49
aI64
aI61
aI52
aI28
aI39
aI37
aI37
aI63
aI53
aI70
aI70
aI38
aI31
aI51
aI67
aI43
aI49
aI49
aI58
aI30
aI70
aI62
aI48
aI62
aI63
aI73
aI68
aI44
aI67
aI87
aI46
aI43
aI46
aI40
aI59
aI36
aI43
aI29
aI54
aI28
aI59
aI61
aI52
aI44
aI45
aI60
aI47
aI34
aI62
aI51
aI30
aI27
aI31
aI55
aI37
aI53
aI46
aI63
aI49
aI53
aI53
aI48
aI69
aI44
aI69
aI43
aI67
aI52
aI40
aI34
aI45
aI55
aI52
aI48
aI56
aI49
aI43
aI59
aI50
aI49
aI52
aI39
aI54
aI67
aI61
aI45
aI52
aI35
aI39
aI50
aI61
aI52
aI28
aI48
aI69
aI52
aI39
aI47
aI48
aI49
aI28
aI52
aI17
aI46
aI39
aI48
aI2
aI3
aI4
aI4
aI3
aI3
aI3
aI3
aI3
aI3
aI3
aI2
aI3
aI2
aI4
aI3
aI1
aI2
aI4
aI2
aI3
aI00
tp153
a(F12026.82
(lp154
I4
aI5
aI53
aI56
aI58
aI64
aI55
aI54
aI47
aI45
aI47
aI65
aI54
aI60
aI63
aI50
aI64
aI37
aI68
aI53
aI54
aI35
aI30
aI43
aI46
aI42
aI33
aI41
aI72
aI62
aI47
aI43
aI70
aI64
aI72
aI35
aI48
aI63
aI34
aI40
aI56
aI47
aI50
aI40
aI8
aI13
aI14
aI16
aI14
aI10
aI17
aI14
aI16
aI13
aI12
aI10
aI10
aI14
aI6
aI7
aI15
aI9
aI11
aI7
aI8
aI9
aI8
aI9
aI7
aI4
aI8
aI5
aI52
aI48
aI54
aI76
aI57
aI59
aI39
aI53
aI53
aI41
aI62
aI51
aI45
aI52
aI51
aI41
aI40
aI46
aI52
aI64
aI69
aI71
aI54
aI67
aI56
aI50
aI44
aI37
aI47
aI66
aI61
aI42
aI82
aI58
aI52
aI48
aI65
aI47
aI60
aI50
aI49
aI64
aI61
aI52
aI28
aI39
aI37
aI37
aI63
aI53
aI70
aI70
aI38
aI31
aI51
aI67
aI43
aI49
aI49
aI58
aI30
aI70
aI62
aI48
aI62
aI63
aI73
aI68
aI44
aI67
aI87
aI46
aI43
aI46
aI40
aI59
aI36
aI43
aI29
aI54
aI28
aI59
aI61
aI52
aI44
aI45
aI60
aI47
aI34
aI62
aI51
aI30
aI27
aI31
aI55
aI37
aI53
aI46
aI63
aI49
aI53
aI53
aI48
aI69
aI44
aI69
aI43
aI67
aI52
aI40
aI34
aI45
aI55
aI52
aI48
aI56
aI49
aI43
aI59
aI50
aI49
aI52
aI39
aI54
aI67
aI61
aI45
aI52
aI35
aI39
aI50
aI61
aI52
aI28
aI48
aI69
aI52
aI39
aI47
aI48
aI49
aI28
aI52
aI17
aI46
aI39
aI48
aI2
aI3
aI4
aI4
aI3
aI3
aI3
aI3
aI3
aI3
aI3
aI2
aI3
aI2
aI4
aI3
aI1
aI2
aI4
aI2
aI3
aI00
tp155
a(F12026.82
(lp156
I4
aI5
aI53
aI56
aI58
aI64
aI55
aI54
aI47
aI45
aI47
aI65
aI54
aI60
aI63
aI50
aI64
aI37
aI68
aI53
aI54
aI35
aI30
aI43
aI46
aI42
aI33
aI41
aI72
aI62
aI47
aI43
aI70
aI64
aI72
aI35
aI48
aI63
aI34
aI40
aI56
aI47
aI50
aI40
aI8
aI13
aI14
aI16
aI14
aI10
aI17
aI14
aI16
aI13
aI12
aI10
aI10
aI14
aI6
aI7
aI15
aI9
aI11
aI7
aI8
aI9
aI8
aI9
aI7
aI4
aI8
aI5
aI52
aI48
aI54
aI76
aI57
aI59
aI39
aI53
aI53
aI41
aI62
aI51
aI45
aI52
aI51
aI41
aI40
aI46
aI52
aI64
aI69
aI71
aI54
aI67
aI56
aI50
aI44
aI37
aI47
aI66
aI61
aI42
aI82
aI58
aI52
aI48
aI65
aI47
aI60
aI50
aI49
aI64
aI61
aI52
aI28
aI39
aI37
aI37
aI63
aI53
aI70
aI70
aI38
aI31
aI51
aI67
aI43
aI49
aI49
aI58
aI30
aI70
aI62
aI48
aI62
aI63
aI73
aI68
aI44
aI67
aI87
aI46
aI43
aI46
aI40
aI59
aI36
aI43
aI29
aI54
aI28
aI59
aI61
aI52
aI44
aI45
aI60
aI47
aI34
aI62
aI51
aI30
aI27
aI31
aI55
aI37
aI53
aI46
aI63
aI49
aI53
aI53
aI48
aI69
aI44
aI69
aI43
aI67
aI52
aI40
aI34
aI45
aI55
aI52
aI48
aI56
aI49
aI43
aI59
aI50
aI49
aI52
aI39
aI54
aI67
aI61
aI45
aI52
aI35
aI39
aI50
aI61
aI52
aI28
aI48
aI69
aI52
aI39
aI47
aI48
aI49
aI28
aI52
aI17
aI46
aI39
aI48
aI2
aI3
aI4
aI4
aI3
aI3
aI3
aI3
aI3
aI3
aI3
aI2
aI3
aI2
aI4
aI3
aI1
aI2
aI4
aI2
aI3
aI00
tp157
a(F12026.82
(lp158
I4
aI5
aI53
aI56
aI58
aI64
aI55
aI54
aI47
aI45
aI47
aI65
aI54
aI60
aI63
aI50
aI64
aI37
aI68
aI53
aI54
aI35
aI30
aI43
aI46
aI42
aI33
aI41
aI72
aI62
aI47
aI43
aI70
aI64
aI72
aI35
aI48
aI63
aI34
aI40
aI56
aI47
aI50
aI40
aI8
aI13
aI14
aI16
aI14
aI10
aI17
aI14
aI16
aI13
aI12
aI10
aI10
aI14
aI6
aI7
aI15
aI9
aI11
aI7
aI8
aI9
aI8
aI9
aI7
aI4
aI8
aI5
aI52
aI48
aI54
aI76
aI57
aI59
aI39
aI53
aI53
aI41
aI62
aI51
aI45
aI52
aI51
aI41
aI40
aI46
aI52
aI64
aI69
aI71
aI54
aI67
aI56
aI50
aI44
aI37
aI47
aI66
aI61
aI42
aI82
aI58
aI52
aI48
aI65
aI47
aI60
aI50
aI49
aI64
aI61
aI52
aI28
aI39
aI37
aI37
aI63
aI53
aI70
aI70
aI38
aI31
aI51
aI67
aI43
aI49
aI49
aI58
aI30
aI70
aI62
aI48
aI62
aI63
aI73
aI68
aI44
aI67
aI87
aI46
aI43
aI46
aI40
aI59
aI36
aI43
aI29
aI54
aI28
aI59
aI61
aI52
aI44
aI45
aI60
aI47
aI34
aI62
aI51
aI30
aI27
aI31
aI55
aI37
aI53
aI46
aI63
aI49
aI53
aI53
aI48
aI69
aI44
aI69
aI43
aI67
aI52
aI40
aI34
aI45
aI55
aI52
aI48
aI56
aI49
aI43
aI59
aI50
aI49
aI52
aI39
aI54
aI67
aI61
aI45
aI52
aI35
aI39
aI50
aI61
aI52
aI28
aI48
aI69
aI52
aI39
aI47
aI48
aI49
aI28
aI52
aI17
aI46
aI39
aI48
aI2
aI3
aI4
aI4
aI3
aI3
aI3
aI3
aI3
aI3
aI3
aI2
aI3
aI2
aI4
aI3
aI1
aI2
aI4
aI2
aI3
aI00
tp159
a(F12026.82
(lp160
I4
aI5
aI53
aI56
aI58
aI64
aI55
aI54
aI47
aI45
aI47
aI65
aI54
aI60
aI63
aI50
aI64
aI37
aI68
aI53
aI54
aI35
aI30
aI43
aI46
aI42
aI33
aI41
aI72
aI62
aI47
aI43
aI70
aI64
aI72
aI35
aI48
aI63
aI34
aI40
aI56
aI47
aI50
aI40
aI8
aI13
aI14
aI16
aI14
aI10
aI17
aI14
aI16
aI13
aI12
aI10
aI10
aI14
aI6
aI7
aI15
aI9
aI11
aI7
aI8
aI9
aI8
aI9
aI7
aI4
aI8
aI5
aI52
aI48
aI54
aI76
aI57
aI59
aI39
aI53
aI53
aI41
aI62
aI51
aI45
aI52
aI51
aI41
aI40
aI46
aI52
aI64
aI69
aI71
aI54
aI67
aI56
aI50
aI44
aI37
aI47
aI66
aI61
aI42
aI82
aI58
aI52
aI48
aI65
aI47
aI60
aI50
aI49
aI64
aI61
aI52
aI28
aI39
aI37
aI37
aI63
aI53
aI70
aI70
aI38
aI31
aI51
aI67
aI43
aI49
aI49
aI58
aI30
aI70
aI62
aI48
aI62
aI63
aI73
aI68
aI44
aI67
aI87
aI46
aI43
aI46
aI40
aI59
aI36
aI43
aI29
aI54
aI28
aI59
aI61
aI52
aI44
aI45
aI60
aI47
aI34
aI62
aI51
aI30
aI27
aI31
aI55
aI37
aI53
aI46
aI63
aI49
aI53
aI53
aI48
aI69
aI44
aI69
aI43
aI67
aI52
aI40
aI34
aI45
aI55
aI52
aI48
aI56
aI49
aI43
aI59
aI50
aI49
aI52
aI39
aI54
aI67
aI61
aI45
aI52
aI35
aI39
aI50
aI61
aI52
aI28
aI48
aI69
aI52
aI39
aI47
aI48
aI49
aI28
aI52
aI17
aI46
aI39
aI48
aI2
aI3
aI4
aI4
aI3
aI3
aI3
aI3
aI3
aI3
aI3
aI2
aI3
aI2
aI4
aI3
aI1
aI2
aI4
aI2
aI3
aI00
tp161
a(F12026.82
(lp162
I4
aI5
aI53
aI56
aI58
aI64
aI55
aI54
aI47
aI45
aI47
aI65
aI54
aI60
aI63
aI50
aI64
aI37
aI68
aI53
aI54
aI35
aI30
aI43
aI46
aI42
aI33
aI41
aI72
aI62
aI47
aI43
aI70
aI64
aI72
aI35
aI48
aI63
aI34
aI40
aI56
aI47
aI50
aI40
aI8
aI13
aI14
aI16
aI14
aI10
aI17
aI14
aI16
aI13
aI12
aI10
aI10
aI14
aI6
aI7
aI15
aI9
aI11
aI7
aI8
aI9
aI8
aI9
aI7
aI4
aI8
aI5
aI52
aI48
aI54
aI76
aI57
aI59
aI39
aI53
aI53
aI41
aI62
aI51
aI45
aI52
aI51
aI41
aI40
aI46
aI52
aI64
aI69
aI71
aI54
aI67
aI56
aI50
aI44
aI37
aI47
aI66
aI61
aI42
aI82
aI58
aI52
aI48
aI65
aI47
aI60
aI50
aI49
aI64
aI61
aI52
aI28
aI39
aI37
aI37
aI63
aI53
aI70
aI70
aI38
aI31
aI51
aI67
aI43
aI49
aI49
aI58
aI30
aI70
aI62
aI48
aI62
aI63
aI73
aI68
aI44
aI67
aI87
aI46
aI43
aI46
aI40
aI59
aI36
aI43
aI29
aI54
aI28
aI59
aI61
aI52
aI44
aI45
aI60
aI47
aI34
aI62
aI51
aI30
aI27
aI31
aI55
aI37
aI53
aI46
aI63
aI49
aI53
aI53
aI48
aI69
aI44
aI69
aI43
aI67
aI52
aI40
aI34
aI45
aI55
aI52
aI48
aI56
aI49
aI43
aI59
aI50
aI49
aI52
aI39
aI54
aI67
aI61
aI45
aI52
aI35
aI39
aI50
aI61
aI52
aI28
aI48
aI69
aI52
aI39
aI47
aI48
aI49
aI28
aI52
aI17
aI46
aI39
aI48
aI2
aI3
aI4
aI4
aI3
aI3
aI3
aI3
aI3
aI3
aI3
aI2
aI3
aI2
aI4
aI3
aI1
aI2
aI4
aI2
aI3
aI00
tp163
a(F12026.82
(lp164
I4
aI5
aI53
aI56
aI58
aI64
aI55
aI54
aI47
aI45
aI47
aI65
aI54
aI60
aI63
aI50
aI64
aI37
aI68
aI53
aI54
aI35
aI30
aI43
aI46
aI42
aI33
aI41
aI71
aI62
aI47
aI43
aI70
aI64
aI72
aI35
aI48
aI63
aI34
aI40
aI56
aI47
aI50
aI40
aI8
aI13
aI14
aI16
aI14
aI10
aI17
aI14
aI16
aI13
aI12
aI10
aI10
aI14
aI6
aI7
aI15
aI9
aI11
aI7
aI8
aI9
aI8
aI9
aI7
aI4
aI8
aI5
aI52
aI48
aI54
aI76
aI57
aI59
aI39
aI53
aI53
aI41
aI62
aI51
aI45
aI52
aI51
aI41
aI40
aI46
aI52
aI64
aI69
aI71
aI54
aI67
aI56
aI50
aI44
aI37
aI47
aI66
aI61
aI42
aI82
aI58
aI52
aI48
aI66
aI47
aI60
aI50
aI49
aI64
aI61
aI52
aI28
aI39
aI37
aI37
aI63
aI53
aI70
aI70
aI38
aI31
aI51
aI67
aI43
aI49
aI49
aI58
aI30
aI70
aI62
aI48
aI62
aI63
aI73
aI68
aI44
aI67
aI87
aI46
aI43
aI46
aI40
aI59
aI36
aI44
aI29
aI54
aI28
aI59
aI61
aI52
aI44
aI45
aI60
aI47
aI34
aI62
aI51
aI30
aI27
aI31
aI55
aI37
aI53
aI46
aI63
aI49
aI53
aI53
aI48
aI69
aI44
aI69
aI43
aI67
aI52
aI40
aI35
aI45
aI55
aI52
aI48
aI56
aI49
aI43
aI59
aI50
aI49
aI52
aI39
aI54
aI67
aI61
aI45
aI52
aI35
aI39
aI50
aI61
aI52
aI28
aI48
aI69
aI52
aI39
aI47
aI48
aI49
aI28
aI52
aI17
aI46
aI39
aI48
aI2
aI3
aI4
aI4
aI3
aI3
aI3
aI3
aI3
aI3
aI3
aI2
aI3
aI2
aI4
aI3
aI1
aI2
aI4
aI2
aI3
aI00
tp165
a(F12026.82
(lp166
I4
aI5
aI53
aI56
aI58
aI64
aI55
aI54
aI47
aI45
aI47
aI65
aI54
aI60
aI63
aI50
aI64
aI37
aI68
aI53
aI54
aI35
aI30
aI43
aI46
aI42
aI33
aI41
aI71
aI62
aI47
aI43
aI70
aI64
aI72
aI35
aI48
aI63
aI34
aI40
aI56
aI47
aI50
aI40
aI8
aI13
aI14
aI16
aI14
aI10
aI17
aI14
aI16
aI13
aI12
aI10
aI10
aI14
aI6
aI7
aI15
aI9
aI11
aI7
aI8
aI9
aI8
aI9
aI7
aI4
aI8
aI5
aI52
aI48
aI54
aI76
aI57
aI59
aI39
aI53
aI53
aI41
aI62
aI51
aI45
aI52
aI51
aI41
aI40
aI46
aI52
aI64
aI69
aI71
aI54
aI67
aI56
aI50
aI44
aI37
aI47
aI66
aI61
aI42
aI82
aI58
aI52
aI48
aI66
aI47
aI60
aI50
aI49
aI64
aI61
aI52
aI28
aI39
aI37
aI37
aI63
aI53
aI70
aI70
aI38
aI31
aI51
aI67
aI43
aI49
aI49
aI58
aI30
aI70
aI62
aI48
aI62
aI63
aI73
aI68
aI44
aI67
aI87
aI46
aI43
aI46
aI40
aI59
aI36
aI44
aI29
aI54
aI28
aI59
aI61
aI52
aI44
aI45
aI60
aI47
aI34
aI62
aI51
aI29
aI27
aI31
aI55
aI37
aI53
aI46
aI63
aI49
aI53
aI53
aI48
aI69
aI44
aI69
aI43
aI67
aI52
aI40
aI35
aI45
aI55
aI52
aI48
aI56
aI49
aI43
aI59
aI50
aI49
aI52
aI39
aI54
aI67
aI61
aI45
aI52
aI35
aI39
aI50
aI61
aI52
aI28
aI48
aI69
aI52
aI39
aI47
aI48
aI49
aI28
aI52
aI17
aI46
aI39
aI48
aI2
aI3
aI4
aI4
aI3
aI3
aI3
aI3
aI3
aI3
aI3
aI2
aI3
aI2
aI4
aI3
aI1
aI2
aI4
aI2
aI3
aI00
tp167
a(F12026.82
(lp168
I4
aI5
aI53
aI56
aI58
aI64
aI55
aI54
aI47
aI45
aI47
aI65
aI54
aI60
aI63
aI50
aI64
aI37
aI68
aI53
aI54
aI35
aI30
aI43
aI46
aI42
aI33
aI41
aI71
aI62
aI47
aI43
aI70
aI64
aI72
aI35
aI48
aI63
aI34
aI40
aI56
aI47
aI50
aI40
aI8
aI13
aI14
aI16
aI14
aI10
aI17
aI14
aI16
aI13
aI12
aI10
aI10
aI14
aI6
aI7
aI15
aI9
aI11
aI7
aI8
aI9
aI8
aI9
aI7
aI4
aI8
aI5
aI52
aI48
aI54
aI76
aI57
aI59
aI39
aI53
aI53
aI41
aI62
aI51
aI45
aI52
aI51
aI41
aI40
aI46
aI52
aI64
aI69
aI71
aI54
aI67
aI56
aI50
aI44
aI37
aI47
aI66
aI61
aI42
aI82
aI58
aI52
aI48
aI66
aI47
aI60
aI50
aI49
aI64
aI61
aI52
aI28
aI39
aI37
aI37
aI63
aI53
aI70
aI70
aI38
aI31
aI51
aI67
aI43
aI49
aI49
aI58
aI30
aI70
aI62
aI48
aI62
aI63
aI73
aI68
aI44
aI67
aI87
aI46
aI43
aI46
aI40
aI59
aI36
aI44
aI29
aI54
aI28
aI59
aI61
aI52
aI44
aI45
aI60
aI47
aI34
aI62
aI51
aI29
aI27
aI31
aI55
aI37
aI53
aI46
aI63
aI49
aI53
aI53
aI48
aI69
aI44
aI69
aI43
aI67
aI52
aI40
aI35
aI45
aI55
aI52
aI48
aI56
aI49
aI43
aI59
aI50
aI49
aI52
aI39
aI54
aI67
aI61
aI45
aI52
aI35
aI39
aI50
aI61
aI52
aI28
aI48
aI69
aI52
aI39
aI47
aI48
aI49
aI28
aI52
aI17
aI46
aI39
aI48
aI2
aI3
aI4
aI4
aI3
aI3
aI3
aI3
aI3
aI3
aI3
aI2
aI3
aI2
aI4
aI3
aI1
aI2
aI4
aI2
aI3
aI00
tp169
a(F12026.82
(lp170
I4
aI5
aI53
aI56
aI58
aI64
aI55
aI54
aI47
aI45
aI47
aI65
aI54
aI60
aI63
aI50
aI64
aI37
aI68
aI53
aI54
aI35
aI30
aI43
aI46
aI42
aI33
aI41
aI71
aI62
aI47
aI43
aI70
aI64
aI72
aI35
aI48
aI63
aI34
aI40
aI56
aI47
aI50
aI39
aI8
aI14
aI14
aI16
aI14
aI10
aI17
aI14
aI17
aI13
aI12
aI10
aI10
aI14
aI5
aI7
aI15
aI9
aI11
aI7
aI8
aI9
aI8
aI9
aI7
aI4
aI8
aI5
aI52
aI48
aI54
aI76
aI57
aI59
aI39
aI53
aI53
aI41
aI62
aI50
aI45
aI52
aI51
aI41
aI40
aI46
aI52
aI64
aI69
aI71
aI54
aI67
aI56
aI51
aI44
aI36
aI47
aI66
aI61
aI42
aI82
aI58
aI52
aI48
aI67
aI47
aI60
aI50
aI49
aI64
aI61
aI52
aI28
aI39
aI37
aI37
aI63
aI53
aI70
aI70
aI38
aI31
aI51
aI67
aI42
aI49
aI49
aI58
aI30
aI70
aI62
aI48
aI62
aI63
aI73
aI68
aI44
aI66
aI87
aI46
aI43
aI46
aI40
aI59
aI36
aI44
aI29
aI54
aI28
aI59
aI61
aI52
aI44
aI45
aI60
aI47
aI34
aI62
aI51
aI29
aI27
aI31
aI55
aI37
aI53
aI46
aI63
aI50
aI53
aI53
aI48
aI69
aI44
aI69
aI43
aI67
aI52
aI40
aI35
aI45
aI55
aI52
aI48
aI56
aI49
aI43
aI59
aI50
aI49
aI52
aI39
aI54
aI67
aI61
aI45
aI52
aI35
aI39
aI50
aI61
aI52
aI28
aI48
aI69
aI52
aI39
aI47
aI48
aI49
aI28
aI52
aI17
aI46
aI39
aI48
aI2
aI3
aI4
aI4
aI3
aI3
aI3
aI3
aI3
aI3
aI3
aI2
aI3
aI2
aI4
aI3
aI1
aI2
aI4
aI2
aI3
aI00
tp171
a(F12026.82
(lp172
I4
aI5
aI53
aI56
aI58
aI64
aI55
aI54
aI47
aI45
aI47
aI65
aI54
aI60
aI63
aI50
aI64
aI37
aI68
aI53
aI54
aI35
aI30
aI43
aI46
aI42
aI33
aI41
aI71
aI62
aI47
aI43
aI70
aI64
aI72
aI35
aI48
aI63
aI34
aI40
aI56
aI47
aI50
aI39
aI8
aI14
aI14
aI16
aI14
aI10
aI17
aI14
aI17
aI13
aI12
aI10
aI10
aI14
aI5
aI7
aI15
aI9
aI11
aI7
aI8
aI9
aI8
aI9
aI7
aI4
aI8
aI5
aI52
aI48
aI54
aI76
aI57
aI59
aI39
aI53
aI53
aI41
aI62
aI50
aI45
aI52
aI51
aI41
aI40
aI46
aI52
aI64
aI69
aI71
aI54
aI67
aI56
aI51
aI44
aI36
aI47
aI66
aI61
aI42
aI82
aI58
aI52
aI48
aI66
aI47
aI60
aI50
aI49
aI64
aI61
aI52
aI28
aI39
aI37
aI37
aI63
aI53
aI70
aI70
aI38
aI31
aI51
aI67
aI42
aI49
aI49
aI58
aI30
aI70
aI62
aI48
aI62
aI63
aI73
aI68
aI44
aI66
aI87
aI46
aI43
aI46
aI40
aI59
aI36
aI44
aI29
aI54
aI28
aI59
aI61
aI52
aI44
aI45
aI60
aI47
aI34
aI62
aI51
aI29
aI27
aI31
aI55
aI37
aI53
aI46
aI63
aI50
aI53
aI53
aI48
aI69
aI44
aI69
aI43
aI67
aI52
aI40
aI35
aI45
aI55
aI52
aI48
aI56
aI49
aI43
aI59
aI50
aI49
aI52
aI39
aI54
aI67
aI61
aI45
aI52
aI35
aI39
aI50
aI61
aI52
aI28
aI48
aI69
aI52
aI39
aI47
aI48
aI49
aI28
aI52
aI17
aI46
aI39
aI48
aI2
aI3
aI4
aI4
aI3
aI3
aI3
aI3
aI3
aI3
aI3
aI2
aI3
aI2
aI4
aI3
aI1
aI2
aI4
aI2
aI3
aI00
tp173
a(F12026.82
(lp174
I4
aI5
aI53
aI56
aI58
aI64
aI55
aI54
aI47
aI45
aI47
aI65
aI54
aI60
aI63
aI50
aI64
aI37
aI68
aI53
aI54
aI35
aI30
aI43
aI46
aI42
aI33
aI41
aI71
aI62
aI47
aI43
aI70
aI64
aI72
aI35
aI48
aI63
aI34
aI40
aI56
aI47
aI50
aI39
aI8
aI14
aI14
aI16
aI14
aI10
aI17
aI14
aI17
aI13
aI12
aI10
aI10
aI14
aI5
aI7
aI15
aI9
aI11
aI7
aI8
aI9
aI8
aI9
aI7
aI4
aI8
aI5
aI52
aI48
aI54
aI76
aI57
aI59
aI39
aI53
aI53
aI41
aI62
aI50
aI45
aI52
aI51
aI41
aI40
aI46
aI52
aI64
aI69
aI71
aI54
aI67
aI56
aI51
aI44
aI36
aI47
aI66
aI61
aI42
aI82
aI58
aI52
aI48
aI66
aI47
aI60
aI50
aI49
aI64
aI61
aI52
aI28
aI39
aI37
aI37
aI63
aI53
aI70
aI70
aI38
aI31
aI51
aI67
aI42
aI49
aI49
aI58
aI30
aI70
aI62
aI48
aI62
aI63
aI73
aI68
aI44
aI66
aI87
aI46
aI43
aI46
aI40
aI59
aI36
aI44
aI29
aI54
aI28
aI59
aI61
aI52
aI44
aI45
aI60
aI47
aI34
aI62
aI51
aI29
aI27
aI31
aI55
aI37
aI53
aI46
aI63
aI50
aI53
aI53
aI48
aI69
aI44
aI69
aI43
aI67
aI52
aI40
aI35
aI45
aI55
aI52
aI48
aI56
aI49
aI43
aI59
aI50
aI49
aI52
aI39
aI54
aI67
aI61
aI45
aI52
aI35
aI39
aI50
aI61
aI52
aI28
aI48
aI69
aI52
aI39
aI47
aI48
aI49
aI28
aI52
aI17
aI46
aI39
aI48
aI2
aI3
aI4
aI4
aI3
aI3
aI3
aI3
aI3
aI3
aI3
aI2
aI3
aI2
aI4
aI3
aI1
aI2
aI4
aI2
aI3
aI00
tp175
a(F12026.82
(lp176
I4
aI5
aI53
aI56
aI58
aI64
aI55
aI54
aI47
aI45
aI47
aI65
aI54
aI60
aI63
aI50
aI64
aI37
aI68
aI53
aI54
aI35
aI30
aI43
aI46
aI42
aI33
aI41
aI71
aI62
aI47
aI43
aI70
aI64
aI72
aI35
aI48
aI63
aI34
aI40
aI56
aI47
aI50
aI39
aI8
aI14
aI14
aI16
aI14
aI10
aI17
aI14
aI17
aI13
aI12
aI10
aI10
aI14
aI5
aI7
aI15
aI9
aI11
aI7
aI8
aI9
aI8
aI9
aI7
aI4
aI8
aI5
aI52
aI48
aI54
aI76
aI57
aI59
aI39
aI53
aI53
aI41
aI62
aI50
aI45
aI52
aI51
aI41
aI40
aI46
aI52
aI64
aI69
aI71
aI54
aI67
aI56
aI51
aI44
aI36
aI47
aI66
aI61
aI42
aI82
aI58
aI52
aI48
aI66
aI47
aI60
aI50
aI49
aI64
aI61
aI52
aI28
aI39
aI37
aI37
aI63
aI53
aI70
aI70
aI38
aI31
aI51
aI67
aI42
aI49
aI49
aI58
aI30
aI70
aI62
aI48
aI62
aI63
aI73
aI68
aI44
aI66
aI87
aI46
aI43
aI46
aI40
aI59
aI36
aI44
aI29
aI54
aI28
aI59
aI61
aI52
aI44
aI45
aI60
aI47
aI34
aI62
aI51
aI29
aI27
aI31
aI55
aI37
aI53
aI46
aI63
aI50
aI53
aI53
aI48
aI69
aI44
aI69
aI43
aI67
aI52
aI40
aI35
aI45
aI55
aI52
aI48
aI56
aI49
aI43
aI59
aI50
aI49
aI52
aI39
aI54
aI67
aI61
aI45
aI52
aI35
aI39
aI50
aI61
aI52
aI28
aI48
aI69
aI52
aI39
aI47
aI48
aI49
aI28
aI52
aI17
aI46
aI39
aI48
aI2
aI3
aI4
aI4
aI3
aI3
aI3
aI3
aI3
aI3
aI3
aI2
aI3
aI2
aI4
aI3
aI1
aI2
aI4
aI2
aI3
aI00
tp177
a(F12026.82
(lp178
I4
aI5
aI53
aI56
aI58
aI64
aI55
aI54
aI47
aI45
aI47
aI65
aI54
aI60
aI63
aI50
aI64
aI37
aI68
aI53
aI54
aI35
aI30
aI43
aI46
aI42
aI33
aI41
aI71
aI62
aI47
aI43
aI70
aI64
aI72
aI35
aI48
aI63
aI34
aI40
aI56
aI47
aI50
aI39
aI8
aI14
aI14
aI16
aI14
aI10
aI17
aI14
aI16
aI13
aI12
aI10
aI10
aI14
aI5
aI7
aI15
aI9
aI11
aI7
aI8
aI9
aI8
aI9
aI7
aI4
aI8
aI5
aI52
aI48
aI54
aI76
aI57
aI59
aI39
aI53
aI53
aI41
aI62
aI50
aI45
aI52
aI51
aI41
aI40
aI46
aI52
aI64
aI69
aI71
aI54
aI67
aI56
aI51
aI44
aI36
aI47
aI66
aI61
aI42
aI82
aI58
aI52
aI48
aI66
aI47
aI60
aI50
aI49
aI64
aI61
aI52
aI28
aI39
aI37
aI37
aI63
aI53
aI70
aI70
aI38
aI31
aI51
aI67
aI43
aI49
aI49
aI58
aI30
aI70
aI62
aI48
aI62
aI63
aI73
aI68
aI44
aI67
aI87
aI46
aI43
aI46
aI40
aI59
aI36
aI44
aI29
aI54
aI28
aI59
aI61
aI52
aI44
aI45
aI60
aI47
aI34
aI62
aI51
aI29
aI27
aI31
aI55
aI37
aI53
aI46
aI63
aI49
aI53
aI53
aI48
aI69
aI44
aI69
aI43
aI67
aI52
aI40
aI35
aI45
aI55
aI52
aI48
aI56
aI49
aI43
aI59
aI50
aI49
aI52
aI39
aI54
aI67
aI61
aI45
aI52
aI35
aI39
aI50
aI61
aI52
aI28
aI48
aI69
aI52
aI39
aI47
aI48
aI49
aI28
aI52
aI17
aI46
aI39
aI48
aI2
aI3
aI4
aI4
aI3
aI3
aI3
aI3
aI3
aI3
aI3
aI2
aI3
aI2
aI4
aI3
aI1
aI2
aI4
aI2
aI3
aI00
tp179
a(F12026.82
(lp180
I4
aI5
aI53
aI56
aI58
aI64
aI55
aI54
aI47
aI45
aI47
aI65
aI54
aI60
aI63
aI50
aI64
aI37
aI68
aI53
aI54
aI35
aI30
aI43
aI46
aI42
aI33
aI41
aI71
aI62
aI47
aI43
aI70
aI64
aI72
aI35
aI48
aI63
aI34
aI40
aI56
aI47
aI50
aI39
aI8
aI14
aI14
aI16
aI14
aI10
aI17
aI14
aI16
aI13
aI12
aI10
aI10
aI14
aI5
aI7
aI15
aI9
aI11
aI7
aI8
aI9
aI8
aI9
aI7
aI4
aI8
aI5
aI52
aI48
aI54
aI76
aI57
aI59
aI39
aI53
aI53
aI41
aI62
aI50
aI45
aI52
aI51
aI41
aI40
aI46
aI52
aI64
aI69
aI71
aI54
aI67
aI56
aI51
aI44
aI36
aI47
aI66
aI61
aI42
aI82
aI58
aI52
aI48
aI66
aI47
aI60
aI50
aI49
aI64
aI61
aI52
aI28
aI39
aI37
aI37
aI63
aI53
aI70
aI70
aI38
aI31
aI51
aI67
aI43
aI49
aI49
aI58
aI30
aI70
aI62
aI48
aI62
aI63
aI73
aI68
aI44
aI67
aI87
aI46
aI43
aI46
aI40
aI59
aI36
aI44
aI29
aI54
aI28
aI59
aI61
aI52
aI44
aI45
aI60
aI47
aI34
aI62
aI51
aI29
aI27
aI31
aI55
aI37
aI53
aI46
aI63
aI49
aI53
aI53
aI48
aI69
aI44
aI69
aI43
aI67
aI52
aI40
aI35
aI45
aI55
aI52
aI48
aI56
aI49
aI43
aI59
aI50
aI49
aI52
aI39
aI54
aI67
aI61
aI45
aI52
aI35
aI39
aI50
aI61
aI52
aI28
aI48
aI69
aI52
aI39
aI47
aI48
aI49
aI28
aI52
aI17
aI46
aI39
aI48
aI2
aI3
aI4
aI4
aI3
aI3
aI3
aI3
aI3
aI3
aI3
aI2
aI3
aI2
aI4
aI3
aI1
aI2
aI4
aI2
aI3
aI00
tp181
a(F12026.82
(lp182
I4
aI5
aI53
aI56
aI58
aI64
aI55
aI54
aI47
aI45
aI47
aI65
aI54
aI60
aI63
aI50
aI64
aI37
aI68
aI53
aI54
aI35
aI30
aI43
aI46
aI42
aI33
aI41
aI71
aI62
aI47
aI43
aI70
aI64
aI72
aI35
aI48
aI63
aI34
aI40
aI56
aI47
aI50
aI39
aI8
aI13
aI14
aI16
aI14
aI10
aI17
aI14
aI16
aI13
aI12
aI10
aI10
aI14
aI6
aI7
aI15
aI9
aI11
aI7
aI8
aI9
aI8
aI9
aI7
aI4
aI8
aI5
aI52
aI48
aI54
aI76
aI57
aI59
aI39
aI53
aI53
aI41
aI62
aI50
aI45
aI52
aI51
aI41
aI40
aI46
aI52
aI64
aI69
aI71
aI54
aI67
aI56
aI50
aI44
aI37
aI47
aI66
aI61
aI42
aI82
aI58
aI52
aI48
aI67
aI47
aI60
aI50
aI49
aI64
aI61
aI52
aI28
aI39
aI37
aI37
aI63
aI53
aI70
aI70
aI38
aI31
aI51
aI67
aI43
aI49
aI49
aI58
aI30
aI70
aI62
aI48
aI62
aI63
aI73
aI68
aI44
aI67
aI87
aI46
aI43
aI46
aI40
aI59
aI36
aI44
aI29
aI54
aI28
aI59
aI61
aI52
aI44
aI45
aI60
aI47
aI34
aI62
aI51
aI29
aI27
aI31
aI55
aI37
aI53
aI46
aI63
aI49
aI53
aI53
aI48
aI69
aI44
aI69
aI43
aI67
aI52
aI40
aI35
aI45
aI55
aI52
aI48
aI56
aI49
aI43
aI59
aI50
aI49
aI52
aI39
aI54
aI67
aI61
aI45
aI52
aI35
aI39
aI50
aI61
aI52
aI28
aI48
aI69
aI52
aI39
aI47
aI48
aI49
aI28
aI52
aI17
aI46
aI39
aI48
aI2
aI3
aI4
aI4
aI3
aI3
aI3
aI3
aI3
aI3
aI3
aI2
aI3
aI2
aI4
aI3
aI1
aI2
aI4
aI2
aI3
aI00
tp183
a(F12026.82
(lp184
I4
aI5
aI53
aI56
aI58
aI64
aI55
aI54
aI47
aI45
aI47
aI65
aI54
aI60
aI63
aI50
aI64
aI37
aI68
aI52
aI54
aI35
aI30
aI43
aI46
aI41
aI33
aI41
aI72
aI62
aI47
aI43
aI71
aI64
aI72
aI35
aI48
aI63
aI34
aI40
aI56
aI46
aI50
aI40
aI8
aI13
aI14
aI16
aI14
aI10
aI17
aI14
aI16
aI13
aI12
aI10
aI10
aI14
aI6
aI7
aI15
aI9
aI11
aI7
aI8
aI9
aI8
aI9
aI7
aI4
aI8
aI5
aI52
aI48
aI54
aI76
aI57
aI59
aI39
aI53
aI53
aI42
aI62
aI51
aI45
aI52
aI51
aI41
aI40
aI46
aI52
aI64
aI69
aI71
aI54
aI67
aI56
aI50
aI44
aI37
aI47
aI66
aI61
aI42
aI82
aI58
aI52
aI48
aI65
aI47
aI60
aI50
aI49
aI64
aI61
aI52
aI28
aI39
aI37
aI37
aI63
aI53
aI70
aI69
aI38
aI30
aI51
aI67
aI43
aI49
aI49
aI58
aI30
aI70
aI63
aI48
aI62
aI63
aI73
aI67
aI44
aI67
aI87
aI46
aI43
aI46
aI40
aI58
aI36
aI43
aI29
aI54
aI28
aI59
aI61
aI52
aI44
aI45
aI60
aI47
aI34
aI62
aI51
aI30
aI27
aI31
aI56
aI37
aI53
aI46
aI63
aI49
aI53
aI53
aI48
aI69
aI44
aI70
aI43
aI67
aI52
aI40
aI34
aI45
aI55
aI52
aI48
aI56
aI49
aI43
aI59
aI49
aI49
aI52
aI39
aI54
aI67
aI62
aI45
aI52
aI35
aI39
aI50
aI61
aI52
aI28
aI48
aI69
aI52
aI39
aI47
aI48
aI49
aI28
aI52
aI17
aI46
aI39
aI48
aI2
aI3
aI4
aI4
aI3
aI3
aI3
aI3
aI3
aI3
aI3
aI2
aI3
aI2
aI4
aI3
aI1
aI2
aI4
aI2
aI3
aI00
tp185
a(F12026.82
(lp186
I4
aI5
aI53
aI56
aI58
aI64
aI55
aI54
aI47
aI45
aI47
aI65
aI54
aI60
aI63
aI50
aI64
aI37
aI68
aI52
aI54
aI35
aI30
aI43
aI46
aI41
aI33
aI41
aI72
aI62
aI47
aI43
aI71
aI64
aI72
aI35
aI48
aI63
aI34
aI40
aI56
aI46
aI50
aI40
aI8
aI13
aI14
aI16
aI14
aI10
aI17
aI14
aI16
aI13
aI12
aI10
aI10
aI14
aI6
aI7
aI15
aI9
aI11
aI7
aI8
aI9
aI8
aI9
aI7
aI4
aI8
aI5
aI52
aI48
aI54
aI76
aI57
aI59
aI39
aI53
aI53
aI42
aI62
aI51
aI45
aI52
aI51
aI41
aI40
aI46
aI52
aI64
aI69
aI71
aI54
aI67
aI56
aI50
aI44
aI37
aI47
aI66
aI61
aI42
aI82
aI58
aI52
aI48
aI65
aI47
aI60
aI50
aI49
aI64
aI61
aI52
aI28
aI39
aI37
aI37
aI63
aI53
aI70
aI69
aI38
aI30
aI51
aI67
aI43
aI49
aI49
aI58
aI30
aI70
aI63
aI48
aI62
aI63
aI73
aI67
aI44
aI67
aI87
aI46
aI43
aI46
aI40
aI58
aI36
aI43
aI29
aI54
aI28
aI59
aI61
aI52
aI44
aI45
aI60
aI47
aI34
aI62
aI51
aI30
aI27
aI31
aI56
aI37
aI53
aI46
aI63
aI49
aI53
aI53
aI48
aI69
aI44
aI70
aI43
aI67
aI52
aI40
aI34
aI45
aI55
aI52
aI48
aI56
aI49
aI43
aI59
aI49
aI49
aI52
aI39
aI54
aI67
aI62
aI45
aI52
aI35
aI39
aI50
aI61
aI52
aI28
aI48
aI69
aI52
aI39
aI47
aI48
aI49
aI28
aI52
aI17
aI46
aI39
aI48
aI2
aI3
aI4
aI4
aI3
aI3
aI3
aI3
aI3
aI3
aI3
aI2
aI3
aI2
aI4
aI3
aI1
aI2
aI4
aI2
aI3
aI00
tp187
a(F12026.82
(lp188
I4
aI5
aI53
aI56
aI58
aI64
aI55
aI54
aI47
aI45
aI47
aI65
aI54
aI60
aI63
aI50
aI64
aI37
aI68
aI52
aI54
aI35
aI30
aI43
aI46
aI41
aI33
aI41
aI71
aI62
aI47
aI43
aI71
aI64
aI72
aI35
aI48
aI63
aI34
aI40
aI56
aI46
aI50
aI39
aI8
aI14
aI14
aI16
aI14
aI10
aI17
aI14
aI16
aI13
aI12
aI10
aI10
aI14
aI5
aI7
aI15
aI9
aI11
aI7
aI8
aI9
aI8
aI9
aI7
aI4
aI8
aI5
aI52
aI48
aI54
aI76
aI57
aI59
aI39
aI53
aI53
aI42
aI62
aI50
aI45
aI52
aI51
aI41
aI40
aI46
aI52
aI64
aI69
aI71
aI54
aI67
aI56
aI51
aI44
aI36
aI47
aI66
aI61
aI42
aI82
aI58
aI52
aI48
aI66
aI47
aI60
aI50
aI49
aI64
aI61
aI52
aI28
aI39
aI37
aI37
aI63
aI53
aI70
aI69
aI38
aI30
aI51
aI67
aI43
aI49
aI49
aI58
aI30
aI70
aI63
aI48
aI62
aI63
aI73
aI67
aI44
aI67
aI87
aI46
aI43
aI46
aI40
aI58
aI36
aI44
aI29
aI54
aI28
aI59
aI61
aI52
aI44
aI45
aI60
aI47
aI34
aI62
aI51
aI30
aI27
aI31
aI56
aI37
aI53
aI46
aI63
aI49
aI53
aI53
aI48
aI69
aI44
aI70
aI43
aI67
aI52
aI40
aI35
aI45
aI55
aI52
aI48
aI56
aI49
aI43
aI59
aI49
aI49
aI52
aI39
aI54
aI67
aI62
aI45
aI52
aI35
aI39
aI50
aI61
aI52
aI28
aI48
aI69
aI52
aI39
aI47
aI48
aI49
aI28
aI52
aI17
aI46
aI39
aI48
aI2
aI3
aI4
aI4
aI3
aI3
aI3
aI3
aI3
aI3
aI3
aI2
aI3
aI2
aI4
aI3
aI1
aI2
aI4
aI2
aI3
aI00
tp189
a(F12026.82
(lp190
I4
aI5
aI53
aI56
aI58
aI64
aI55
aI54
aI47
aI45
aI47
aI65
aI54
aI60
aI63
aI50
aI64
aI37
aI68
aI52
aI54
aI35
aI30
aI43
aI46
aI41
aI33
aI41
aI71
aI62
aI47
aI43
aI71
aI64
aI72
aI35
aI48
aI63
aI34
aI40
aI56
aI46
aI50
aI39
aI8
aI14
aI14
aI16
aI14
aI10
aI17
aI14
aI16
aI13
aI12
aI10
aI10
aI14
aI5
aI7
aI15
aI9
aI11
aI7
aI8
aI9
aI8
aI9
aI7
aI4
aI8
aI5
aI52
aI48
aI54
aI76
aI57
aI59
aI39
aI53
aI53
aI42
aI62
aI50
aI45
aI52
aI51
aI41
aI40
aI46
aI52
aI64
aI69
aI71
aI54
aI67
aI56
aI51
aI44
aI36
aI47
aI66
aI61
aI42
aI82
aI58
aI52
aI48
aI66
aI47
aI60
aI50
aI49
aI64
aI61
aI52
aI28
aI39
aI37
aI37
aI63
aI53
aI70
aI69
aI38
aI30
aI51
aI67
aI43
aI49
aI49
aI58
aI30
aI70
aI63
aI48
aI62
aI63
aI73
aI67
aI44
aI67
aI87
aI46
aI43
aI46
aI40
aI58
aI36
aI44
aI29
aI54
aI28
aI59
aI61
aI52
aI44
aI45
aI60
aI47
aI34
aI62
aI51
aI30
aI27
aI31
aI56
aI37
aI53
aI46
aI63
aI49
aI53
aI53
aI48
aI69
aI44
aI70
aI43
aI67
aI52
aI40
aI35
aI45
aI55
aI52
aI48
aI56
aI49
aI43
aI59
aI49
aI49
aI52
aI39
aI54
aI67
aI62
aI45
aI52
aI35
aI39
aI50
aI61
aI52
aI28
aI48
aI69
aI52
aI39
aI47
aI48
aI49
aI28
aI52
aI17
aI46
aI39
aI48
aI2
aI3
aI4
aI4
aI3
aI3
aI3
aI3
aI3
aI3
aI3
aI2
aI3
aI2
aI4
aI3
aI1
aI2
aI4
aI2
aI3
aI00
tp191
a(F12026.82
(lp192
I4
aI5
aI53
aI56
aI58
aI64
aI55
aI54
aI47
aI45
aI47
aI65
aI54
aI60
aI63
aI50
aI64
aI37
aI68
aI52
aI54
aI35
aI30
aI43
aI46
aI41
aI33
aI41
aI71
aI62
aI47
aI43
aI71
aI64
aI72
aI35
aI48
aI63
aI34
aI40
aI56
aI46
aI50
aI39
aI8
aI14
aI14
aI16
aI14
aI10
aI17
aI14
aI16
aI13
aI12
aI10
aI10
aI14
aI5
aI7
aI15
aI9
aI11
aI7
aI8
aI9
aI8
aI9
aI7
aI4
aI8
aI5
aI52
aI48
aI54
aI76
aI57
aI59
aI39
aI53
aI53
aI42
aI62
aI50
aI45
aI52
aI51
aI41
aI40
aI46
aI52
aI64
aI69
aI71
aI54
aI67
aI56
aI51
aI44
aI36
aI47
aI66
aI61
aI42
aI82
aI58
aI52
aI48
aI66
aI47
aI60
aI50
aI49
aI64
aI61
aI52
aI28
aI39
aI37
aI37
aI63
aI53
aI70
aI69
aI38
aI30
aI51
aI67
aI43
aI49
aI49
aI58
aI30
aI70
aI63
aI48
aI62
aI63
aI73
aI67
aI44
aI67
aI87
aI46
aI43
aI46
aI40
aI58
aI36
aI44
aI29
aI54
aI28
aI59
aI61
aI52
aI44
aI45
aI60
aI47
aI34
aI62
aI51
aI30
aI27
aI31
aI56
aI37
aI53
aI46
aI63
aI49
aI53
aI53
aI48
aI69
aI44
aI70
aI43
aI67
aI52
aI40
aI35
aI45
aI55
aI52
aI48
aI56
aI49
aI43
aI59
aI49
aI49
aI52
aI39
aI54
aI67
aI62
aI45
aI52
aI35
aI39
aI50
aI61
aI52
aI28
aI48
aI69
aI52
aI39
aI47
aI48
aI49
aI28
aI52
aI17
aI46
aI39
aI48
aI2
aI3
aI4
aI4
aI3
aI3
aI3
aI3
aI3
aI3
aI3
aI2
aI3
aI2
aI4
aI3
aI1
aI2
aI4
aI2
aI3
aI00
tp193
a(F12026.82
(lp194
I4
aI5
aI53
aI56
aI58
aI64
aI55
aI54
aI47
aI45
aI47
aI65
aI54
aI59
aI63
aI50
aI64
aI37
aI68
aI53
aI54
aI35
aI30
aI43
aI46
aI42
aI33
aI41
aI71
aI61
aI47
aI43
aI70
aI64
aI72
aI35
aI48
aI63
aI34
aI40
aI56
aI47
aI50
aI39
aI8
aI14
aI14
aI16
aI14
aI10
aI17
aI14
aI16
aI13
aI12
aI10
aI10
aI14
aI5
aI7
aI15
aI9
aI11
aI7
aI8
aI9
aI8
aI9
aI7
aI4
aI8
aI5
aI52
aI48
aI54
aI76
aI57
aI59
aI39
aI53
aI54
aI41
aI62
aI50
aI45
aI52
aI51
aI41
aI40
aI46
aI52
aI63
aI68
aI71
aI54
aI67
aI56
aI51
aI44
aI36
aI47
aI66
aI61
aI42
aI82
aI58
aI52
aI48
aI67
aI47
aI60
aI50
aI49
aI64
aI61
aI52
aI29
aI39
aI37
aI37
aI63
aI53
aI70
aI70
aI38
aI31
aI51
aI67
aI43
aI49
aI49
aI58
aI30
aI70
aI62
aI48
aI62
aI63
aI73
aI68
aI44
aI66
aI87
aI46
aI43
aI46
aI40
aI58
aI36
aI44
aI29
aI54
aI28
aI59
aI61
aI52
aI44
aI45
aI60
aI47
aI34
aI62
aI51
aI30
aI28
aI31
aI55
aI37
aI53
aI46
aI63
aI49
aI53
aI53
aI48
aI69
aI44
aI69
aI43
aI67
aI52
aI40
aI35
aI45
aI55
aI52
aI48
aI56
aI49
aI43
aI59
aI50
aI49
aI52
aI39
aI54
aI67
aI61
aI45
aI52
aI35
aI39
aI50
aI61
aI52
aI28
aI48
aI69
aI52
aI39
aI47
aI48
aI49
aI28
aI52
aI17
aI46
aI39
aI48
aI2
aI3
aI4
aI4
aI3
aI3
aI3
aI3
aI3
aI3
aI3
aI2
aI3
aI2
aI4
aI3
aI1
aI2
aI4
aI2
aI3
aI00
tp195
a(F11596.86
(lp196
I4
aI5
aI53
aI56
aI58
aI64
aI55
aI54
aI47
aI45
aI47
aI65
aI54
aI64
aI63
aI50
aI64
aI37
aI68
aI53
aI54
aI35
aI30
aI43
aI46
aI42
aI33
aI41
aI71
aI62
aI47
aI43
aI70
aI64
aI72
aI35
aI48
aI63
aI34
aI40
aI56
aI47
aI50
aI37
aI8
aI14
aI14
aI16
aI16
aI10
aI17
aI14
aI16
aI13
aI12
aI10
aI10
aI14
aI5
aI7
aI15
aI9
aI15
aI8
aI8
aI10
aI8
aI9
aI7
aI4
aI8
aI1
aI52
aI48
aI54
aI76
aI57
aI59
aI39
aI53
aI53
aI46
aI62
aI50
aI45
aI52
aI51
aI41
aI43
aI46
aI52
aI64
aI69
aI71
aI57
aI68
aI56
aI51
aI44
aI36
aI47
aI66
aI61
aI42
aI82
aI58
aI52
aI48
aI66
aI47
aI60
aI50
aI49
aI64
aI61
aI52
aI28
aI39
aI37
aI37
aI63
aI52
aI70
aI70
aI38
aI31
aI51
aI67
aI43
aI49
aI49
aI63
aI30
aI71
aI62
aI48
aI62
aI63
aI73
aI71
aI44
aI67
aI87
aI46
aI43
aI46
aI45
aI59
aI36
aI44
aI29
aI54
aI28
aI59
aI61
aI52
aI44
aI45
aI60
aI47
aI34
aI62
aI51
aI29
aI27
aI31
aI55
aI37
aI53
aI46
aI63
aI49
aI53
aI53
aI48
aI69
aI44
aI69
aI43
aI67
aI52
aI40
aI35
aI45
aI55
aI52
aI48
aI56
aI49
aI43
aI59
aI52
aI49
aI52
aI39
aI54
aI67
aI61
aI45
aI51
aI35
aI35
aI50
aI61
aI52
aI28
aI49
aI69
aI52
aI39
aI47
aI52
aI49
aI28
aI50
aI17
aI46
aI39
aI48
aI2
aI3
aI4
aI4
aI3
aI3
aI3
aI3
aI3
aI3
aI3
aI2
aI3
aI2
aI4
aI3
aI1
aI2
aI4
aI4
aI3
aI00
tp197
a(F10000.0
(lp198
I4
aI3
aI53
aI56
aI58
aI70
aI55
aI53
aI47
aI45
aI47
aI65
aI54
aI55
aI63
aI51
aI64
aI37
aI68
aI52
aI53
aI35
aI29
aI48
aI46
aI41
aI33
aI41
aI70
aI62
aI47
aI43
aI71
aI59
aI71
aI35
aI48
aI63
aI34
aI40
aI56
aI46
aI54
aI39
aI8
aI14
aI14
aI16
aI14
aI10
aI17
aI14
aI17
aI13
aI12
aI10
aI10
aI14
aI5
aI7
aI15
aI9
aI11
aI11
aI8
aI9
aI8
aI9
aI7
aI4
aI8
aI5
aI53
aI48
aI55
aI76
aI57
aI59
aI39
aI53
aI53
aI41
aI61
aI50
aI45
aI53
aI52
aI41
aI40
aI47
aI50
aI64
aI69
aI71
aI53
aI68
aI55
aI47
aI44
aI36
aI47
aI66
aI61
aI42
aI81
aI58
aI52
aI47
aI68
aI46
aI60
aI50
aI48
aI64
aI61
aI52
aI24
aI38
aI36
aI37
aI63
aI54
aI70
aI69
aI37
aI33
aI55
aI67
aI42
aI49
aI49
aI58
aI30
aI69
aI63
aI48
aI62
aI64
aI73
aI67
aI45
aI66
aI87
aI47
aI44
aI47
aI40
aI59
aI35
aI45
aI25
aI55
aI28
aI59
aI60
aI52
aI44
aI45
aI64
aI47
aI34
aI62
aI51
aI28
aI27
aI32
aI56
aI38
aI53
aI46
aI63
aI50
aI53
aI53
aI52
aI69
aI44
aI70
aI43
aI68
aI52
aI39
aI36
aI45
aI54
aI52
aI48
aI56
aI53
aI43
aI57
aI50
aI50
aI51
aI39
aI52
aI66
aI62
aI45
aI51
aI35
aI39
aI50
aI61
aI51
aI29
aI48
aI69
aI52
aI39
aI48
aI48
aI49
aI33
aI52
aI17
aI46
aI39
aI48
aI2
aI3
aI4
aI4
aI3
aI3
aI3
aI3
aI3
aI3
aI3
aI2
aI5
aI2
aI4
aI3
aI1
aI2
aI4
aI2
aI3
aI00
tp199
a.