(lp0
(lp1
I4
aI10
aI30
aI35
aI41
aI20
aI65
aI31
aI43
aI54
aI55
aI26
aI38
aI82
aI30
aI65
aI42
aI36
aI48
aI49
aI49
aI35
aI73
aI84
aI36
aI33
aI65
aI44
aI40
aI11
aI66
aI62
aI40
aI74
aI59
aI55
aI60
aI94
aI44
aI78
aI35
aI59
aI59
aI30
aI22
aI14
aI4
aI12
aI4
aI18
aI16
aI8
aI15
aI19
aI4
aI5
aI17
aI14
aI3
aI2
aI15
aI4
aI16
aI11
aI4
aI7
aI8
aI10
aI6
aI4
aI2
aI6
aI66
aI63
aI34
aI66
aI61
aI60
aI58
aI62
aI29
aI36
aI45
aI59
aI63
aI12
aI41
aI44
aI70
aI19
aI74
aI44
aI31
aI80
aI34
aI31
aI38
aI55
aI54
aI89
aI46
aI19
aI33
aI60
aI52
aI51
aI79
aI65
aI72
aI43
aI6
aI23
aI55
aI34
aI92
aI76
aI44
aI76
aI19
aI55
aI36
aI36
aI47
aI43
aI53
aI76
aI58
aI69
aI31
aI34
aI51
aI47
aI73
aI57
aI39
aI30
aI68
aI37
aI30
aI58
aI53
aI47
aI51
aI62
aI56
aI53
aI57
aI53
aI46
aI53
aI60
aI34
aI80
aI41
aI23
aI67
aI52
aI12
aI25
aI57
aI53
aI39
aI32
aI63
aI51
aI37
aI39
aI63
aI75
aI69
aI63
aI47
aI29
aI78
aI67
aI59
aI21
aI53
aI74
aI70
aI49
aI62
aI35
aI89
aI65
aI68
aI72
aI29
aI48
aI18
aI47
aI47
aI36
aI57
aI37
aI94
aI73
aI81
aI58
aI12
aI63
aI50
aI72
aI74
aI46
aI32
aI81
aI86
aI41
aI32
aI26
aI35
aI63
aI53
aI86
aI71
aI45
aI63
aI46
aI2
aI2
aI2
aI1
aI2
aI3
aI5
aI1
aI3
aI4
aI4
aI5
aI5
aI1
aI1
aI1
aI1
aI2
aI1
aI1
aI2
aa(lp2
I4
aI10
aI30
aI35
aI41
aI20
aI65
aI31
aI43
aI54
aI55
aI26
aI38
aI82
aI30
aI65
aI42
aI36
aI48
aI49
aI49
aI35
aI73
aI84
aI36
aI33
aI65
aI44
aI40
aI11
aI66
aI62
aI40
aI74
aI59
aI55
aI60
aI94
aI44
aI78
aI35
aI59
aI59
aI30
aI22
aI14
aI4
aI12
aI4
aI18
aI16
aI8
aI15
aI19
aI4
aI5
aI17
aI14
aI3
aI2
aI15
aI4
aI16
aI11
aI4
aI7
aI8
aI10
aI6
aI4
aI2
aI6
aI66
aI63
aI34
aI66
aI61
aI60
aI58
aI62
aI29
aI36
aI45
aI59
aI63
aI12
aI41
aI44
aI70
aI19
aI74
aI44
aI31
aI80
aI34
aI31
aI38
aI55
aI54
aI89
aI46
aI19
aI33
aI60
aI52
aI51
aI79
aI65
aI72
aI43
aI6
aI23
aI55
aI34
aI92
aI76
aI44
aI76
aI19
aI55
aI36
aI36
aI47
aI43
aI53
aI76
aI58
aI69
aI31
aI34
aI51
aI47
aI73
aI57
aI39
aI30
aI68
aI37
aI30
aI58
aI53
aI47
aI51
aI62
aI56
aI53
aI57
aI53
aI46
aI53
aI60
aI34
aI80
aI41
aI23
aI67
aI52
aI12
aI25
aI57
aI53
aI39
aI32
aI63
aI51
aI37
aI39
aI63
aI75
aI69
aI63
aI47
aI29
aI78
aI67
aI59
aI21
aI53
aI74
aI70
aI49
aI62
aI35
aI89
aI65
aI68
aI72
aI29
aI48
aI18
aI47
aI47
aI36
aI57
aI37
aI94
aI73
aI81
aI58
aI12
aI63
aI50
aI72
aI74
aI46
aI32
aI81
aI86
aI41
aI32
aI26
aI35
aI63
aI53
aI86
aI71
aI45
aI63
aI46
aI2
aI2
aI2
aI1
aI2
aI3
aI5
aI1
aI3
aI4
aI4
aI5
aI5
aI1
aI1
aI1
aI1
aI2
aI1
aI1
aI2
aa(lp3
I4
aI10
aI30
aI35
aI41
aI20
aI65
aI31
aI45
aI54
aI55
aI26
aI38
aI82
aI30
aI65
aI42
aI36
aI48
aI49
aI49
aI35
aI73
aI84
aI36
aI33
aI65
aI43
aI40
aI11
aI66
aI62
aI40
aI74
aI59
aI55
aI60
aI94
aI44
aI78
aI35
aI59
aI59
aI30
aI22
aI14
aI4
aI12
aI4
aI18
aI13
aI8
aI15
aI19
aI4
aI5
aI17
aI14
aI3
aI2
aI15
aI4
aI16
aI11
aI4
aI7
aI8
aI10
aI6
aI5
aI2
aI6
aI66
aI63
aI34
aI66
aI61
aI60
aI58
aI62
aI29
aI36
aI45
aI59
aI63
aI12
aI41
aI44
aI75
aI19
aI74
aI43
aI36
aI80
aI34
aI31
aI38
aI55
aI54
aI89
aI46
aI19
aI33
aI60
aI52
aI51
aI79
aI65
aI72
aI43
aI6
aI23
aI55
aI34
aI92
aI76
aI44
aI76
aI19
aI55
aI36
aI40
aI47
aI43
aI49
aI76
aI58
aI66
aI31
aI34
aI51
aI50
aI73
aI57
aI39
aI35
aI68
aI37
aI30
aI59
aI53
aI47
aI51
aI62
aI56
aI53
aI57
aI53
aI46
aI53
aI60
aI34
aI80
aI41
aI23
aI67
aI52
aI12
aI25
aI57
aI53
aI39
aI32
aI63
aI47
aI40
aI44
aI65
aI75
aI69
aI63
aI48
aI30
aI78
aI67
aI59
aI21
aI53
aI74
aI70
aI49
aI62
aI35
aI91
aI65
aI68
aI72
aI29
aI48
aI18
aI47
aI47
aI36
aI61
aI37
aI94
aI73
aI82
aI58
aI12
aI63
aI50
aI72
aI74
aI46
aI32
aI81
aI86
aI41
aI32
aI26
aI35
aI63
aI53
aI86
aI71
aI45
aI63
aI46
aI2
aI2
aI2
aI1
aI2
aI3
aI5
aI1
aI3
aI4
aI4
aI5
aI5
aI1
aI1
aI1
aI1
aI2
aI1
aI1
aI2
aa(lp4
I4
aI10
aI30
aI35
aI41
aI20
aI65
aI31
aI43
aI54
aI55
aI26
aI38
aI82
aI30
aI65
aI42
aI36
aI48
aI49
aI49
aI35
aI73
aI84
aI36
aI33
aI65
aI44
aI40
aI11
aI66
aI62
aI40
aI74
aI59
aI55
aI60
aI94
aI44
aI78
aI35
aI59
aI59
aI30
aI22
aI14
aI4
aI12
aI4
aI18
aI16
aI8
aI15
aI19
aI4
aI5
aI17
aI14
aI3
aI2
aI15
aI4
aI16
aI11
aI4
aI7
aI8
aI10
aI6
aI4
aI2
aI6
aI66
aI63
aI34
aI66
aI61
aI60
aI58
aI62
aI29
aI36
aI45
aI59
aI63
aI12
aI41
aI44
aI70
aI19
aI74
aI44
aI31
aI80
aI34
aI31
aI38
aI55
aI54
aI89
aI46
aI19
aI33
aI60
aI52
aI51
aI79
aI65
aI72
aI43
aI6
aI23
aI55
aI34
aI92
aI76
aI44
aI76
aI19
aI55
aI36
aI36
aI47
aI43
aI53
aI76
aI58
aI69
aI31
aI34
aI51
aI47
aI73
aI57
aI39
aI30
aI68
aI37
aI30
aI58
aI53
aI47
aI51
aI62
aI56
aI53
aI57
aI53
aI46
aI53
aI60
aI34
aI80
aI41
aI23
aI67
aI52
aI12
aI25
aI57
aI53
aI39
aI32
aI63
aI51
aI37
aI39
aI63
aI75
aI69
aI63
aI47
aI29
aI78
aI67
aI59
aI21
aI53
aI74
aI70
aI49
aI62
aI35
aI89
aI65
aI68
aI72
aI29
aI48
aI18
aI47
aI47
aI36
aI57
aI37
aI94
aI73
aI81
aI58
aI12
aI63
aI50
aI72
aI74
aI46
aI32
aI81
aI86
aI41
aI32
aI26
aI35
aI63
aI53
aI86
aI71
aI45
aI63
aI46
aI2
aI2
aI2
aI1
aI2
aI3
aI5
aI1
aI3
aI4
aI4
aI5
aI5
aI1
aI1
aI1
aI1
aI2
aI1
aI1
aI2
aa(lp5
I4
aI10
aI30
aI35
aI41
aI20
aI65
aI31
aI43
aI54
aI55
aI26
aI38
aI82
aI30
aI65
aI42
aI36
aI48
aI49
aI49
aI35
aI73
aI84
aI36
aI33
aI65
aI44
aI40
aI11
aI66
aI62
aI40
aI74
aI59
aI55
aI60
aI94
aI44
aI78
aI35
aI59
aI59
aI30
aI22
aI14
aI4
aI12
aI4
aI18
aI16
aI8
aI15
aI19
aI4
aI5
aI17
aI14
aI3
aI2
aI15
aI4
aI16
aI11
aI4
aI7
aI8
aI10
aI6
aI4
aI2
aI6
aI66
aI63
aI34
aI66
aI61
aI60
aI58
aI62
aI29
aI36
aI45
aI59
aI63
aI12
aI42
aI44
aI70
aI19
aI74
aI44
aI31
aI80
aI34
aI31
aI38
aI54
aI54
aI89
aI46
aI19
aI33
aI60
aI52
aI50
aI79
aI65
aI72
aI43
aI6
aI23
aI55
aI34
aI92
aI76
aI44
aI76
aI19
aI55
aI36
aI36
aI47
aI43
aI53
aI76
aI58
aI69
aI31
aI34
aI51
aI47
aI73
aI57
aI39
aI30
aI68
aI37
aI30
aI58
aI53
aI47
aI51
aI62
aI56
aI53
aI56
aI53
aI46
aI53
aI60
aI34
aI80
aI41
aI23
aI67
aI52
aI12
aI25
aI57
aI53
aI39
aI32
aI63
aI51
aI37
aI39
aI63
aI74
aI69
aI63
aI47
aI29
aI78
aI67
aI59
aI21
aI53
aI74
aI70
aI49
aI62
aI35
aI89
aI65
aI68
aI72
aI29
aI48
aI18
aI47
aI47
aI36
aI58
aI37
aI94
aI73
aI81
aI58
aI12
aI63
aI50
aI72
aI74
aI46
aI32
aI81
aI86
aI41
aI32
aI26
aI35
aI63
aI53
aI86
aI71
aI45
aI63
aI46
aI2
aI2
aI2
aI1
aI2
aI3
aI5
aI1
aI3
aI4
aI4
aI5
aI5
aI1
aI1
aI1
aI1
aI2
aI1
aI1
aI2
aa(lp6
I4
aI10
aI30
aI35
aI41
aI20
aI65
aI31
aI43
aI54
aI55
aI26
aI38
aI82
aI30
aI65
aI42
aI36
aI48
aI49
aI49
aI35
aI73
aI84
aI36
aI33
aI65
aI44
aI40
aI11
aI66
aI62
aI40
aI74
aI59
aI55
aI60
aI94
aI44
aI78
aI35
aI59
aI59
aI30
aI22
aI14
aI4
aI12
aI4
aI18
aI16
aI8
aI15
aI19
aI4
aI5
aI17
aI14
aI3
aI2
aI15
aI4
aI16
aI11
aI4
aI7
aI8
aI10
aI6
aI4
aI2
aI6
aI66
aI63
aI34
aI66
aI61
aI60
aI58
aI62
aI29
aI36
aI45
aI59
aI63
aI12
aI41
aI44
aI70
aI19
aI74
aI44
aI31
aI80
aI34
aI31
aI38
aI55
aI54
aI89
aI46
aI19
aI33
aI60
aI52
aI51
aI79
aI65
aI72
aI43
aI6
aI23
aI55
aI34
aI92
aI76
aI44
aI76
aI19
aI55
aI36
aI36
aI47
aI43
aI53
aI76
aI58
aI69
aI31
aI34
aI51
aI47
aI73
aI57
aI39
aI30
aI68
aI37
aI30
aI58
aI53
aI47
aI51
aI62
aI56
aI53
aI57
aI53
aI46
aI53
aI60
aI34
aI80
aI41
aI23
aI67
aI52
aI12
aI25
aI57
aI53
aI39
aI32
aI63
aI51
aI37
aI39
aI63
aI75
aI69
aI63
aI47
aI29
aI78
aI67
aI59
aI21
aI53
aI74
aI70
aI49
aI62
aI35
aI89
aI65
aI68
aI72
aI29
aI48
aI18
aI47
aI47
aI36
aI57
aI37
aI94
aI73
aI81
aI58
aI12
aI63
aI50
aI72
aI74
aI46
aI32
aI81
aI86
aI41
aI32
aI26
aI35
aI63
aI53
aI86
aI71
aI45
aI63
aI46
aI2
aI2
aI2
aI1
aI2
aI3
aI5
aI1
aI3
aI4
aI4
aI5
aI5
aI1
aI1
aI1
aI1
aI2
aI1
aI1
aI2
aa(lp7
I4
aI10
aI30
aI35
aI41
aI20
aI65
aI31
aI43
aI54
aI55
aI26
aI38
aI82
aI30
aI65
aI42
aI36
aI48
aI49
aI49
aI35
aI73
aI84
aI36
aI33
aI65
aI44
aI40
aI11
aI66
aI62
aI40
aI74
aI59
aI55
aI60
aI94
aI44
aI78
aI35
aI59
aI59
aI30
aI22
aI14
aI4
aI12
aI4
aI18
aI16
aI8
aI15
aI19
aI4
aI5
aI17
aI14
aI3
aI2
aI15
aI4
aI16
aI11
aI4
aI7
aI8
aI10
aI6
aI4
aI2
aI6
aI66
aI63
aI34
aI66
aI61
aI60
aI58
aI62
aI29
aI36
aI45
aI59
aI63
aI12
aI41
aI44
aI70
aI19
aI74
aI44
aI31
aI80
aI34
aI31
aI38
aI55
aI54
aI89
aI46
aI19
aI33
aI60
aI52
aI51
aI79
aI65
aI72
aI43
aI6
aI23
aI55
aI34
aI92
aI76
aI44
aI76
aI19
aI55
aI36
aI36
aI47
aI43
aI53
aI76
aI58
aI69
aI31
aI34
aI51
aI47
aI73
aI57
aI39
aI30
aI68
aI37
aI30
aI58
aI53
aI47
aI51
aI62
aI56
aI53
aI57
aI53
aI46
aI53
aI60
aI34
aI80
aI41
aI23
aI67
aI52
aI12
aI25
aI57
aI53
aI39
aI32
aI63
aI51
aI37
aI39
aI63
aI75
aI69
aI63
aI47
aI29
aI78
aI67
aI59
aI21
aI53
aI74
aI70
aI49
aI62
aI35
aI89
aI65
aI68
aI72
aI29
aI48
aI18
aI47
aI47
aI36
aI57
aI37
aI94
aI73
aI81
aI58
aI12
aI63
aI50
aI72
aI74
aI46
aI32
aI81
aI86
aI41
aI32
aI26
aI35
aI63
aI53
aI86
aI71
aI45
aI63
aI46
aI2
aI2
aI2
aI1
aI2
aI3
aI5
aI1
aI3
aI4
aI4
aI5
aI5
aI1
aI1
aI1
aI1
aI2
aI1
aI1
aI2
aa(lp8
I4
aI10
aI30
aI35
aI41
aI20
aI65
aI31
aI43
aI54
aI55
aI26
aI38
aI82
aI30
aI65
aI42
aI36
aI48
aI49
aI49
aI35
aI73
aI84
aI36
aI33
aI65
aI44
aI40
aI11
aI66
aI62
aI40
aI74
aI59
aI55
aI60
aI94
aI44
aI78
aI35
aI59
aI59
aI30
aI22
aI14
aI4
aI12
aI4
aI18
aI16
aI8
aI15
aI19
aI4
aI5
aI17
aI14
aI3
aI2
aI15
aI4
aI16
aI11
aI4
aI7
aI8
aI10
aI6
aI4
aI2
aI6
aI66
aI63
aI34
aI66
aI61
aI60
aI58
aI62
aI29
aI36
aI45
aI59
aI63
aI12
aI41
aI44
aI70
aI19
aI74
aI44
aI31
aI80
aI34
aI31
aI38
aI55
aI54
aI89
aI46
aI19
aI33
aI60
aI52
aI51
aI79
aI65
aI72
aI43
aI6
aI23
aI55
aI34
aI92
aI76
aI44
aI76
aI19
aI55
aI36
aI36
aI47
aI43
aI53
aI76
aI58
aI69
aI31
aI34
aI51
aI47
aI73
aI57
aI39
aI30
aI68
aI37
aI30
aI58
aI53
aI47
aI51
aI62
aI56
aI53
aI57
aI53
aI46
aI53
aI60
aI34
aI80
aI41
aI23
aI67
aI52
aI12
aI25
aI57
aI53
aI39
aI32
aI63
aI51
aI37
aI39
aI63
aI75
aI69
aI63
aI47
aI29
aI78
aI67
aI59
aI21
aI53
aI74
aI70
aI49
aI62
aI35
aI89
aI65
aI68
aI72
aI29
aI48
aI18
aI47
aI47
aI36
aI57
aI37
aI94
aI73
aI81
aI58
aI12
aI63
aI50
aI72
aI74
aI46
aI32
aI81
aI86
aI41
aI32
aI26
aI35
aI63
aI53
aI86
aI71
aI45
aI63
aI46
aI2
aI2
aI2
aI1
aI2
aI3
aI5
aI1
aI3
aI4
aI4
aI5
aI5
aI1
aI1
aI1
aI1
aI2
aI1
aI1
aI2
aa(lp9
I4
aI10
aI30
aI35
aI41
aI20
aI65
aI31
aI43
aI54
aI55
aI26
aI38
aI82
aI30
aI65
aI42
aI36
aI48
aI49
aI49
aI35
aI73
aI84
aI36
aI33
aI65
aI44
aI40
aI11
aI66
aI62
aI40
aI74
aI59
aI55
aI60
aI94
aI44
aI78
aI35
aI59
aI59
aI30
aI22
aI14
aI4
aI12
aI4
aI18
aI16
aI8
aI15
aI19
aI4
aI5
aI17
aI14
aI3
aI2
aI15
aI4
aI16
aI11
aI4
aI7
aI8
aI10
aI6
aI4
aI2
aI6
aI66
aI63
aI34
aI66
aI61
aI60
aI58
aI62
aI29
aI36
aI45
aI59
aI63
aI12
aI41
aI44
aI70
aI19
aI74
aI44
aI31
aI80
aI34
aI31
aI38
aI55
aI54
aI89
aI46
aI19
aI33
aI60
aI52
aI51
aI79
aI65
aI72
aI43
aI6
aI23
aI55
aI34
aI92
aI76
aI44
aI76
aI19
aI55
aI36
aI36
aI47
aI43
aI53
aI76
aI58
aI69
aI31
aI34
aI51
aI47
aI73
aI57
aI39
aI30
aI68
aI37
aI30
aI58
aI53
aI47
aI51
aI62
aI56
aI53
aI57
aI53
aI46
aI53
aI60
aI34
aI80
aI41
aI23
aI67
aI52
aI12
aI25
aI57
aI53
aI39
aI32
aI63
aI51
aI37
aI39
aI63
aI75
aI69
aI63
aI47
aI29
aI78
aI67
aI59
aI21
aI53
aI74
aI70
aI49
aI62
aI35
aI89
aI65
aI68
aI72
aI29
aI48
aI18
aI47
aI47
aI36
aI57
aI37
aI94
aI73
aI81
aI58
aI12
aI63
aI50
aI72
aI74
aI46
aI32
aI81
aI86
aI41
aI32
aI26
aI35
aI63
aI53
aI86
aI71
aI45
aI63
aI46
aI2
aI2
aI2
aI1
aI2
aI3
aI5
aI1
aI3
aI4
aI4
aI5
aI5
aI1
aI1
aI1
aI1
aI2
aI1
aI1
aI2
aa(lp10
I4
aI10
aI30
aI35
aI41
aI20
aI65
aI31
aI43
aI54
aI55
aI26
aI38
aI82
aI30
aI65
aI42
aI36
aI48
aI49
aI49
aI35
aI73
aI84
aI36
aI33
aI65
aI44
aI40
aI11
aI66
aI62
aI40
aI74
aI59
aI55
aI60
aI94
aI44
aI78
aI35
aI59
aI59
aI30
aI22
aI14
aI4
aI12
aI4
aI18
aI16
aI8
aI15
aI19
aI4
aI5
aI17
aI14
aI3
aI2
aI15
aI4
aI16
aI11
aI4
aI7
aI8
aI10
aI6
aI4
aI2
aI6
aI66
aI63
aI34
aI66
aI61
aI60
aI58
aI62
aI29
aI36
aI45
aI59
aI63
aI12
aI41
aI44
aI70
aI19
aI74
aI44
aI31
aI80
aI34
aI31
aI38
aI55
aI54
aI89
aI46
aI19
aI33
aI60
aI52
aI51
aI79
aI65
aI72
aI43
aI6
aI23
aI55
aI34
aI92
aI76
aI44
aI76
aI19
aI55
aI36
aI36
aI47
aI43
aI53
aI76
aI58
aI69
aI31
aI34
aI51
aI47
aI73
aI57
aI39
aI30
aI68
aI37
aI30
aI58
aI53
aI47
aI51
aI62
aI56
aI53
aI57
aI53
aI46
aI53
aI60
aI34
aI80
aI41
aI23
aI67
aI52
aI12
aI25
aI57
aI53
aI39
aI32
aI63
aI51
aI37
aI39
aI63
aI75
aI69
aI63
aI47
aI29
aI78
aI67
aI59
aI21
aI53
aI74
aI70
aI49
aI62
aI35
aI89
aI65
aI68
aI72
aI29
aI48
aI18
aI47
aI47
aI36
aI57
aI37
aI94
aI73
aI81
aI58
aI12
aI63
aI50
aI72
aI74
aI46
aI32
aI81
aI86
aI41
aI32
aI26
aI35
aI63
aI53
aI86
aI71
aI45
aI63
aI46
aI2
aI2
aI2
aI1
aI2
aI3
aI5
aI1
aI3
aI4
aI4
aI5
aI5
aI1
aI1
aI1
aI1
aI2
aI1
aI1
aI2
aa(lp11
I4
aI10
aI30
aI35
aI41
aI20
aI65
aI31
aI43
aI54
aI55
aI26
aI38
aI82
aI30
aI65
aI42
aI36
aI48
aI49
aI49
aI35
aI73
aI84
aI36
aI33
aI65
aI44
aI40
aI11
aI66
aI62
aI40
aI74
aI59
aI55
aI60
aI94
aI44
aI78
aI35
aI59
aI59
aI30
aI22
aI14
aI4
aI12
aI4
aI18
aI16
aI8
aI15
aI19
aI4
aI5
aI17
aI14
aI3
aI2
aI15
aI4
aI16
aI11
aI4
aI7
aI8
aI10
aI6
aI4
aI2
aI6
aI66
aI63
aI34
aI66
aI61
aI60
aI58
aI62
aI29
aI36
aI45
aI59
aI63
aI12
aI41
aI44
aI70
aI19
aI74
aI44
aI31
aI80
aI34
aI31
aI38
aI55
aI54
aI89
aI46
aI19
aI33
aI60
aI52
aI51
aI79
aI65
aI72
aI43
aI6
aI23
aI55
aI34
aI92
aI76
aI44
aI76
aI19
aI55
aI36
aI36
aI47
aI43
aI53
aI76
aI58
aI69
aI31
aI34
aI51
aI47
aI73
aI57
aI39
aI30
aI68
aI37
aI30
aI58
aI53
aI47
aI51
aI62
aI56
aI53
aI57
aI53
aI46
aI53
aI60
aI34
aI80
aI41
aI23
aI67
aI52
aI12
aI25
aI57
aI53
aI39
aI32
aI63
aI51
aI37
aI39
aI63
aI75
aI69
aI63
aI47
aI29
aI78
aI67
aI59
aI21
aI53
aI74
aI70
aI49
aI62
aI35
aI89
aI65
aI68
aI72
aI29
aI48
aI18
aI47
aI47
aI36
aI57
aI37
aI94
aI73
aI81
aI58
aI12
aI63
aI50
aI72
aI74
aI46
aI32
aI81
aI86
aI41
aI32
aI26
aI35
aI63
aI53
aI86
aI71
aI45
aI63
aI46
aI2
aI2
aI2
aI1
aI2
aI3
aI5
aI1
aI3
aI4
aI4
aI5
aI5
aI1
aI1
aI1
aI1
aI2
aI1
aI1
aI2
aa(lp12
I4
aI10
aI30
aI35
aI41
aI20
aI65
aI31
aI43
aI54
aI55
aI26
aI38
aI82
aI30
aI65
aI42
aI36
aI48
aI49
aI49
aI35
aI73
aI84
aI36
aI33
aI65
aI44
aI40
aI11
aI66
aI62
aI40
aI74
aI59
aI55
aI60
aI94
aI44
aI78
aI35
aI59
aI59
aI30
aI22
aI14
aI4
aI12
aI4
aI18
aI16
aI8
aI15
aI19
aI4
aI5
aI17
aI14
aI3
aI2
aI15
aI4
aI16
aI11
aI4
aI7
aI8
aI10
aI6
aI4
aI2
aI6
aI66
aI63
aI34
aI66
aI61
aI60
aI58
aI62
aI29
aI36
aI45
aI59
aI63
aI12
aI41
aI44
aI70
aI19
aI74
aI44
aI31
aI80
aI34
aI31
aI38
aI55
aI54
aI89
aI46
aI19
aI33
aI60
aI52
aI51
aI79
aI65
aI72
aI43
aI6
aI23
aI55
aI34
aI92
aI76
aI44
aI76
aI19
aI55
aI36
aI36
aI47
aI43
aI53
aI76
aI58
aI69
aI31
aI34
aI51
aI47
aI73
aI57
aI39
aI30
aI68
aI37
aI30
aI58
aI53
aI47
aI51
aI62
aI56
aI53
aI57
aI53
aI46
aI53
aI60
aI34
aI80
aI41
aI23
aI67
aI52
aI12
aI25
aI57
aI53
aI39
aI32
aI63
aI51
aI37
aI39
aI63
aI75
aI69
aI63
aI47
aI29
aI78
aI67
aI59
aI21
aI53
aI74
aI70
aI49
aI62
aI35
aI89
aI65
aI68
aI72
aI29
aI48
aI18
aI47
aI47
aI36
aI57
aI37
aI94
aI73
aI81
aI58
aI12
aI63
aI50
aI72
aI74
aI46
aI32
aI81
aI86
aI41
aI32
aI26
aI35
aI63
aI53
aI86
aI71
aI45
aI63
aI46
aI2
aI2
aI2
aI1
aI2
aI3
aI5
aI1
aI3
aI4
aI4
aI5
aI5
aI1
aI1
aI1
aI1
aI2
aI1
aI1
aI2
aa(lp13
I4
aI10
aI30
aI35
aI41
aI20
aI65
aI31
aI45
aI54
aI55
aI26
aI38
aI82
aI30
aI65
aI42
aI36
aI48
aI49
aI49
aI35
aI73
aI84
aI36
aI33
aI65
aI43
aI40
aI11
aI66
aI62
aI40
aI74
aI59
aI55
aI60
aI94
aI44
aI78
aI35
aI59
aI59
aI30
aI22
aI14
aI4
aI12
aI4
aI18
aI13
aI8
aI15
aI19
aI4
aI5
aI17
aI14
aI3
aI2
aI15
aI4
aI16
aI11
aI4
aI7
aI8
aI10
aI6
aI5
aI2
aI6
aI66
aI63
aI34
aI66
aI61
aI60
aI58
aI62
aI29
aI36
aI45
aI59
aI63
aI12
aI41
aI44
aI75
aI19
aI74
aI43
aI36
aI80
aI34
aI31
aI38
aI55
aI54
aI89
aI46
aI19
aI33
aI60
aI52
aI51
aI79
aI65
aI72
aI43
aI6
aI23
aI55
aI34
aI92
aI76
aI44
aI76
aI19
aI55
aI36
aI40
aI47
aI43
aI49
aI76
aI58
aI66
aI31
aI34
aI51
aI50
aI73
aI57
aI39
aI35
aI68
aI37
aI30
aI59
aI53
aI47
aI51
aI62
aI56
aI53
aI57
aI53
aI46
aI53
aI60
aI34
aI80
aI41
aI23
aI67
aI52
aI12
aI25
aI57
aI53
aI39
aI32
aI63
aI47
aI40
aI44
aI65
aI75
aI69
aI63
aI48
aI30
aI78
aI67
aI59
aI21
aI53
aI74
aI70
aI49
aI62
aI35
aI91
aI65
aI68
aI72
aI29
aI48
aI18
aI47
aI47
aI36
aI61
aI37
aI94
aI73
aI82
aI58
aI12
aI63
aI50
aI72
aI74
aI46
aI32
aI81
aI86
aI41
aI32
aI26
aI35
aI63
aI53
aI86
aI71
aI45
aI63
aI46
aI2
aI2
aI2
aI1
aI2
aI3
aI5
aI1
aI3
aI4
aI4
aI5
aI5
aI1
aI1
aI1
aI1
aI2
aI1
aI1
aI2
aa(lp14
I4
aI10
aI30
aI35
aI41
aI20
aI65
aI31
aI43
aI54
aI55
aI26
aI38
aI82
aI30
aI65
aI42
aI36
aI48
aI49
aI49
aI35
aI73
aI84
aI36
aI33
aI65
aI44
aI40
aI11
aI66
aI62
aI40
aI74
aI59
aI55
aI60
aI94
aI44
aI78
aI35
aI59
aI59
aI30
aI22
aI14
aI4
aI12
aI4
aI18
aI16
aI8
aI15
aI19
aI4
aI5
aI17
aI14
aI3
aI2
aI15
aI4
aI16
aI11
aI4
aI7
aI8
aI10
aI6
aI4
aI2
aI6
aI66
aI63
aI34
aI66
aI61
aI60
aI58
aI62
aI29
aI36
aI45
aI59
aI63
aI12
aI42
aI44
aI70
aI19
aI74
aI44
aI31
aI80
aI34
aI31
aI38
aI54
aI54
aI89
aI46
aI19
aI33
aI60
aI52
aI50
aI79
aI65
aI72
aI43
aI6
aI23
aI55
aI34
aI92
aI76
aI44
aI76
aI19
aI55
aI36
aI36
aI47
aI43
aI53
aI76
aI58
aI69
aI31
aI34
aI51
aI47
aI73
aI57
aI39
aI30
aI68
aI37
aI30
aI58
aI53
aI47
aI51
aI62
aI56
aI53
aI56
aI53
aI46
aI53
aI60
aI34
aI80
aI41
aI23
aI67
aI52
aI12
aI25
aI57
aI53
aI39
aI32
aI63
aI51
aI37
aI39
aI63
aI74
aI69
aI63
aI47
aI29
aI78
aI67
aI59
aI21
aI53
aI74
aI70
aI49
aI62
aI35
aI89
aI65
aI68
aI72
aI29
aI48
aI18
aI47
aI47
aI36
aI58
aI37
aI94
aI73
aI81
aI58
aI12
aI63
aI50
aI72
aI74
aI46
aI32
aI81
aI86
aI41
aI32
aI26
aI35
aI63
aI53
aI86
aI71
aI45
aI63
aI46
aI2
aI2
aI2
aI1
aI2
aI3
aI5
aI1
aI3
aI4
aI4
aI5
aI5
aI1
aI1
aI1
aI1
aI2
aI1
aI1
aI2
aa(lp15
I4
aI10
aI30
aI35
aI41
aI20
aI65
aI31
aI43
aI54
aI55
aI26
aI38
aI82
aI30
aI65
aI42
aI36
aI48
aI49
aI49
aI35
aI73
aI84
aI36
aI33
aI65
aI44
aI40
aI11
aI66
aI62
aI40
aI74
aI59
aI55
aI60
aI94
aI44
aI78
aI35
aI59
aI59
aI30
aI22
aI14
aI4
aI12
aI4
aI18
aI16
aI8
aI15
aI19
aI4
aI5
aI17
aI14
aI3
aI2
aI15
aI4
aI16
aI11
aI4
aI7
aI8
aI10
aI6
aI4
aI2
aI6
aI66
aI63
aI34
aI66
aI61
aI60
aI58
aI62
aI29
aI36
aI45
aI59
aI63
aI12
aI41
aI44
aI70
aI19
aI74
aI44
aI31
aI80
aI34
aI31
aI38
aI55
aI54
aI89
aI46
aI19
aI33
aI60
aI52
aI51
aI79
aI65
aI72
aI43
aI6
aI23
aI55
aI34
aI92
aI76
aI44
aI76
aI19
aI55
aI36
aI36
aI47
aI43
aI53
aI76
aI58
aI69
aI31
aI34
aI51
aI47
aI73
aI57
aI39
aI30
aI68
aI37
aI30
aI58
aI53
aI47
aI51
aI62
aI56
aI53
aI57
aI53
aI46
aI53
aI60
aI34
aI80
aI41
aI23
aI67
aI52
aI12
aI25
aI57
aI53
aI39
aI32
aI63
aI51
aI37
aI39
aI63
aI75
aI69
aI63
aI47
aI29
aI78
aI67
aI59
aI21
aI53
aI74
aI70
aI49
aI62
aI35
aI89
aI65
aI68
aI72
aI29
aI48
aI18
aI47
aI47
aI36
aI57
aI37
aI94
aI73
aI81
aI58
aI12
aI63
aI50
aI72
aI74
aI46
aI32
aI81
aI86
aI41
aI32
aI26
aI35
aI63
aI53
aI86
aI71
aI45
aI63
aI46
aI2
aI2
aI2
aI1
aI2
aI3
aI5
aI1
aI3
aI4
aI4
aI5
aI5
aI1
aI1
aI1
aI1
aI2
aI1
aI1
aI2
aa(lp16
I4
aI10
aI30
aI35
aI41
aI20
aI65
aI31
aI43
aI54
aI55
aI26
aI38
aI82
aI30
aI65
aI42
aI36
aI48
aI49
aI49
aI35
aI73
aI84
aI36
aI33
aI65
aI44
aI40
aI11
aI66
aI62
aI40
aI74
aI59
aI55
aI60
aI94
aI44
aI78
aI35
aI59
aI59
aI30
aI22
aI14
aI4
aI12
aI4
aI18
aI16
aI8
aI15
aI19
aI4
aI5
aI17
aI14
aI3
aI2
aI15
aI4
aI16
aI11
aI4
aI7
aI8
aI10
aI6
aI4
aI2
aI6
aI66
aI63
aI34
aI66
aI61
aI60
aI58
aI62
aI29
aI36
aI45
aI59
aI63
aI12
aI41
aI44
aI70
aI19
aI74
aI44
aI31
aI80
aI34
aI31
aI38
aI55
aI54
aI89
aI46
aI19
aI33
aI60
aI52
aI51
aI79
aI65
aI72
aI43
aI6
aI23
aI55
aI34
aI92
aI76
aI44
aI76
aI19
aI55
aI36
aI36
aI47
aI43
aI53
aI76
aI58
aI69
aI31
aI34
aI51
aI47
aI73
aI57
aI39
aI30
aI68
aI37
aI30
aI58
aI53
aI47
aI51
aI62
aI56
aI53
aI57
aI53
aI46
aI53
aI60
aI34
aI80
aI41
aI23
aI67
aI52
aI12
aI25
aI57
aI53
aI39
aI32
aI63
aI51
aI37
aI39
aI63
aI75
aI69
aI63
aI47
aI29
aI78
aI67
aI59
aI21
aI53
aI74
aI70
aI49
aI62
aI35
aI89
aI65
aI68
aI72
aI29
aI48
aI18
aI47
aI47
aI36
aI57
aI37
aI94
aI73
aI81
aI58
aI12
aI63
aI50
aI72
aI74
aI46
aI32
aI81
aI86
aI41
aI32
aI26
aI35
aI63
aI53
aI86
aI71
aI45
aI63
aI46
aI2
aI2
aI2
aI1
aI2
aI3
aI5
aI1
aI3
aI4
aI4
aI5
aI5
aI1
aI1
aI1
aI1
aI2
aI1
aI1
aI2
aa(lp17
I4
aI10
aI30
aI35
aI41
aI20
aI65
aI31
aI43
aI54
aI55
aI26
aI38
aI82
aI30
aI65
aI42
aI36
aI48
aI49
aI49
aI35
aI73
aI84
aI36
aI33
aI65
aI44
aI40
aI11
aI66
aI62
aI40
aI74
aI59
aI55
aI60
aI94
aI44
aI78
aI35
aI59
aI59
aI30
aI22
aI14
aI4
aI12
aI4
aI18
aI16
aI8
aI15
aI19
aI4
aI5
aI17
aI14
aI3
aI2
aI15
aI4
aI16
aI11
aI4
aI7
aI8
aI10
aI6
aI4
aI2
aI6
aI66
aI63
aI34
aI66
aI61
aI60
aI58
aI62
aI29
aI36
aI45
aI59
aI63
aI12
aI41
aI44
aI70
aI19
aI74
aI44
aI31
aI80
aI34
aI31
aI38
aI55
aI54
aI89
aI46
aI19
aI33
aI60
aI52
aI51
aI79
aI65
aI72
aI43
aI6
aI23
aI55
aI34
aI92
aI76
aI44
aI76
aI19
aI55
aI36
aI36
aI47
aI43
aI53
aI76
aI58
aI69
aI31
aI34
aI51
aI47
aI73
aI57
aI39
aI30
aI68
aI37
aI30
aI58
aI53
aI47
aI51
aI62
aI56
aI53
aI57
aI53
aI46
aI53
aI60
aI34
aI80
aI41
aI23
aI67
aI52
aI12
aI25
aI57
aI53
aI39
aI32
aI63
aI51
aI37
aI39
aI63
aI75
aI69
aI63
aI47
aI29
aI78
aI67
aI59
aI21
aI53
aI74
aI70
aI49
aI62
aI35
aI89
aI65
aI68
aI72
aI29
aI48
aI18
aI47
aI47
aI36
aI57
aI37
aI94
aI73
aI81
aI58
aI12
aI63
aI50
aI72
aI74
aI46
aI32
aI81
aI86
aI41
aI32
aI26
aI35
aI63
aI53
aI86
aI71
aI45
aI63
aI46
aI2
aI2
aI2
aI1
aI2
aI3
aI5
aI1
aI3
aI4
aI4
aI5
aI5
aI1
aI1
aI1
aI1
aI2
aI1
aI1
aI2
aa(lp18
I4
aI10
aI30
aI35
aI41
aI20
aI65
aI31
aI43
aI54
aI55
aI26
aI38
aI82
aI30
aI65
aI42
aI36
aI48
aI49
aI49
aI35
aI73
aI84
aI36
aI33
aI65
aI44
aI40
aI11
aI66
aI62
aI40
aI74
aI59
aI55
aI60
aI94
aI44
aI78
aI35
aI59
aI59
aI30
aI22
aI14
aI4
aI12
aI4
aI18
aI16
aI8
aI15
aI19
aI4
aI5
aI17
aI14
aI3
aI2
aI15
aI4
aI16
aI11
aI4
aI7
aI8
aI10
aI6
aI4
aI2
aI6
aI66
aI63
aI34
aI66
aI61
aI60
aI58
aI62
aI29
aI36
aI45
aI59
aI63
aI12
aI42
aI44
aI70
aI19
aI74
aI44
aI31
aI80
aI34
aI31
aI38
aI54
aI54
aI89
aI46
aI19
aI33
aI60
aI52
aI50
aI79
aI65
aI72
aI43
aI6
aI23
aI55
aI34
aI92
aI76
aI44
aI76
aI19
aI55
aI36
aI36
aI47
aI43
aI53
aI76
aI58
aI69
aI31
aI34
aI51
aI47
aI73
aI57
aI39
aI30
aI68
aI37
aI30
aI58
aI53
aI47
aI51
aI62
aI56
aI53
aI56
aI53
aI46
aI53
aI60
aI34
aI80
aI41
aI23
aI67
aI52
aI12
aI25
aI57
aI53
aI39
aI32
aI63
aI51
aI37
aI39
aI63
aI74
aI69
aI63
aI47
aI29
aI78
aI67
aI59
aI21
aI53
aI74
aI70
aI49
aI62
aI35
aI89
aI65
aI68
aI72
aI29
aI48
aI18
aI47
aI47
aI36
aI58
aI37
aI94
aI73
aI81
aI58
aI12
aI63
aI50
aI72
aI74
aI46
aI32
aI81
aI86
aI41
aI32
aI26
aI35
aI63
aI53
aI86
aI71
aI45
aI63
aI46
aI2
aI2
aI2
aI1
aI2
aI3
aI5
aI1
aI3
aI4
aI4
aI5
aI5
aI1
aI1
aI1
aI1
aI2
aI1
aI1
aI2
aa(lp19
I4
aI10
aI30
aI35
aI41
aI20
aI65
aI31
aI45
aI54
aI55
aI26
aI38
aI82
aI30
aI65
aI42
aI36
aI48
aI49
aI49
aI35
aI73
aI84
aI36
aI33
aI65
aI43
aI40
aI11
aI66
aI62
aI40
aI74
aI59
aI55
aI60
aI94
aI44
aI78
aI35
aI59
aI59
aI30
aI22
aI14
aI4
aI12
aI4
aI18
aI13
aI8
aI15
aI19
aI4
aI5
aI17
aI14
aI3
aI2
aI15
aI4
aI16
aI11
aI4
aI7
aI8
aI10
aI6
aI5
aI2
aI6
aI66
aI63
aI34
aI66
aI61
aI60
aI58
aI62
aI29
aI36
aI45
aI59
aI63
aI12
aI41
aI44
aI75
aI19
aI74
aI43
aI36
aI80
aI34
aI31
aI38
aI55
aI54
aI89
aI46
aI19
aI33
aI60
aI52
aI51
aI79
aI65
aI72
aI43
aI6
aI23
aI55
aI34
aI92
aI76
aI44
aI76
aI19
aI55
aI36
aI40
aI47
aI43
aI49
aI76
aI58
aI66
aI31
aI34
aI51
aI50
aI73
aI57
aI39
aI35
aI68
aI37
aI30
aI59
aI53
aI47
aI51
aI62
aI56
aI53
aI57
aI53
aI46
aI53
aI60
aI34
aI80
aI41
aI23
aI67
aI52
aI12
aI25
aI57
aI53
aI39
aI32
aI63
aI47
aI40
aI44
aI65
aI75
aI69
aI63
aI48
aI30
aI78
aI67
aI59
aI21
aI53
aI74
aI70
aI49
aI62
aI35
aI91
aI65
aI68
aI72
aI29
aI48
aI18
aI47
aI47
aI36
aI61
aI37
aI94
aI73
aI82
aI58
aI12
aI63
aI50
aI72
aI74
aI46
aI32
aI81
aI86
aI41
aI32
aI26
aI35
aI63
aI53
aI86
aI71
aI45
aI63
aI46
aI2
aI2
aI2
aI1
aI2
aI3
aI5
aI1
aI3
aI4
aI4
aI5
aI5
aI1
aI1
aI1
aI1
aI2
aI1
aI1
aI2
aa(lp20
I4
aI10
aI30
aI35
aI41
aI20
aI65
aI31
aI43
aI54
aI55
aI26
aI38
aI82
aI30
aI65
aI42
aI36
aI48
aI49
aI49
aI35
aI73
aI84
aI36
aI33
aI65
aI44
aI40
aI11
aI66
aI62
aI40
aI74
aI59
aI55
aI60
aI94
aI44
aI78
aI35
aI59
aI59
aI30
aI22
aI14
aI4
aI12
aI4
aI18
aI16
aI8
aI15
aI19
aI4
aI5
aI17
aI14
aI3
aI2
aI15
aI4
aI16
aI11
aI4
aI7
aI8
aI10
aI6
aI4
aI2
aI6
aI66
aI63
aI34
aI66
aI61
aI60
aI58
aI62
aI29
aI36
aI45
aI59
aI63
aI12
aI41
aI44
aI70
aI19
aI74
aI44
aI31
aI80
aI34
aI31
aI38
aI55
aI54
aI89
aI46
aI19
aI33
aI60
aI52
aI51
aI79
aI65
aI72
aI43
aI6
aI23
aI55
aI34
aI92
aI76
aI44
aI76
aI19
aI55
aI36
aI36
aI47
aI43
aI53
aI76
aI58
aI69
aI31
aI34
aI51
aI47
aI73
aI57
aI39
aI30
aI68
aI37
aI30
aI58
aI53
aI47
aI51
aI62
aI56
aI53
aI57
aI53
aI46
aI53
aI60
aI34
aI80
aI41
aI23
aI67
aI52
aI12
aI25
aI57
aI53
aI39
aI32
aI63
aI51
aI37
aI39
aI63
aI75
aI69
aI63
aI47
aI29
aI78
aI67
aI59
aI21
aI53
aI74
aI70
aI49
aI62
aI35
aI89
aI65
aI68
aI72
aI29
aI48
aI18
aI47
aI47
aI36
aI57
aI37
aI94
aI73
aI81
aI58
aI12
aI63
aI50
aI72
aI74
aI46
aI32
aI81
aI86
aI41
aI32
aI26
aI35
aI63
aI53
aI86
aI71
aI45
aI63
aI46
aI2
aI2
aI2
aI1
aI2
aI3
aI5
aI1
aI3
aI4
aI4
aI5
aI5
aI1
aI1
aI1
aI1
aI2
aI1
aI1
aI2
aag20
a(lp21
I4
aI10
aI30
aI35
aI42
aI20
aI65
aI31
aI45
aI54
aI55
aI26
aI38
aI81
aI30
aI64
aI42
aI36
aI48
aI49
aI49
aI35
aI73
aI84
aI36
aI33
aI65
aI43
aI40
aI11
aI66
aI62
aI40
aI74
aI59
aI55
aI60
aI94
aI44
aI78
aI35
aI59
aI59
aI31
aI22
aI14
aI4
aI13
aI4
aI18
aI14
aI8
aI15
aI19
aI4
aI5
aI17
aI15
aI3
aI2
aI15
aI4
aI16
aI11
aI4
aI7
aI8
aI10
aI6
aI5
aI2
aI6
aI66
aI63
aI34
aI66
aI61
aI60
aI59
aI62
aI29
aI36
aI45
aI59
aI63
aI11
aI42
aI44
aI74
aI19
aI74
aI43
aI35
aI80
aI34
aI31
aI38
aI54
aI54
aI89
aI46
aI19
aI33
aI60
aI52
aI50
aI79
aI65
aI72
aI43
aI6
aI23
aI55
aI34
aI92
aI76
aI44
aI76
aI19
aI55
aI37
aI39
aI47
aI43
aI50
aI76
aI58
aI67
aI31
aI34
aI51
aI50
aI73
aI57
aI39
aI34
aI68
aI37
aI30
aI59
aI53
aI47
aI51
aI62
aI56
aI53
aI56
aI53
aI46
aI53
aI60
aI34
aI80
aI41
aI23
aI67
aI52
aI12
aI25
aI57
aI53
aI39
aI32
aI63
aI48
aI40
aI43
aI65
aI74
aI69
aI63
aI48
aI30
aI78
aI67
aI59
aI21
aI53
aI74
aI70
aI49
aI62
aI34
aI91
aI65
aI67
aI72
aI29
aI48
aI18
aI46
aI47
aI36
aI61
aI36
aI94
aI73
aI82
aI58
aI12
aI63
aI50
aI72
aI74
aI46
aI32
aI82
aI86
aI41
aI32
aI26
aI35
aI63
aI53
aI86
aI71
aI45
aI63
aI46
aI2
aI2
aI2
aI1
aI2
aI3
aI5
aI1
aI3
aI4
aI3
aI5
aI5
aI1
aI1
aI1
aI1
aI2
aI1
aI1
aI2
aa(lp22
I4
aI10
aI30
aI35
aI42
aI20
aI65
aI31
aI43
aI54
aI55
aI26
aI38
aI81
aI30
aI64
aI42
aI36
aI48
aI49
aI49
aI35
aI73
aI84
aI36
aI33
aI65
aI44
aI40
aI11
aI66
aI62
aI40
aI74
aI59
aI55
aI60
aI94
aI44
aI78
aI35
aI59
aI59
aI31
aI22
aI14
aI4
aI13
aI4
aI18
aI16
aI8
aI15
aI19
aI4
aI5
aI17
aI15
aI3
aI2
aI15
aI4
aI16
aI11
aI4
aI7
aI8
aI10
aI6
aI4
aI2
aI6
aI66
aI63
aI34
aI66
aI61
aI60
aI59
aI62
aI29
aI36
aI45
aI59
aI63
aI11
aI43
aI44
aI70
aI19
aI74
aI44
aI31
aI80
aI34
aI31
aI38
aI53
aI54
aI89
aI46
aI19
aI33
aI60
aI52
aI49
aI79
aI65
aI72
aI43
aI6
aI23
aI55
aI34
aI92
aI76
aI44
aI76
aI19
aI55
aI37
aI36
aI47
aI43
aI53
aI76
aI58
aI69
aI31
aI34
aI51
aI48
aI73
aI57
aI39
aI30
aI68
aI37
aI30
aI58
aI53
aI47
aI51
aI62
aI56
aI53
aI55
aI53
aI46
aI53
aI60
aI34
aI80
aI41
aI23
aI67
aI52
aI12
aI25
aI57
aI53
aI39
aI32
aI63
aI51
aI37
aI39
aI63
aI73
aI69
aI63
aI47
aI29
aI78
aI67
aI59
aI21
aI53
aI74
aI70
aI49
aI62
aI34
aI89
aI65
aI67
aI72
aI29
aI48
aI18
aI46
aI47
aI36
aI59
aI36
aI94
aI73
aI81
aI58
aI12
aI63
aI50
aI72
aI74
aI46
aI32
aI82
aI86
aI41
aI32
aI26
aI35
aI63
aI53
aI86
aI71
aI45
aI63
aI46
aI2
aI2
aI2
aI1
aI2
aI3
aI5
aI1
aI3
aI4
aI3
aI5
aI5
aI1
aI1
aI1
aI1
aI2
aI1
aI1
aI2
aa(lp23
I4
aI10
aI30
aI35
aI42
aI20
aI65
aI31
aI45
aI54
aI55
aI26
aI38
aI81
aI30
aI64
aI42
aI36
aI48
aI49
aI49
aI35
aI73
aI84
aI36
aI33
aI65
aI43
aI40
aI11
aI66
aI62
aI40
aI74
aI59
aI55
aI60
aI94
aI44
aI78
aI35
aI59
aI59
aI31
aI22
aI14
aI4
aI13
aI4
aI18
aI13
aI8
aI15
aI19
aI4
aI5
aI17
aI14
aI3
aI2
aI15
aI4
aI16
aI11
aI4
aI7
aI8
aI10
aI6
aI5
aI2
aI6
aI66
aI63
aI34
aI66
aI61
aI60
aI58
aI62
aI29
aI36
aI45
aI59
aI63
aI12
aI42
aI44
aI74
aI19
aI74
aI43
aI35
aI80
aI34
aI31
aI38
aI54
aI54
aI89
aI46
aI19
aI33
aI60
aI52
aI50
aI79
aI65
aI72
aI43
aI6
aI23
aI55
aI34
aI92
aI76
aI44
aI76
aI19
aI55
aI37
aI39
aI47
aI43
aI50
aI76
aI58
aI66
aI31
aI34
aI51
aI50
aI73
aI57
aI39
aI34
aI68
aI37
aI30
aI59
aI53
aI47
aI51
aI62
aI56
aI53
aI56
aI53
aI46
aI53
aI60
aI34
aI80
aI41
aI23
aI67
aI52
aI12
aI25
aI57
aI53
aI39
aI32
aI63
aI48
aI40
aI43
aI65
aI74
aI69
aI63
aI48
aI30
aI78
aI67
aI59
aI21
aI53
aI74
aI70
aI49
aI62
aI35
aI91
aI65
aI67
aI72
aI29
aI48
aI18
aI46
aI47
aI36
aI61
aI36
aI94
aI73
aI82
aI58
aI12
aI63
aI50
aI72
aI74
aI46
aI32
aI82
aI86
aI41
aI32
aI26
aI35
aI63
aI53
aI86
aI71
aI45
aI63
aI46
aI2
aI2
aI2
aI1
aI2
aI3
aI5
aI1
aI3
aI4
aI4
aI5
aI5
aI1
aI1
aI1
aI1
aI2
aI1
aI1
aI2
aa(lp24
I4
aI10
aI30
aI35
aI42
aI20
aI65
aI31
aI43
aI54
aI55
aI26
aI38
aI81
aI30
aI64
aI42
aI36
aI48
aI49
aI49
aI35
aI73
aI84
aI36
aI33
aI65
aI44
aI40
aI11
aI66
aI62
aI40
aI74
aI59
aI55
aI60
aI94
aI44
aI78
aI35
aI59
aI59
aI31
aI22
aI14
aI4
aI13
aI4
aI18
aI16
aI8
aI15
aI19
aI4
aI5
aI17
aI15
aI3
aI2
aI15
aI4
aI16
aI11
aI4
aI7
aI8
aI10
aI6
aI4
aI2
aI6
aI66
aI63
aI34
aI66
aI61
aI60
aI59
aI62
aI29
aI36
aI45
aI59
aI63
aI11
aI42
aI44
aI70
aI19
aI74
aI44
aI31
aI80
aI34
aI31
aI38
aI54
aI54
aI89
aI46
aI19
aI33
aI60
aI52
aI50
aI79
aI65
aI72
aI43
aI6
aI23
aI55
aI34
aI92
aI76
aI44
aI76
aI19
aI55
aI37
aI36
aI47
aI43
aI53
aI76
aI58
aI69
aI31
aI34
aI51
aI48
aI73
aI57
aI39
aI30
aI68
aI37
aI30
aI58
aI53
aI47
aI51
aI62
aI56
aI53
aI56
aI53
aI46
aI53
aI60
aI34
aI80
aI41
aI23
aI67
aI52
aI12
aI25
aI57
aI53
aI39
aI32
aI63
aI51
aI37
aI39
aI63
aI74
aI69
aI63
aI47
aI29
aI78
aI67
aI59
aI21
aI53
aI74
aI70
aI49
aI62
aI34
aI89
aI65
aI67
aI72
aI29
aI48
aI18
aI46
aI47
aI36
aI58
aI36
aI94
aI73
aI81
aI58
aI12
aI63
aI50
aI72
aI74
aI46
aI32
aI82
aI86
aI41
aI32
aI26
aI35
aI63
aI53
aI86
aI71
aI45
aI63
aI46
aI2
aI2
aI2
aI1
aI2
aI3
aI5
aI1
aI3
aI4
aI3
aI5
aI5
aI1
aI1
aI1
aI1
aI2
aI1
aI1
aI2
aa(lp25
I4
aI10
aI30
aI35
aI42
aI20
aI65
aI31
aI43
aI54
aI55
aI26
aI38
aI81
aI30
aI64
aI42
aI36
aI48
aI49
aI49
aI35
aI73
aI84
aI36
aI33
aI65
aI44
aI40
aI11
aI66
aI62
aI40
aI74
aI59
aI55
aI60
aI94
aI44
aI78
aI35
aI59
aI59
aI31
aI22
aI14
aI4
aI13
aI4
aI18
aI16
aI8
aI15
aI19
aI4
aI5
aI17
aI15
aI3
aI2
aI15
aI4
aI16
aI11
aI4
aI7
aI8
aI10
aI6
aI4
aI2
aI6
aI66
aI63
aI34
aI66
aI61
aI60
aI59
aI62
aI29
aI36
aI45
aI59
aI63
aI11
aI42
aI44
aI70
aI19
aI74
aI44
aI31
aI80
aI34
aI31
aI38
aI54
aI54
aI89
aI46
aI19
aI33
aI60
aI52
aI50
aI79
aI65
aI72
aI43
aI6
aI23
aI55
aI34
aI92
aI76
aI44
aI76
aI19
aI55
aI37
aI36
aI47
aI43
aI53
aI76
aI58
aI69
aI31
aI34
aI51
aI48
aI73
aI57
aI39
aI30
aI68
aI37
aI30
aI58
aI53
aI47
aI51
aI62
aI56
aI53
aI56
aI53
aI46
aI53
aI60
aI34
aI80
aI41
aI23
aI67
aI52
aI12
aI25
aI57
aI53
aI39
aI32
aI63
aI51
aI37
aI39
aI63
aI74
aI69
aI63
aI47
aI29
aI78
aI67
aI59
aI21
aI53
aI74
aI70
aI49
aI62
aI34
aI89
aI65
aI67
aI72
aI29
aI48
aI18
aI46
aI47
aI36
aI58
aI36
aI94
aI73
aI81
aI58
aI12
aI63
aI50
aI72
aI74
aI46
aI32
aI82
aI86
aI41
aI32
aI26
aI35
aI63
aI53
aI86
aI71
aI45
aI63
aI46
aI2
aI2
aI2
aI1
aI2
aI3
aI5
aI1
aI3
aI4
aI3
aI5
aI5
aI1
aI1
aI1
aI1
aI2
aI1
aI1
aI2
aa(lp26
I4
aI10
aI30
aI35
aI42
aI20
aI65
aI31
aI43
aI54
aI55
aI26
aI38
aI81
aI30
aI64
aI42
aI36
aI48
aI49
aI49
aI35
aI73
aI84
aI36
aI33
aI65
aI44
aI40
aI11
aI66
aI62
aI40
aI74
aI59
aI55
aI60
aI94
aI44
aI78
aI35
aI59
aI59
aI31
aI22
aI14
aI4
aI13
aI4
aI18
aI16
aI8
aI15
aI19
aI4
aI5
aI17
aI15
aI3
aI2
aI15
aI4
aI16
aI11
aI4
aI7
aI8
aI10
aI6
aI4
aI2
aI6
aI66
aI63
aI34
aI66
aI61
aI60
aI59
aI62
aI29
aI36
aI45
aI59
aI63
aI11
aI43
aI44
aI70
aI19
aI74
aI44
aI31
aI80
aI34
aI31
aI38
aI53
aI54
aI89
aI46
aI19
aI33
aI60
aI52
aI49
aI79
aI65
aI72
aI43
aI6
aI23
aI55
aI34
aI92
aI76
aI44
aI76
aI19
aI55
aI37
aI36
aI47
aI43
aI53
aI76
aI58
aI69
aI31
aI34
aI51
aI48
aI73
aI57
aI39
aI30
aI68
aI37
aI30
aI58
aI53
aI47
aI51
aI62
aI56
aI53
aI55
aI53
aI46
aI53
aI60
aI34
aI80
aI41
aI23
aI67
aI52
aI12
aI25
aI57
aI53
aI39
aI32
aI63
aI51
aI37
aI39
aI63
aI73
aI69
aI63
aI47
aI29
aI78
aI67
aI59
aI21
aI53
aI74
aI70
aI49
aI62
aI34
aI89
aI65
aI67
aI72
aI29
aI48
aI18
aI46
aI47
aI36
aI59
aI36
aI94
aI73
aI81
aI58
aI12
aI63
aI50
aI72
aI74
aI46
aI32
aI82
aI86
aI41
aI32
aI26
aI35
aI63
aI53
aI86
aI71
aI45
aI63
aI46
aI2
aI2
aI2
aI1
aI2
aI3
aI5
aI1
aI3
aI4
aI3
aI5
aI5
aI1
aI1
aI1
aI1
aI2
aI1
aI1
aI2
aa(lp27
I4
aI10
aI30
aI35
aI42
aI20
aI65
aI31
aI45
aI54
aI55
aI26
aI38
aI81
aI30
aI64
aI42
aI36
aI48
aI49
aI49
aI35
aI73
aI84
aI36
aI33
aI65
aI43
aI40
aI11
aI66
aI62
aI40
aI74
aI59
aI55
aI60
aI94
aI44
aI78
aI35
aI59
aI59
aI31
aI22
aI14
aI4
aI13
aI4
aI18
aI13
aI8
aI15
aI19
aI4
aI5
aI17
aI14
aI3
aI2
aI15
aI4
aI16
aI11
aI4
aI7
aI8
aI10
aI6
aI5
aI2
aI6
aI66
aI63
aI34
aI66
aI61
aI60
aI58
aI62
aI29
aI36
aI45
aI59
aI63
aI12
aI42
aI44
aI74
aI19
aI74
aI43
aI35
aI80
aI34
aI31
aI38
aI54
aI54
aI89
aI46
aI19
aI33
aI60
aI52
aI50
aI79
aI65
aI72
aI43
aI6
aI23
aI55
aI34
aI92
aI76
aI44
aI76
aI19
aI55
aI37
aI39
aI47
aI43
aI50
aI76
aI58
aI66
aI31
aI34
aI51
aI50
aI73
aI57
aI39
aI34
aI68
aI37
aI30
aI59
aI53
aI47
aI51
aI62
aI56
aI53
aI56
aI53
aI46
aI53
aI60
aI34
aI80
aI41
aI23
aI67
aI52
aI12
aI25
aI57
aI53
aI39
aI32
aI63
aI48
aI40
aI43
aI65
aI74
aI69
aI63
aI48
aI30
aI78
aI67
aI59
aI21
aI53
aI74
aI70
aI49
aI62
aI35
aI91
aI65
aI67
aI72
aI29
aI48
aI18
aI46
aI47
aI36
aI61
aI36
aI94
aI73
aI82
aI58
aI12
aI63
aI50
aI72
aI74
aI46
aI32
aI82
aI86
aI41
aI32
aI26
aI35
aI63
aI53
aI86
aI71
aI45
aI63
aI46
aI2
aI2
aI2
aI1
aI2
aI3
aI5
aI1
aI3
aI4
aI4
aI5
aI5
aI1
aI1
aI1
aI1
aI2
aI1
aI1
aI2
aa(lp28
I4
aI10
aI30
aI35
aI43
aI20
aI65
aI31
aI43
aI54
aI55
aI26
aI38
aI80
aI30
aI63
aI42
aI36
aI48
aI49
aI49
aI35
aI73
aI84
aI36
aI33
aI65
aI44
aI40
aI11
aI66
aI62
aI40
aI74
aI59
aI55
aI60
aI94
aI44
aI78
aI35
aI59
aI59
aI32
aI22
aI14
aI4
aI14
aI4
aI18
aI16
aI8
aI15
aI19
aI4
aI5
aI17
aI15
aI3
aI2
aI15
aI4
aI16
aI11
aI4
aI7
aI8
aI10
aI6
aI4
aI2
aI6
aI66
aI63
aI34
aI66
aI61
aI60
aI59
aI62
aI29
aI36
aI45
aI59
aI63
aI11
aI43
aI44
aI70
aI19
aI74
aI44
aI31
aI80
aI34
aI31
aI38
aI53
aI54
aI89
aI46
aI19
aI33
aI60
aI52
aI49
aI79
aI65
aI72
aI43
aI6
aI23
aI55
aI34
aI92
aI76
aI44
aI76
aI19
aI55
aI38
aI36
aI47
aI43
aI53
aI76
aI58
aI69
aI31
aI34
aI51
aI48
aI73
aI57
aI39
aI30
aI68
aI37
aI30
aI58
aI53
aI47
aI51
aI62
aI56
aI53
aI55
aI53
aI46
aI53
aI60
aI34
aI80
aI41
aI23
aI67
aI52
aI12
aI25
aI57
aI53
aI39
aI32
aI63
aI51
aI37
aI39
aI63
aI73
aI69
aI63
aI47
aI29
aI78
aI67
aI59
aI21
aI53
aI74
aI70
aI49
aI62
aI34
aI89
aI65
aI66
aI72
aI29
aI48
aI18
aI45
aI47
aI36
aI59
aI35
aI94
aI73
aI81
aI58
aI12
aI63
aI50
aI72
aI74
aI46
aI32
aI83
aI86
aI41
aI32
aI26
aI35
aI63
aI53
aI86
aI71
aI45
aI63
aI46
aI2
aI2
aI2
aI1
aI2
aI3
aI5
aI1
aI3
aI4
aI3
aI5
aI5
aI1
aI1
aI1
aI1
aI2
aI1
aI1
aI2
aa(lp29
I4
aI10
aI30
aI36
aI42
aI20
aI65
aI31
aI42
aI54
aI55
aI26
aI37
aI81
aI30
aI64
aI42
aI35
aI48
aI49
aI49
aI35
aI74
aI84
aI36
aI33
aI65
aI44
aI39
aI11
aI66
aI62
aI40
aI76
aI59
aI54
aI60
aI94
aI44
aI78
aI35
aI59
aI59
aI31
aI21
aI14
aI4
aI13
aI3
aI17
aI16
aI8
aI15
aI19
aI4
aI6
aI17
aI15
aI3
aI2
aI15
aI4
aI16
aI11
aI4
aI7
aI8
aI9
aI6
aI4
aI2
aI6
aI67
aI63
aI34
aI66
aI61
aI60
aI58
aI62
aI29
aI37
aI45
aI59
aI64
aI11
aI42
aI44
aI70
aI19
aI74
aI44
aI31
aI80
aI34
aI31
aI38
aI54
aI54
aI89
aI46
aI19
aI33
aI60
aI51
aI50
aI79
aI65
aI73
aI43
aI6
aI23
aI55
aI33
aI92
aI76
aI45
aI76
aI19
aI54
aI36
aI36
aI47
aI43
aI53
aI76
aI58
aI69
aI32
aI35
aI51
aI48
aI73
aI57
aI39
aI30
aI68
aI37
aI30
aI57
aI53
aI48
aI50
aI62
aI56
aI53
aI56
aI54
aI47
aI53
aI61
aI34
aI80
aI41
aI23
aI68
aI52
aI12
aI25
aI56
aI53
aI39
aI32
aI63
aI50
aI36
aI39
aI62
aI75
aI70
aI63
aI47
aI29
aI78
aI67
aI60
aI21
aI54
aI75
aI71
aI49
aI62
aI36
aI89
aI66
aI67
aI71
aI30
aI48
aI18
aI46
aI47
aI36
aI57
aI37
aI93
aI73
aI81
aI57
aI12
aI63
aI50
aI72
aI74
aI46
aI32
aI82
aI86
aI41
aI32
aI26
aI35
aI63
aI53
aI86
aI70
aI45
aI64
aI45
aI2
aI2
aI2
aI1
aI2
aI2
aI5
aI2
aI3
aI4
aI3
aI5
aI5
aI1
aI1
aI1
aI1
aI2
aI1
aI1
aI2
aa(lp30
I4
aI9
aI30
aI36
aI44
aI20
aI65
aI31
aI44
aI53
aI55
aI26
aI38
aI79
aI30
aI62
aI42
aI36
aI49
aI49
aI49
aI37
aI72
aI84
aI36
aI33
aI65
aI44
aI42
aI11
aI66
aI62
aI40
aI75
aI59
aI55
aI60
aI93
aI42
aI77
aI35
aI59
aI59
aI33
aI20
aI14
aI4
aI15
aI4
aI20
aI15
aI8
aI15
aI19
aI4
aI7
aI17
aI16
aI3
aI2
aI15
aI4
aI16
aI11
aI3
aI7
aI8
aI8
aI5
aI4
aI2
aI5
aI66
aI63
aI34
aI66
aI61
aI60
aI60
aI62
aI29
aI35
aI45
aI59
aI63
aI10
aI46
aI42
aI71
aI19
aI74
aI45
aI32
aI80
aI34
aI31
aI38
aI51
aI54
aI89
aI46
aI19
aI33
aI60
aI54
aI47
aI78
aI65
aI72
aI43
aI6
aI23
aI55
aI32
aI92
aI76
aI42
aI76
aI19
aI55
aI39
aI37
aI47
aI43
aI52
aI76
aI58
aI68
aI29
aI36
aI51
aI50
aI73
aI57
aI39
aI31
aI69
aI37
aI30
aI58
aI53
aI47
aI51
aI62
aI56
aI52
aI53
aI51
aI46
aI53
aI60
aI34
aI80
aI41
aI25
aI67
aI52
aI13
aI24
aI57
aI53
aI39
aI32
aI63
aI52
aI39
aI40
aI63
aI71
aI69
aI63
aI47
aI29
aI78
aI67
aI58
aI21
aI51
aI74
aI69
aI49
aI62
aI33
aI89
aI63
aI65
aI74
aI29
aI48
aI18
aI44
aI48
aI36
aI62
aI34
aI96
aI73
aI81
aI60
aI11
aI63
aI49
aI72
aI74
aI46
aI32
aI84
aI86
aI41
aI32
aI26
aI35
aI63
aI53
aI86
aI73
aI45
aI61
aI46
aI2
aI2
aI3
aI1
aI2
aI4
aI5
aI3
aI3
aI4
aI2
aI5
aI5
aI1
aI1
aI1
aI1
aI2
aI2
aI1
aI2
aa(lp31
I4
aI9
aI30
aI36
aI44
aI20
aI65
aI31
aI44
aI53
aI55
aI26
aI38
aI79
aI30
aI62
aI42
aI36
aI49
aI49
aI49
aI37
aI72
aI84
aI36
aI33
aI65
aI44
aI42
aI11
aI66
aI62
aI40
aI75
aI59
aI55
aI60
aI93
aI42
aI77
aI35
aI59
aI59
aI33
aI20
aI14
aI4
aI15
aI4
aI20
aI16
aI8
aI15
aI19
aI4
aI7
aI17
aI17
aI3
aI2
aI15
aI4
aI16
aI11
aI3
aI7
aI8
aI8
aI5
aI4
aI2
aI5
aI66
aI63
aI34
aI66
aI61
aI60
aI61
aI62
aI29
aI35
aI45
aI59
aI63
aI9
aI46
aI42
aI70
aI19
aI74
aI45
aI31
aI80
aI34
aI31
aI38
aI51
aI54
aI89
aI46
aI19
aI33
aI60
aI54
aI47
aI78
aI65
aI72
aI43
aI6
aI23
aI55
aI32
aI92
aI76
aI42
aI76
aI19
aI55
aI39
aI36
aI47
aI43
aI53
aI76
aI58
aI69
aI29
aI36
aI51
aI50
aI73
aI57
aI39
aI30
aI69
aI37
aI30
aI58
aI53
aI47
aI51
aI62
aI56
aI52
aI53
aI51
aI46
aI53
aI60
aI34
aI80
aI41
aI25
aI67
aI52
aI13
aI24
aI57
aI53
aI39
aI32
aI63
aI53
aI39
aI39
aI63
aI71
aI69
aI63
aI47
aI29
aI78
aI67
aI58
aI21
aI51
aI74
aI69
aI49
aI62
aI32
aI89
aI63
aI65
aI74
aI29
aI48
aI18
aI44
aI48
aI36
aI61
aI34
aI96
aI73
aI81
aI60
aI11
aI63
aI49
aI72
aI74
aI46
aI32
aI84
aI86
aI41
aI32
aI26
aI35
aI63
aI53
aI86
aI73
aI45
aI61
aI46
aI2
aI2
aI3
aI1
aI2
aI4
aI5
aI3
aI3
aI4
aI1
aI5
aI5
aI1
aI1
aI1
aI1
aI2
aI2
aI1
aI2
aa(lp32
I4
aI9
aI30
aI36
aI44
aI20
aI65
aI31
aI44
aI53
aI55
aI26
aI38
aI79
aI30
aI62
aI42
aI36
aI49
aI49
aI49
aI37
aI72
aI84
aI36
aI33
aI65
aI44
aI42
aI11
aI66
aI62
aI40
aI75
aI59
aI55
aI60
aI93
aI42
aI77
aI35
aI59
aI59
aI33
aI20
aI14
aI4
aI15
aI4
aI20
aI16
aI8
aI15
aI19
aI4
aI7
aI17
aI16
aI3
aI2
aI15
aI4
aI16
aI11
aI3
aI7
aI8
aI8
aI5
aI4
aI2
aI5
aI66
aI63
aI34
aI66
aI61
aI60
aI60
aI62
aI29
aI35
aI45
aI59
aI63
aI10
aI46
aI42
aI70
aI19
aI74
aI45
aI31
aI80
aI34
aI31
aI38
aI51
aI54
aI89
aI46
aI19
aI33
aI60
aI54
aI47
aI78
aI65
aI72
aI43
aI6
aI23
aI55
aI32
aI92
aI76
aI42
aI76
aI19
aI55
aI39
aI36
aI47
aI43
aI53
aI76
aI58
aI69
aI29
aI36
aI51
aI49
aI73
aI57
aI39
aI30
aI69
aI37
aI30
aI58
aI53
aI47
aI51
aI62
aI56
aI52
aI53
aI51
aI46
aI53
aI60
aI34
aI80
aI41
aI25
aI67
aI52
aI13
aI24
aI57
aI53
aI39
aI32
aI63
aI53
aI39
aI39
aI63
aI71
aI69
aI63
aI47
aI29
aI78
aI67
aI58
aI21
aI51
aI74
aI69
aI49
aI62
aI33
aI89
aI63
aI65
aI74
aI29
aI48
aI18
aI44
aI48
aI36
aI61
aI34
aI96
aI73
aI81
aI60
aI11
aI63
aI49
aI72
aI74
aI46
aI32
aI84
aI86
aI41
aI32
aI26
aI35
aI63
aI53
aI86
aI73
aI45
aI61
aI46
aI2
aI2
aI3
aI1
aI2
aI4
aI5
aI3
aI3
aI4
aI2
aI5
aI5
aI1
aI1
aI1
aI1
aI2
aI2
aI1
aI2
aa(lp33
I4
aI9
aI30
aI36
aI44
aI20
aI65
aI31
aI44
aI53
aI55
aI26
aI38
aI79
aI30
aI62
aI42
aI36
aI49
aI49
aI49
aI37
aI72
aI84
aI36
aI33
aI65
aI44
aI42
aI11
aI66
aI62
aI40
aI75
aI59
aI55
aI60
aI93
aI42
aI77
aI35
aI59
aI59
aI33
aI20
aI14
aI4
aI15
aI4
aI20
aI16
aI8
aI15
aI19
aI4
aI7
aI17
aI16
aI3
aI2
aI15
aI4
aI16
aI11
aI3
aI7
aI8
aI8
aI5
aI4
aI2
aI5
aI66
aI63
aI34
aI66
aI61
aI60
aI60
aI62
aI29
aI35
aI45
aI59
aI63
aI10
aI46
aI42
aI70
aI19
aI74
aI45
aI31
aI80
aI34
aI31
aI38
aI51
aI54
aI89
aI46
aI19
aI33
aI60
aI54
aI47
aI78
aI65
aI72
aI43
aI6
aI23
aI55
aI32
aI92
aI76
aI42
aI76
aI19
aI55
aI39
aI36
aI47
aI43
aI53
aI76
aI58
aI69
aI29
aI36
aI51
aI49
aI73
aI57
aI39
aI30
aI69
aI37
aI30
aI58
aI53
aI47
aI51
aI62
aI56
aI52
aI53
aI51
aI46
aI53
aI60
aI34
aI80
aI41
aI25
aI67
aI52
aI13
aI24
aI57
aI53
aI39
aI32
aI63
aI53
aI39
aI39
aI63
aI71
aI69
aI63
aI47
aI29
aI78
aI67
aI58
aI21
aI51
aI74
aI69
aI49
aI62
aI33
aI89
aI63
aI65
aI74
aI29
aI48
aI18
aI44
aI48
aI36
aI61
aI34
aI96
aI73
aI81
aI60
aI11
aI63
aI49
aI72
aI74
aI46
aI32
aI84
aI86
aI41
aI32
aI26
aI35
aI63
aI53
aI86
aI73
aI45
aI61
aI46
aI2
aI2
aI3
aI1
aI2
aI4
aI5
aI3
aI3
aI4
aI2
aI5
aI5
aI1
aI1
aI1
aI1
aI2
aI2
aI1
aI2
aa(lp34
I4
aI9
aI30
aI36
aI44
aI20
aI65
aI31
aI44
aI53
aI55
aI26
aI38
aI79
aI30
aI62
aI42
aI36
aI49
aI49
aI49
aI37
aI72
aI84
aI36
aI33
aI65
aI44
aI42
aI11
aI66
aI62
aI40
aI75
aI59
aI55
aI60
aI93
aI42
aI77
aI35
aI59
aI59
aI33
aI20
aI14
aI4
aI15
aI4
aI20
aI16
aI8
aI15
aI19
aI4
aI7
aI17
aI16
aI3
aI2
aI15
aI4
aI16
aI11
aI3
aI7
aI8
aI8
aI5
aI4
aI2
aI5
aI66
aI63
aI34
aI66
aI61
aI60
aI60
aI62
aI29
aI35
aI45
aI59
aI63
aI10
aI46
aI42
aI70
aI19
aI74
aI45
aI31
aI80
aI34
aI31
aI38
aI51
aI54
aI89
aI46
aI19
aI33
aI60
aI54
aI47
aI78
aI65
aI72
aI43
aI6
aI23
aI55
aI32
aI92
aI76
aI42
aI76
aI19
aI55
aI39
aI36
aI47
aI43
aI53
aI76
aI58
aI69
aI29
aI36
aI51
aI49
aI73
aI57
aI39
aI30
aI69
aI37
aI30
aI58
aI53
aI47
aI51
aI62
aI56
aI52
aI53
aI51
aI46
aI53
aI60
aI34
aI80
aI41
aI25
aI67
aI52
aI13
aI24
aI57
aI53
aI39
aI32
aI63
aI53
aI39
aI39
aI63
aI71
aI69
aI63
aI47
aI29
aI78
aI67
aI58
aI21
aI51
aI74
aI69
aI49
aI62
aI33
aI89
aI63
aI65
aI74
aI29
aI48
aI18
aI44
aI48
aI36
aI61
aI34
aI96
aI73
aI81
aI60
aI11
aI63
aI49
aI72
aI74
aI46
aI32
aI84
aI86
aI41
aI32
aI26
aI35
aI63
aI53
aI86
aI73
aI45
aI61
aI46
aI2
aI2
aI3
aI1
aI2
aI4
aI5
aI3
aI3
aI4
aI2
aI5
aI5
aI1
aI1
aI1
aI1
aI2
aI2
aI1
aI2
aa(lp35
I4
aI9
aI30
aI36
aI44
aI20
aI65
aI31
aI44
aI53
aI55
aI26
aI38
aI79
aI30
aI62
aI42
aI36
aI49
aI49
aI49
aI37
aI72
aI84
aI36
aI33
aI65
aI44
aI42
aI11
aI66
aI62
aI40
aI75
aI59
aI55
aI60
aI93
aI42
aI77
aI35
aI59
aI59
aI33
aI20
aI14
aI4
aI15
aI4
aI20
aI16
aI8
aI15
aI19
aI4
aI7
aI17
aI17
aI3
aI2
aI15
aI4
aI16
aI11
aI3
aI7
aI8
aI8
aI5
aI4
aI2
aI5
aI66
aI63
aI34
aI66
aI61
aI60
aI61
aI62
aI29
aI35
aI45
aI59
aI63
aI9
aI46
aI42
aI71
aI19
aI74
aI45
aI32
aI80
aI34
aI31
aI38
aI51
aI54
aI89
aI46
aI19
aI33
aI60
aI54
aI47
aI78
aI65
aI72
aI43
aI6
aI23
aI55
aI32
aI92
aI76
aI42
aI76
aI19
aI55
aI39
aI37
aI47
aI43
aI52
aI76
aI58
aI69
aI29
aI36
aI51
aI50
aI73
aI57
aI39
aI31
aI69
aI37
aI30
aI58
aI53
aI47
aI51
aI62
aI56
aI52
aI53
aI51
aI46
aI53
aI60
aI34
aI80
aI41
aI25
aI67
aI52
aI13
aI24
aI57
aI53
aI39
aI32
aI63
aI52
aI39
aI40
aI63
aI71
aI69
aI63
aI47
aI29
aI78
aI67
aI58
aI21
aI51
aI74
aI69
aI49
aI62
aI32
aI89
aI63
aI65
aI74
aI29
aI48
aI18
aI44
aI48
aI36
aI62
aI34
aI96
aI73
aI81
aI60
aI11
aI63
aI49
aI72
aI74
aI46
aI32
aI84
aI86
aI41
aI32
aI26
aI35
aI63
aI53
aI86
aI73
aI45
aI61
aI46
aI2
aI2
aI3
aI1
aI2
aI4
aI5
aI3
aI3
aI4
aI1
aI5
aI5
aI1
aI1
aI1
aI1
aI2
aI2
aI1
aI2
aa(lp36
I4
aI9
aI30
aI37
aI45
aI20
aI65
aI31
aI41
aI53
aI55
aI26
aI36
aI78
aI30
aI61
aI42
aI31
aI48
aI49
aI49
aI36
aI76
aI84
aI37
aI33
aI65
aI44
aI38
aI11
aI66
aI62
aI40
aI80
aI60
aI53
aI61
aI93
aI44
aI78
aI35
aI58
aI58
aI34
aI20
aI14
aI4
aI15
aI0
aI15
aI16
aI8
aI15
aI19
aI4
aI7
aI17
aI17
aI3
aI2
aI15
aI4
aI16
aI11
aI3
aI7
aI8
aI8
aI7
aI4
aI2
aI6
aI70
aI63
aI35
aI66
aI61
aI60
aI59
aI62
aI29
aI38
aI45
aI59
aI65
aI9
aI45
aI45
aI70
aI20
aI74
aI43
aI31
aI80
aI34
aI31
aI38
aI53
aI54
aI89
aI46
aI19
aI33
aI60
aI49
aI47
aI78
aI65
aI77
aI43
aI6
aI23
aI55
aI32
aI92
aI76
aI46
aI76
aI19
aI53
aI37
aI36
aI47
aI43
aI53
aI77
aI58
aI68
aI34
aI36
aI51
aI50
aI73
aI57
aI39
aI30
aI68
aI37
aI30
aI56
aI53
aI50
aI48
aI62
aI56
aI54
aI52
aI55
aI48
aI53
aI62
aI34
aI80
aI41
aI23
aI71
aI52
aI11
aI26
aI53
aI53
aI39
aI32
aI63
aI48
aI35
aI39
aI61
aI75
aI74
aI63
aI47
aI29
aI78
aI67
aI62
aI21
aI56
aI78
aI72
aI49
aI62
aI38
aI89
aI68
aI66
aI69
aI31
aI48
aI18
aI43
aI47
aI36
aI57
aI37
aI91
aI73
aI81
aI55
aI11
aI63
aI51
aI72
aI74
aI46
aI32
aI85
aI86
aI41
aI32
aI26
aI35
aI63
aI53
aI86
aI68
aI45
aI65
aI42
aI2
aI2
aI3
aI1
aI2
aI1
aI5
aI3
aI3
aI4
aI1
aI5
aI5
aI1
aI1
aI1
aI1
aI2
aI1
aI1
aI2
aa(lp37
I4
aI9
aI30
aI37
aI45
aI20
aI65
aI31
aI41
aI53
aI55
aI26
aI36
aI78
aI30
aI61
aI42
aI31
aI48
aI49
aI49
aI36
aI76
aI84
aI37
aI33
aI65
aI44
aI38
aI11
aI66
aI62
aI40
aI80
aI60
aI53
aI61
aI93
aI44
aI78
aI35
aI58
aI58
aI34
aI20
aI14
aI4
aI15
aI0
aI15
aI16
aI8
aI15
aI19
aI4
aI7
aI17
aI17
aI3
aI2
aI15
aI4
aI16
aI11
aI3
aI7
aI8
aI8
aI7
aI4
aI2
aI6
aI70
aI63
aI35
aI66
aI61
aI60
aI59
aI62
aI29
aI38
aI45
aI59
aI65
aI9
aI45
aI45
aI70
aI20
aI74
aI43
aI31
aI80
aI34
aI31
aI38
aI53
aI54
aI89
aI46
aI19
aI33
aI60
aI49
aI47
aI78
aI65
aI77
aI43
aI6
aI23
aI55
aI32
aI92
aI76
aI46
aI76
aI19
aI53
aI37
aI36
aI47
aI43
aI53
aI77
aI58
aI68
aI34
aI36
aI51
aI50
aI73
aI57
aI39
aI30
aI68
aI37
aI30
aI56
aI53
aI50
aI48
aI62
aI56
aI54
aI52
aI55
aI48
aI53
aI62
aI34
aI80
aI41
aI23
aI71
aI52
aI11
aI26
aI53
aI53
aI39
aI32
aI63
aI48
aI35
aI39
aI61
aI75
aI74
aI63
aI47
aI29
aI78
aI67
aI62
aI21
aI56
aI78
aI72
aI49
aI62
aI38
aI89
aI68
aI66
aI69
aI31
aI48
aI18
aI43
aI47
aI36
aI57
aI37
aI91
aI73
aI81
aI55
aI11
aI63
aI51
aI72
aI74
aI46
aI32
aI85
aI86
aI41
aI32
aI26
aI35
aI63
aI53
aI86
aI68
aI45
aI65
aI42
aI2
aI2
aI3
aI1
aI2
aI1
aI5
aI3
aI3
aI4
aI1
aI5
aI5
aI1
aI1
aI1
aI1
aI2
aI1
aI1
aI2
aa(lp38
I4
aI9
aI30
aI37
aI45
aI20
aI65
aI31
aI41
aI53
aI55
aI26
aI36
aI78
aI30
aI61
aI42
aI31
aI48
aI49
aI49
aI36
aI76
aI84
aI37
aI33
aI65
aI44
aI38
aI11
aI66
aI62
aI40
aI80
aI60
aI53
aI61
aI93
aI44
aI78
aI35
aI58
aI58
aI34
aI20
aI14
aI4
aI15
aI0
aI15
aI16
aI8
aI15
aI19
aI4
aI7
aI17
aI17
aI3
aI2
aI15
aI4
aI16
aI11
aI3
aI7
aI8
aI8
aI7
aI4
aI2
aI6
aI70
aI63
aI35
aI66
aI61
aI60
aI59
aI62
aI29
aI38
aI45
aI59
aI65
aI9
aI45
aI45
aI70
aI20
aI74
aI43
aI31
aI80
aI34
aI31
aI38
aI53
aI54
aI89
aI46
aI19
aI33
aI60
aI49
aI47
aI78
aI65
aI77
aI43
aI6
aI23
aI55
aI32
aI92
aI76
aI46
aI76
aI19
aI53
aI37
aI36
aI47
aI43
aI53
aI77
aI58
aI68
aI34
aI36
aI51
aI50
aI73
aI57
aI39
aI30
aI68
aI37
aI30
aI56
aI53
aI50
aI48
aI62
aI56
aI54
aI52
aI55
aI48
aI53
aI62
aI34
aI80
aI41
aI23
aI71
aI52
aI11
aI26
aI53
aI53
aI39
aI32
aI63
aI48
aI35
aI39
aI61
aI75
aI74
aI63
aI47
aI29
aI78
aI67
aI62
aI21
aI56
aI78
aI72
aI49
aI62
aI38
aI89
aI68
aI66
aI69
aI31
aI48
aI18
aI43
aI47
aI36
aI57
aI37
aI91
aI73
aI81
aI55
aI11
aI63
aI51
aI72
aI74
aI46
aI32
aI85
aI86
aI41
aI32
aI26
aI35
aI63
aI53
aI86
aI68
aI45
aI65
aI42
aI2
aI2
aI3
aI1
aI2
aI1
aI5
aI3
aI3
aI4
aI1
aI5
aI5
aI1
aI1
aI1
aI1
aI2
aI1
aI1
aI2
aa(lp39
I4
aI9
aI30
aI36
aI45
aI20
aI65
aI31
aI44
aI53
aI55
aI26
aI38
aI78
aI30
aI61
aI42
aI36
aI49
aI49
aI49
aI37
aI72
aI84
aI36
aI33
aI65
aI44
aI42
aI11
aI66
aI62
aI40
aI75
aI59
aI55
aI60
aI93
aI42
aI77
aI35
aI59
aI59
aI34
aI20
aI14
aI4
aI16
aI4
aI20
aI16
aI8
aI15
aI19
aI4
aI7
aI17
aI17
aI3
aI2
aI15
aI4
aI16
aI11
aI3
aI7
aI8
aI8
aI5
aI4
aI2
aI5
aI66
aI63
aI34
aI66
aI61
aI60
aI61
aI62
aI29
aI35
aI45
aI59
aI63
aI9
aI47
aI42
aI70
aI19
aI74
aI45
aI31
aI80
aI34
aI31
aI38
aI50
aI54
aI89
aI46
aI19
aI33
aI60
aI54
aI46
aI78
aI65
aI72
aI43
aI6
aI23
aI55
aI32
aI92
aI76
aI42
aI76
aI19
aI55
aI40
aI36
aI47
aI43
aI53
aI76
aI58
aI69
aI29
aI36
aI51
aI50
aI73
aI57
aI39
aI30
aI69
aI37
aI30
aI58
aI53
aI47
aI51
aI62
aI56
aI52
aI52
aI51
aI46
aI53
aI60
aI34
aI80
aI41
aI25
aI67
aI52
aI13
aI24
aI57
aI53
aI39
aI32
aI63
aI53
aI39
aI39
aI63
aI70
aI69
aI63
aI47
aI29
aI78
aI67
aI58
aI21
aI51
aI74
aI69
aI49
aI62
aI32
aI89
aI63
aI64
aI74
aI29
aI48
aI18
aI43
aI48
aI36
aI62
aI33
aI96
aI73
aI81
aI60
aI11
aI63
aI49
aI72
aI74
aI46
aI32
aI85
aI86
aI41
aI32
aI26
aI35
aI63
aI53
aI86
aI73
aI45
aI61
aI46
aI2
aI2
aI3
aI1
aI2
aI4
aI5
aI3
aI3
aI4
aI1
aI5
aI5
aI1
aI1
aI1
aI1
aI2
aI2
aI1
aI2
aa(lp40
I4
aI9
aI30
aI36
aI45
aI20
aI65
aI31
aI44
aI53
aI55
aI26
aI38
aI78
aI30
aI61
aI42
aI36
aI49
aI49
aI49
aI37
aI72
aI84
aI36
aI33
aI65
aI44
aI42
aI11
aI66
aI62
aI40
aI75
aI59
aI55
aI60
aI93
aI42
aI77
aI35
aI59
aI59
aI34
aI20
aI14
aI4
aI16
aI4
aI20
aI16
aI8
aI15
aI19
aI4
aI7
aI17
aI17
aI3
aI2
aI15
aI4
aI16
aI11
aI3
aI7
aI8
aI8
aI5
aI4
aI2
aI5
aI66
aI63
aI34
aI66
aI61
aI60
aI61
aI62
aI29
aI35
aI45
aI59
aI63
aI9
aI47
aI42
aI70
aI19
aI74
aI45
aI31
aI80
aI34
aI31
aI38
aI50
aI54
aI89
aI46
aI19
aI33
aI60
aI54
aI46
aI78
aI65
aI72
aI43
aI6
aI23
aI55
aI32
aI92
aI76
aI42
aI76
aI19
aI55
aI40
aI36
aI47
aI43
aI53
aI76
aI58
aI69
aI29
aI36
aI51
aI50
aI73
aI57
aI39
aI30
aI69
aI37
aI30
aI58
aI53
aI47
aI51
aI62
aI56
aI52
aI52
aI51
aI46
aI53
aI60
aI34
aI80
aI41
aI25
aI67
aI52
aI13
aI24
aI57
aI53
aI39
aI32
aI63
aI53
aI39
aI39
aI63
aI70
aI69
aI63
aI47
aI29
aI78
aI67
aI58
aI21
aI51
aI74
aI69
aI49
aI62
aI32
aI89
aI63
aI64
aI74
aI29
aI48
aI18
aI43
aI48
aI36
aI62
aI33
aI96
aI73
aI81
aI60
aI11
aI63
aI49
aI72
aI74
aI46
aI32
aI85
aI86
aI41
aI32
aI26
aI35
aI63
aI53
aI86
aI73
aI45
aI61
aI46
aI2
aI2
aI3
aI1
aI2
aI4
aI5
aI3
aI3
aI4
aI1
aI5
aI5
aI1
aI1
aI1
aI1
aI2
aI2
aI1
aI2
aa(lp41
I4
aI9
aI30
aI36
aI45
aI20
aI65
aI31
aI44
aI53
aI55
aI26
aI38
aI78
aI30
aI61
aI42
aI36
aI49
aI49
aI49
aI37
aI72
aI84
aI36
aI33
aI65
aI44
aI42
aI11
aI66
aI62
aI40
aI75
aI59
aI55
aI60
aI93
aI42
aI77
aI35
aI59
aI59
aI34
aI20
aI14
aI4
aI16
aI4
aI20
aI16
aI8
aI15
aI19
aI4
aI7
aI17
aI17
aI3
aI2
aI15
aI4
aI16
aI11
aI3
aI7
aI8
aI8
aI5
aI4
aI2
aI5
aI66
aI63
aI34
aI66
aI61
aI60
aI61
aI62
aI29
aI35
aI45
aI59
aI63
aI9
aI47
aI42
aI70
aI19
aI74
aI45
aI31
aI80
aI34
aI31
aI38
aI50
aI54
aI89
aI46
aI19
aI33
aI60
aI54
aI46
aI78
aI65
aI72
aI43
aI6
aI23
aI55
aI32
aI92
aI76
aI42
aI76
aI19
aI55
aI40
aI36
aI47
aI43
aI53
aI76
aI58
aI69
aI29
aI36
aI51
aI50
aI73
aI57
aI39
aI30
aI69
aI37
aI30
aI58
aI53
aI47
aI51
aI62
aI56
aI52
aI52
aI51
aI46
aI53
aI60
aI34
aI80
aI41
aI25
aI67
aI52
aI13
aI24
aI57
aI53
aI39
aI32
aI63
aI53
aI39
aI39
aI63
aI70
aI69
aI63
aI47
aI29
aI78
aI67
aI58
aI21
aI51
aI74
aI69
aI49
aI62
aI32
aI89
aI63
aI64
aI74
aI29
aI48
aI18
aI43
aI48
aI36
aI62
aI33
aI96
aI73
aI81
aI60
aI11
aI63
aI49
aI72
aI74
aI46
aI32
aI85
aI86
aI41
aI32
aI26
aI35
aI63
aI53
aI86
aI73
aI45
aI61
aI46
aI2
aI2
aI3
aI1
aI2
aI4
aI5
aI3
aI3
aI4
aI1
aI5
aI5
aI1
aI1
aI1
aI1
aI2
aI2
aI1
aI2
aa(lp42
I4
aI9
aI30
aI36
aI45
aI20
aI65
aI31
aI44
aI53
aI55
aI26
aI38
aI78
aI30
aI61
aI42
aI36
aI49
aI49
aI49
aI37
aI72
aI84
aI36
aI33
aI65
aI44
aI42
aI11
aI66
aI62
aI40
aI75
aI59
aI55
aI60
aI93
aI42
aI77
aI35
aI59
aI59
aI34
aI20
aI14
aI4
aI16
aI4
aI20
aI16
aI8
aI15
aI19
aI4
aI7
aI17
aI17
aI3
aI2
aI15
aI4
aI16
aI11
aI3
aI7
aI8
aI8
aI5
aI4
aI2
aI5
aI66
aI63
aI34
aI66
aI61
aI60
aI61
aI62
aI29
aI35
aI45
aI59
aI63
aI9
aI47
aI42
aI70
aI19
aI74
aI45
aI31
aI80
aI34
aI31
aI38
aI50
aI54
aI89
aI46
aI19
aI33
aI60
aI54
aI46
aI78
aI65
aI72
aI43
aI6
aI23
aI55
aI32
aI92
aI76
aI42
aI76
aI19
aI55
aI40
aI36
aI47
aI43
aI53
aI76
aI58
aI69
aI29
aI36
aI51
aI50
aI73
aI57
aI39
aI30
aI69
aI37
aI30
aI58
aI53
aI47
aI51
aI62
aI56
aI52
aI52
aI51
aI46
aI53
aI60
aI34
aI80
aI41
aI25
aI67
aI52
aI13
aI24
aI57
aI53
aI39
aI32
aI63
aI53
aI39
aI39
aI63
aI70
aI69
aI63
aI47
aI29
aI78
aI67
aI58
aI21
aI51
aI74
aI69
aI49
aI62
aI32
aI89
aI63
aI64
aI74
aI29
aI48
aI18
aI43
aI48
aI36
aI62
aI33
aI96
aI73
aI81
aI60
aI11
aI63
aI49
aI72
aI74
aI46
aI32
aI85
aI86
aI41
aI32
aI26
aI35
aI63
aI53
aI86
aI73
aI45
aI61
aI46
aI2
aI2
aI3
aI1
aI2
aI4
aI5
aI3
aI3
aI4
aI1
aI5
aI5
aI1
aI1
aI1
aI1
aI2
aI2
aI1
aI2
aa(lp43
I4
aI9
aI30
aI36
aI45
aI20
aI65
aI31
aI44
aI53
aI55
aI26
aI38
aI78
aI30
aI61
aI42
aI36
aI49
aI49
aI49
aI37
aI72
aI84
aI36
aI33
aI65
aI44
aI42
aI11
aI66
aI62
aI40
aI75
aI59
aI55
aI60
aI93
aI42
aI77
aI35
aI59
aI59
aI34
aI20
aI14
aI4
aI16
aI4
aI20
aI16
aI8
aI15
aI19
aI4
aI7
aI17
aI17
aI3
aI2
aI15
aI4
aI16
aI11
aI3
aI7
aI8
aI8
aI5
aI4
aI2
aI5
aI66
aI63
aI34
aI66
aI61
aI60
aI61
aI62
aI29
aI35
aI45
aI59
aI63
aI9
aI47
aI42
aI70
aI19
aI74
aI45
aI31
aI80
aI34
aI31
aI38
aI50
aI54
aI89
aI46
aI19
aI33
aI60
aI54
aI46
aI78
aI65
aI72
aI43
aI6
aI23
aI55
aI32
aI92
aI76
aI42
aI76
aI19
aI55
aI40
aI36
aI47
aI43
aI53
aI76
aI58
aI69
aI29
aI36
aI51
aI50
aI73
aI57
aI39
aI30
aI69
aI37
aI30
aI58
aI53
aI47
aI51
aI62
aI56
aI52
aI52
aI51
aI46
aI53
aI60
aI34
aI80
aI41
aI25
aI67
aI52
aI13
aI24
aI57
aI53
aI39
aI32
aI63
aI53
aI39
aI39
aI63
aI70
aI69
aI63
aI47
aI29
aI78
aI67
aI58
aI21
aI51
aI74
aI69
aI49
aI62
aI32
aI89
aI63
aI64
aI74
aI29
aI48
aI18
aI43
aI48
aI36
aI62
aI33
aI96
aI73
aI81
aI60
aI11
aI63
aI49
aI72
aI74
aI46
aI32
aI85
aI86
aI41
aI32
aI26
aI35
aI63
aI53
aI86
aI73
aI45
aI61
aI46
aI2
aI2
aI3
aI1
aI2
aI4
aI5
aI3
aI3
aI4
aI1
aI5
aI5
aI1
aI1
aI1
aI1
aI2
aI2
aI1
aI2
aa(lp44
I4
aI9
aI30
aI36
aI45
aI20
aI65
aI31
aI44
aI53
aI55
aI26
aI38
aI78
aI30
aI61
aI42
aI36
aI49
aI49
aI49
aI37
aI72
aI84
aI36
aI33
aI65
aI44
aI42
aI11
aI66
aI62
aI40
aI75
aI59
aI55
aI60
aI93
aI42
aI77
aI35
aI59
aI59
aI34
aI20
aI14
aI4
aI16
aI4
aI20
aI16
aI8
aI15
aI19
aI4
aI7
aI17
aI17
aI3
aI2
aI15
aI4
aI16
aI11
aI3
aI7
aI8
aI8
aI5
aI4
aI2
aI5
aI66
aI63
aI34
aI66
aI61
aI60
aI61
aI62
aI29
aI35
aI45
aI59
aI63
aI9
aI46
aI42
aI70
aI19
aI74
aI45
aI31
aI80
aI34
aI31
aI38
aI51
aI54
aI89
aI46
aI19
aI33
aI60
aI54
aI47
aI78
aI65
aI72
aI43
aI6
aI23
aI55
aI32
aI92
aI76
aI42
aI76
aI19
aI55
aI40
aI36
aI47
aI43
aI53
aI76
aI58
aI69
aI29
aI36
aI51
aI50
aI73
aI57
aI39
aI30
aI69
aI37
aI30
aI58
aI53
aI47
aI51
aI62
aI56
aI52
aI53
aI51
aI46
aI53
aI60
aI34
aI80
aI41
aI25
aI67
aI52
aI13
aI24
aI57
aI53
aI39
aI32
aI63
aI53
aI39
aI39
aI63
aI71
aI69
aI63
aI47
aI29
aI78
aI67
aI58
aI21
aI51
aI74
aI69
aI49
aI62
aI32
aI89
aI63
aI64
aI74
aI29
aI48
aI18
aI43
aI48
aI36
aI61
aI33
aI96
aI73
aI81
aI60
aI11
aI63
aI49
aI72
aI74
aI46
aI32
aI85
aI86
aI41
aI32
aI26
aI35
aI63
aI53
aI86
aI73
aI45
aI61
aI46
aI2
aI2
aI3
aI1
aI2
aI4
aI5
aI3
aI3
aI4
aI1
aI5
aI5
aI1
aI1
aI1
aI1
aI2
aI2
aI1
aI2
aa(lp45
I4
aI9
aI30
aI36
aI45
aI20
aI65
aI31
aI44
aI53
aI55
aI26
aI38
aI78
aI30
aI61
aI42
aI36
aI49
aI49
aI49
aI37
aI72
aI84
aI36
aI33
aI65
aI44
aI42
aI11
aI66
aI62
aI40
aI75
aI59
aI55
aI60
aI93
aI42
aI77
aI35
aI59
aI59
aI34
aI20
aI14
aI4
aI16
aI4
aI20
aI16
aI8
aI15
aI19
aI4
aI7
aI17
aI17
aI3
aI2
aI15
aI4
aI16
aI11
aI3
aI7
aI8
aI8
aI5
aI4
aI2
aI5
aI66
aI63
aI34
aI66
aI61
aI60
aI61
aI62
aI29
aI35
aI45
aI59
aI63
aI9
aI47
aI42
aI70
aI19
aI74
aI45
aI31
aI80
aI34
aI31
aI38
aI50
aI54
aI89
aI46
aI19
aI33
aI60
aI54
aI46
aI78
aI65
aI72
aI43
aI6
aI23
aI55
aI32
aI92
aI76
aI42
aI76
aI19
aI55
aI40
aI36
aI47
aI43
aI53
aI76
aI58
aI69
aI29
aI36
aI51
aI50
aI73
aI57
aI39
aI30
aI69
aI37
aI30
aI58
aI53
aI47
aI51
aI62
aI56
aI52
aI52
aI51
aI46
aI53
aI60
aI34
aI80
aI41
aI25
aI67
aI52
aI13
aI24
aI57
aI53
aI39
aI32
aI63
aI53
aI39
aI39
aI63
aI70
aI69
aI63
aI47
aI29
aI78
aI67
aI58
aI21
aI51
aI74
aI69
aI49
aI62
aI32
aI89
aI63
aI64
aI74
aI29
aI48
aI18
aI43
aI48
aI36
aI62
aI33
aI96
aI73
aI81
aI60
aI11
aI63
aI49
aI72
aI74
aI46
aI32
aI85
aI86
aI41
aI32
aI26
aI35
aI63
aI53
aI86
aI73
aI45
aI61
aI46
aI2
aI2
aI3
aI1
aI2
aI4
aI5
aI3
aI3
aI4
aI1
aI5
aI5
aI1
aI1
aI1
aI1
aI2
aI2
aI1
aI2
aa(lp46
I4
aI9
aI30
aI36
aI45
aI20
aI65
aI31
aI44
aI53
aI55
aI26
aI38
aI78
aI30
aI61
aI42
aI36
aI49
aI49
aI49
aI37
aI72
aI84
aI36
aI33
aI65
aI44
aI42
aI11
aI66
aI62
aI40
aI75
aI59
aI55
aI60
aI93
aI42
aI77
aI35
aI59
aI59
aI34
aI20
aI14
aI4
aI16
aI4
aI20
aI16
aI8
aI15
aI19
aI4
aI7
aI17
aI17
aI3
aI2
aI15
aI4
aI16
aI11
aI3
aI7
aI8
aI8
aI5
aI4
aI2
aI5
aI66
aI63
aI34
aI66
aI61
aI60
aI61
aI62
aI29
aI35
aI45
aI59
aI63
aI9
aI47
aI42
aI70
aI19
aI74
aI45
aI31
aI80
aI34
aI31
aI38
aI50
aI54
aI89
aI46
aI19
aI33
aI60
aI54
aI46
aI78
aI65
aI72
aI43
aI6
aI23
aI55
aI32
aI92
aI76
aI42
aI76
aI19
aI55
aI40
aI36
aI47
aI43
aI53
aI76
aI58
aI69
aI29
aI36
aI51
aI50
aI73
aI57
aI39
aI30
aI69
aI37
aI30
aI58
aI53
aI47
aI51
aI62
aI56
aI52
aI52
aI51
aI46
aI53
aI60
aI34
aI80
aI41
aI25
aI67
aI52
aI13
aI24
aI57
aI53
aI39
aI32
aI63
aI53
aI39
aI39
aI63
aI70
aI69
aI63
aI47
aI29
aI78
aI67
aI58
aI21
aI51
aI74
aI69
aI49
aI62
aI32
aI89
aI63
aI64
aI74
aI29
aI48
aI18
aI43
aI48
aI36
aI62
aI33
aI96
aI73
aI81
aI60
aI11
aI63
aI49
aI72
aI74
aI46
aI32
aI85
aI86
aI41
aI32
aI26
aI35
aI63
aI53
aI86
aI73
aI45
aI61
aI46
aI2
aI2
aI3
aI1
aI2
aI4
aI5
aI3
aI3
aI4
aI1
aI5
aI5
aI1
aI1
aI1
aI1
aI2
aI2
aI1
aI2
aa(lp47
I4
aI9
aI30
aI36
aI45
aI20
aI65
aI31
aI44
aI53
aI55
aI26
aI38
aI78
aI30
aI61
aI42
aI36
aI49
aI49
aI49
aI37
aI72
aI84
aI36
aI33
aI65
aI44
aI42
aI11
aI66
aI62
aI40
aI75
aI59
aI55
aI60
aI93
aI42
aI77
aI35
aI59
aI59
aI34
aI20
aI14
aI4
aI16
aI4
aI20
aI16
aI8
aI15
aI19
aI4
aI7
aI17
aI17
aI3
aI2
aI15
aI4
aI16
aI11
aI3
aI7
aI8
aI8
aI5
aI4
aI2
aI5
aI66
aI63
aI34
aI66
aI61
aI60
aI61
aI62
aI29
aI35
aI45
aI59
aI63
aI9
aI47
aI42
aI70
aI19
aI74
aI45
aI31
aI80
aI34
aI31
aI38
aI50
aI54
aI89
aI46
aI19
aI33
aI60
aI54
aI46
aI78
aI65
aI72
aI43
aI6
aI23
aI55
aI32
aI92
aI76
aI42
aI76
aI19
aI55
aI40
aI36
aI47
aI43
aI53
aI76
aI58
aI69
aI29
aI36
aI51
aI50
aI73
aI57
aI39
aI30
aI69
aI37
aI30
aI58
aI53
aI47
aI51
aI62
aI56
aI52
aI52
aI51
aI46
aI53
aI60
aI34
aI80
aI41
aI25
aI67
aI52
aI13
aI24
aI57
aI53
aI39
aI32
aI63
aI53
aI39
aI39
aI63
aI70
aI69
aI63
aI47
aI29
aI78
aI67
aI58
aI21
aI51
aI74
aI69
aI49
aI62
aI32
aI89
aI63
aI64
aI74
aI29
aI48
aI18
aI43
aI48
aI36
aI62
aI33
aI96
aI73
aI81
aI60
aI11
aI63
aI49
aI72
aI74
aI46
aI32
aI85
aI86
aI41
aI32
aI26
aI35
aI63
aI53
aI86
aI73
aI45
aI61
aI46
aI2
aI2
aI3
aI1
aI2
aI4
aI5
aI3
aI3
aI4
aI1
aI5
aI5
aI1
aI1
aI1
aI1
aI2
aI2
aI1
aI2
aa(lp48
I4
aI9
aI30
aI36
aI45
aI20
aI65
aI31
aI44
aI53
aI55
aI26
aI38
aI78
aI30
aI61
aI42
aI36
aI49
aI49
aI49
aI37
aI72
aI84
aI36
aI33
aI65
aI44
aI42
aI11
aI66
aI62
aI40
aI75
aI59
aI55
aI60
aI93
aI42
aI77
aI35
aI59
aI59
aI34
aI20
aI14
aI4
aI16
aI4
aI20
aI16
aI8
aI15
aI19
aI4
aI7
aI17
aI17
aI3
aI2
aI15
aI4
aI16
aI11
aI3
aI7
aI8
aI8
aI5
aI4
aI2
aI5
aI66
aI63
aI34
aI66
aI61
aI60
aI61
aI62
aI29
aI35
aI45
aI59
aI63
aI9
aI47
aI42
aI70
aI19
aI74
aI45
aI31
aI80
aI34
aI31
aI38
aI50
aI54
aI89
aI46
aI19
aI33
aI60
aI54
aI46
aI78
aI65
aI72
aI43
aI6
aI23
aI55
aI32
aI92
aI76
aI42
aI76
aI19
aI55
aI40
aI36
aI47
aI43
aI53
aI76
aI58
aI69
aI29
aI36
aI51
aI50
aI73
aI57
aI39
aI30
aI69
aI37
aI30
aI58
aI53
aI47
aI51
aI62
aI56
aI52
aI52
aI51
aI46
aI53
aI60
aI34
aI80
aI41
aI25
aI67
aI52
aI13
aI24
aI57
aI53
aI39
aI32
aI63
aI53
aI39
aI39
aI63
aI70
aI69
aI63
aI47
aI29
aI78
aI67
aI58
aI21
aI51
aI74
aI69
aI49
aI62
aI32
aI89
aI63
aI64
aI74
aI29
aI48
aI18
aI43
aI48
aI36
aI62
aI33
aI96
aI73
aI81
aI60
aI11
aI63
aI49
aI72
aI74
aI46
aI32
aI85
aI86
aI41
aI32
aI26
aI35
aI63
aI53
aI86
aI73
aI45
aI61
aI46
aI2
aI2
aI3
aI1
aI2
aI4
aI5
aI3
aI3
aI4
aI1
aI5
aI5
aI1
aI1
aI1
aI1
aI2
aI2
aI1
aI2
aa(lp49
I4
aI9
aI30
aI36
aI45
aI20
aI65
aI31
aI44
aI53
aI55
aI26
aI38
aI78
aI30
aI61
aI42
aI36
aI49
aI49
aI49
aI37
aI72
aI84
aI36
aI33
aI65
aI44
aI42
aI11
aI66
aI62
aI40
aI75
aI59
aI55
aI60
aI93
aI42
aI77
aI35
aI59
aI59
aI34
aI20
aI14
aI4
aI16
aI4
aI20
aI16
aI8
aI15
aI19
aI4
aI7
aI17
aI17
aI3
aI2
aI15
aI4
aI16
aI11
aI3
aI7
aI8
aI8
aI5
aI4
aI2
aI5
aI66
aI63
aI34
aI66
aI61
aI60
aI61
aI62
aI29
aI35
aI45
aI59
aI63
aI9
aI47
aI42
aI70
aI19
aI74
aI45
aI31
aI80
aI34
aI31
aI38
aI50
aI54
aI89
aI46
aI19
aI33
aI60
aI54
aI46
aI78
aI65
aI72
aI43
aI6
aI23
aI55
aI32
aI92
aI76
aI42
aI76
aI19
aI55
aI40
aI36
aI47
aI43
aI53
aI76
aI58
aI69
aI29
aI36
aI51
aI50
aI73
aI57
aI39
aI30
aI69
aI37
aI30
aI58
aI53
aI47
aI51
aI62
aI56
aI52
aI52
aI51
aI46
aI53
aI60
aI34
aI80
aI41
aI25
aI67
aI52
aI13
aI24
aI57
aI53
aI39
aI32
aI63
aI53
aI39
aI39
aI63
aI70
aI69
aI63
aI47
aI29
aI78
aI67
aI58
aI21
aI51
aI74
aI69
aI49
aI62
aI32
aI89
aI63
aI64
aI74
aI29
aI48
aI18
aI43
aI48
aI36
aI62
aI33
aI96
aI73
aI81
aI60
aI11
aI63
aI49
aI72
aI74
aI46
aI32
aI85
aI86
aI41
aI32
aI26
aI35
aI63
aI53
aI86
aI73
aI45
aI61
aI46
aI2
aI2
aI3
aI1
aI2
aI4
aI5
aI3
aI3
aI4
aI1
aI5
aI5
aI1
aI1
aI1
aI1
aI2
aI2
aI1
aI2
aa(lp50
I4
aI9
aI30
aI36
aI45
aI20
aI65
aI31
aI44
aI53
aI55
aI26
aI38
aI78
aI30
aI61
aI42
aI36
aI49
aI49
aI49
aI37
aI72
aI84
aI36
aI33
aI65
aI44
aI42
aI11
aI66
aI62
aI40
aI75
aI59
aI55
aI60
aI93
aI42
aI77
aI35
aI59
aI59
aI34
aI20
aI14
aI4
aI16
aI4
aI20
aI16
aI8
aI15
aI19
aI4
aI7
aI17
aI17
aI3
aI2
aI15
aI4
aI16
aI11
aI3
aI7
aI8
aI8
aI5
aI4
aI2
aI5
aI66
aI63
aI34
aI66
aI61
aI60
aI61
aI62
aI29
aI35
aI45
aI59
aI63
aI9
aI46
aI42
aI70
aI19
aI74
aI45
aI31
aI80
aI34
aI31
aI38
aI51
aI54
aI89
aI46
aI19
aI33
aI60
aI54
aI47
aI78
aI65
aI72
aI43
aI6
aI23
aI55
aI32
aI92
aI76
aI42
aI76
aI19
aI55
aI40
aI36
aI47
aI43
aI53
aI76
aI58
aI69
aI29
aI36
aI51
aI50
aI73
aI57
aI39
aI30
aI69
aI37
aI30
aI58
aI53
aI47
aI51
aI62
aI56
aI52
aI53
aI51
aI46
aI53
aI60
aI34
aI80
aI41
aI25
aI67
aI52
aI13
aI24
aI57
aI53
aI39
aI32
aI63
aI53
aI39
aI39
aI63
aI71
aI69
aI63
aI47
aI29
aI78
aI67
aI58
aI21
aI51
aI74
aI69
aI49
aI62
aI32
aI89
aI63
aI64
aI74
aI29
aI48
aI18
aI43
aI48
aI36
aI61
aI33
aI96
aI73
aI81
aI60
aI11
aI63
aI49
aI72
aI74
aI46
aI32
aI85
aI86
aI41
aI32
aI26
aI35
aI63
aI53
aI86
aI73
aI45
aI61
aI46
aI2
aI2
aI3
aI1
aI2
aI4
aI5
aI3
aI3
aI4
aI1
aI5
aI5
aI1
aI1
aI1
aI1
aI2
aI2
aI1
aI2
aa(lp51
I4
aI9
aI30
aI36
aI45
aI20
aI65
aI31
aI44
aI53
aI55
aI26
aI38
aI78
aI30
aI61
aI42
aI36
aI49
aI49
aI49
aI37
aI72
aI84
aI36
aI33
aI65
aI44
aI42
aI11
aI66
aI62
aI40
aI75
aI59
aI55
aI60
aI93
aI42
aI77
aI35
aI59
aI59
aI34
aI20
aI14
aI4
aI16
aI4
aI20
aI16
aI8
aI15
aI19
aI4
aI7
aI17
aI17
aI3
aI2
aI15
aI4
aI16
aI11
aI3
aI7
aI8
aI8
aI5
aI4
aI2
aI5
aI66
aI63
aI34
aI66
aI61
aI60
aI61
aI62
aI29
aI35
aI45
aI59
aI63
aI9
aI47
aI42
aI70
aI19
aI74
aI45
aI31
aI80
aI34
aI31
aI38
aI50
aI54
aI89
aI46
aI19
aI33
aI60
aI54
aI46
aI78
aI65
aI72
aI43
aI6
aI23
aI55
aI32
aI92
aI76
aI42
aI76
aI19
aI55
aI40
aI36
aI47
aI43
aI53
aI76
aI58
aI69
aI29
aI36
aI51
aI50
aI73
aI57
aI39
aI30
aI69
aI37
aI30
aI58
aI53
aI47
aI51
aI62
aI56
aI52
aI52
aI51
aI46
aI53
aI60
aI34
aI80
aI41
aI25
aI67
aI52
aI13
aI24
aI57
aI53
aI39
aI32
aI63
aI53
aI39
aI39
aI63
aI70
aI69
aI63
aI47
aI29
aI78
aI67
aI58
aI21
aI51
aI74
aI69
aI49
aI62
aI32
aI89
aI63
aI64
aI74
aI29
aI48
aI18
aI43
aI48
aI36
aI62
aI33
aI96
aI73
aI81
aI60
aI11
aI63
aI49
aI72
aI74
aI46
aI32
aI85
aI86
aI41
aI32
aI26
aI35
aI63
aI53
aI86
aI73
aI45
aI61
aI46
aI2
aI2
aI3
aI1
aI2
aI4
aI5
aI3
aI3
aI4
aI1
aI5
aI5
aI1
aI1
aI1
aI1
aI2
aI2
aI1
aI2
aa(lp52
I4
aI9
aI30
aI32
aI45
aI20
aI65
aI31
aI44
aI53
aI55
aI26
aI38
aI78
aI30
aI61
aI42
aI36
aI49
aI49
aI49
aI37
aI68
aI84
aI34
aI33
aI65
aI44
aI45
aI11
aI66
aI62
aI40
aI75
aI59
aI55
aI60
aI93
aI42
aI77
aI35
aI59
aI59
aI34
aI20
aI14
aI4
aI16
aI4
aI20
aI16
aI8
aI15
aI19
aI4
aI7
aI17
aI17
aI3
aI2
aI15
aI4
aI16
aI11
aI3
aI7
aI8
aI8
aI5
aI4
aI2
aI7
aI66
aI60
aI34
aI68
aI61
aI60
aI58
aI62
aI29
aI35
aI45
aI59
aI63
aI9
aI47
aI42
aI70
aI19
aI74
aI45
aI31
aI80
aI34
aI31
aI38
aI50
aI54
aI89
aI46
aI19
aI33
aI60
aI54
aI46
aI83
aI65
aI70
aI43
aI10
aI23
aI55
aI32
aI92
aI76
aI42
aI76
aI19
aI60
aI40
aI36
aI47
aI43
aI53
aI75
aI58
aI69
aI29
aI36
aI51
aI50
aI73
aI57
aI39
aI30
aI69
aI37
aI30
aI58
aI53
aI47
aI51
aI62
aI56
aI52
aI52
aI51
aI46
aI53
aI60
aI34
aI85
aI41
aI25
aI67
aI52
aI13
aI23
aI57
aI53
aI39
aI32
aI63
aI53
aI39
aI39
aI63
aI70
aI69
aI63
aI44
aI29
aI78
aI67
aI58
aI21
aI51
aI74
aI69
aI49
aI62
aI32
aI89
aI63
aI65
aI74
aI29
aI48
aI15
aI43
aI48
aI36
aI62
aI33
aI96
aI73
aI81
aI60
aI11
aI63
aI49
aI72
aI74
aI46
aI28
aI85
aI86
aI41
aI32
aI26
aI35
aI63
aI53
aI86
aI73
aI45
aI61
aI46
aI2
aI2
aI3
aI1
aI2
aI4
aI5
aI1
aI3
aI4
aI1
aI5
aI5
aI1
aI1
aI1
aI1
aI2
aI5
aI1
aI2
aa(lp53
I4
aI9
aI30
aI36
aI45
aI20
aI65
aI31
aI44
aI53
aI55
aI26
aI38
aI78
aI30
aI61
aI42
aI36
aI49
aI49
aI49
aI37
aI72
aI84
aI36
aI33
aI65
aI44
aI42
aI11
aI66
aI62
aI40
aI75
aI59
aI55
aI60
aI93
aI42
aI77
aI35
aI59
aI59
aI34
aI20
aI14
aI4
aI16
aI4
aI20
aI16
aI8
aI15
aI19
aI4
aI7
aI17
aI17
aI3
aI2
aI15
aI4
aI16
aI11
aI3
aI7
aI8
aI8
aI5
aI4
aI2
aI5
aI66
aI63
aI34
aI66
aI61
aI60
aI61
aI62
aI29
aI35
aI45
aI59
aI63
aI9
aI47
aI42
aI70
aI19
aI74
aI45
aI31
aI80
aI34
aI31
aI38
aI50
aI54
aI89
aI46
aI19
aI33
aI60
aI54
aI46
aI78
aI65
aI72
aI43
aI6
aI23
aI55
aI32
aI92
aI76
aI42
aI76
aI19
aI55
aI40
aI36
aI47
aI43
aI53
aI76
aI58
aI69
aI29
aI36
aI51
aI50
aI73
aI57
aI39
aI30
aI69
aI37
aI30
aI58
aI53
aI47
aI51
aI62
aI56
aI52
aI52
aI51
aI46
aI53
aI60
aI34
aI80
aI41
aI25
aI67
aI52
aI13
aI24
aI57
aI53
aI39
aI32
aI63
aI53
aI39
aI39
aI63
aI70
aI69
aI63
aI47
aI29
aI78
aI67
aI58
aI21
aI51
aI74
aI69
aI49
aI62
aI32
aI89
aI63
aI64
aI74
aI29
aI48
aI18
aI43
aI48
aI36
aI62
aI33
aI96
aI73
aI81
aI60
aI11
aI63
aI49
aI72
aI74
aI46
aI32
aI85
aI86
aI41
aI32
aI26
aI35
aI63
aI53
aI86
aI73
aI45
aI61
aI46
aI2
aI2
aI3
aI1
aI2
aI4
aI5
aI3
aI3
aI4
aI1
aI5
aI5
aI1
aI1
aI1
aI1
aI2
aI2
aI1
aI2
aa(lp54
I4
aI9
aI30
aI36
aI45
aI20
aI65
aI31
aI44
aI53
aI55
aI26
aI38
aI78
aI30
aI61
aI42
aI36
aI49
aI49
aI49
aI37
aI72
aI84
aI36
aI33
aI65
aI44
aI42
aI11
aI66
aI62
aI40
aI75
aI59
aI55
aI60
aI93
aI42
aI77
aI35
aI59
aI59
aI34
aI20
aI14
aI4
aI16
aI4
aI20
aI16
aI8
aI15
aI19
aI4
aI7
aI17
aI17
aI3
aI2
aI15
aI4
aI16
aI11
aI3
aI7
aI8
aI8
aI5
aI4
aI2
aI5
aI66
aI63
aI34
aI66
aI61
aI60
aI61
aI62
aI29
aI35
aI45
aI59
aI63
aI9
aI47
aI42
aI70
aI19
aI74
aI45
aI31
aI80
aI34
aI31
aI38
aI50
aI54
aI89
aI46
aI19
aI33
aI60
aI54
aI46
aI78
aI65
aI72
aI43
aI6
aI23
aI55
aI32
aI92
aI76
aI42
aI76
aI19
aI55
aI40
aI36
aI47
aI43
aI53
aI76
aI58
aI69
aI29
aI36
aI51
aI50
aI73
aI57
aI39
aI30
aI69
aI37
aI30
aI58
aI53
aI47
aI51
aI62
aI56
aI52
aI52
aI51
aI46
aI53
aI60
aI34
aI80
aI41
aI25
aI67
aI52
aI13
aI24
aI57
aI53
aI39
aI32
aI63
aI53
aI39
aI39
aI63
aI70
aI69
aI63
aI47
aI29
aI78
aI67
aI58
aI21
aI51
aI74
aI69
aI49
aI62
aI32
aI89
aI63
aI64
aI74
aI29
aI48
aI18
aI43
aI48
aI36
aI62
aI33
aI96
aI73
aI81
aI60
aI11
aI63
aI49
aI72
aI74
aI46
aI32
aI85
aI86
aI41
aI32
aI26
aI35
aI63
aI53
aI86
aI73
aI45
aI61
aI46
aI2
aI2
aI3
aI1
aI2
aI4
aI5
aI3
aI3
aI4
aI1
aI5
aI5
aI1
aI1
aI1
aI1
aI2
aI2
aI1
aI2
aa(lp55
I4
aI9
aI30
aI36
aI45
aI20
aI65
aI31
aI44
aI53
aI55
aI26
aI38
aI78
aI30
aI61
aI42
aI36
aI49
aI49
aI49
aI37
aI72
aI84
aI36
aI33
aI65
aI44
aI42
aI11
aI66
aI62
aI40
aI75
aI59
aI55
aI60
aI93
aI42
aI77
aI35
aI59
aI59
aI34
aI20
aI14
aI4
aI16
aI4
aI20
aI16
aI8
aI15
aI19
aI4
aI7
aI17
aI17
aI3
aI2
aI15
aI4
aI16
aI11
aI3
aI7
aI8
aI8
aI5
aI4
aI2
aI5
aI66
aI63
aI34
aI66
aI61
aI60
aI61
aI62
aI29
aI35
aI45
aI59
aI63
aI9
aI47
aI42
aI70
aI19
aI74
aI45
aI31
aI80
aI34
aI31
aI38
aI50
aI54
aI89
aI46
aI19
aI33
aI60
aI54
aI46
aI78
aI65
aI72
aI43
aI6
aI23
aI55
aI32
aI92
aI76
aI42
aI76
aI19
aI55
aI40
aI36
aI47
aI43
aI53
aI76
aI58
aI69
aI29
aI36
aI51
aI50
aI73
aI57
aI39
aI30
aI69
aI37
aI30
aI58
aI53
aI47
aI51
aI62
aI56
aI52
aI52
aI51
aI46
aI53
aI60
aI34
aI80
aI41
aI25
aI67
aI52
aI13
aI24
aI57
aI53
aI39
aI32
aI63
aI53
aI39
aI39
aI63
aI70
aI69
aI63
aI47
aI29
aI78
aI67
aI58
aI21
aI51
aI74
aI69
aI49
aI62
aI32
aI89
aI63
aI64
aI74
aI29
aI48
aI18
aI43
aI48
aI36
aI62
aI33
aI96
aI73
aI81
aI60
aI11
aI63
aI49
aI72
aI74
aI46
aI32
aI85
aI86
aI41
aI32
aI26
aI35
aI63
aI53
aI86
aI73
aI45
aI61
aI46
aI2
aI2
aI3
aI1
aI2
aI4
aI5
aI3
aI3
aI4
aI1
aI5
aI5
aI1
aI1
aI1
aI1
aI2
aI2
aI1
aI2
aa(lp56
I4
aI9
aI30
aI36
aI45
aI20
aI65
aI31
aI44
aI53
aI55
aI26
aI38
aI78
aI30
aI61
aI42
aI36
aI49
aI49
aI49
aI37
aI72
aI84
aI36
aI33
aI65
aI44
aI42
aI11
aI66
aI62
aI40
aI75
aI59
aI55
aI60
aI93
aI42
aI77
aI35
aI59
aI59
aI34
aI20
aI14
aI4
aI16
aI4
aI20
aI16
aI8
aI15
aI19
aI4
aI7
aI17
aI17
aI3
aI2
aI15
aI4
aI16
aI11
aI3
aI7
aI8
aI8
aI5
aI4
aI2
aI5
aI66
aI63
aI34
aI66
aI61
aI60
aI61
aI62
aI29
aI35
aI45
aI59
aI63
aI9
aI47
aI42
aI70
aI19
aI74
aI45
aI31
aI80
aI34
aI31
aI38
aI50
aI54
aI89
aI46
aI19
aI33
aI60
aI54
aI46
aI78
aI65
aI72
aI43
aI6
aI23
aI55
aI32
aI92
aI76
aI42
aI76
aI19
aI55
aI40
aI36
aI47
aI43
aI53
aI76
aI58
aI69
aI29
aI36
aI51
aI50
aI73
aI57
aI39
aI30
aI69
aI37
aI30
aI58
aI53
aI47
aI51
aI62
aI56
aI52
aI52
aI51
aI46
aI53
aI60
aI34
aI80
aI41
aI25
aI67
aI52
aI13
aI24
aI57
aI53
aI39
aI32
aI63
aI53
aI39
aI39
aI63
aI70
aI69
aI63
aI47
aI29
aI78
aI67
aI58
aI21
aI51
aI74
aI69
aI49
aI62
aI32
aI89
aI63
aI64
aI74
aI29
aI48
aI18
aI43
aI48
aI36
aI62
aI33
aI96
aI73
aI81
aI60
aI11
aI63
aI49
aI72
aI74
aI46
aI32
aI85
aI86
aI41
aI32
aI26
aI35
aI63
aI53
aI86
aI73
aI45
aI61
aI46
aI2
aI2
aI3
aI1
aI2
aI4
aI5
aI3
aI3
aI4
aI1
aI5
aI5
aI1
aI1
aI1
aI1
aI2
aI2
aI1
aI2
aa(lp57
I4
aI9
aI30
aI36
aI45
aI20
aI65
aI31
aI44
aI53
aI55
aI26
aI38
aI78
aI30
aI61
aI42
aI36
aI49
aI49
aI49
aI37
aI72
aI84
aI36
aI33
aI65
aI44
aI42
aI11
aI66
aI62
aI40
aI75
aI59
aI55
aI60
aI93
aI42
aI77
aI35
aI59
aI59
aI34
aI20
aI14
aI4
aI16
aI4
aI20
aI16
aI8
aI15
aI19
aI4
aI7
aI17
aI17
aI3
aI2
aI15
aI4
aI16
aI11
aI3
aI7
aI8
aI8
aI5
aI4
aI2
aI5
aI66
aI63
aI34
aI66
aI61
aI60
aI61
aI62
aI29
aI35
aI45
aI59
aI63
aI9
aI46
aI42
aI70
aI19
aI74
aI45
aI31
aI80
aI34
aI31
aI38
aI51
aI54
aI89
aI46
aI19
aI33
aI60
aI54
aI47
aI78
aI65
aI72
aI43
aI6
aI23
aI55
aI32
aI92
aI76
aI42
aI76
aI19
aI55
aI40
aI36
aI47
aI43
aI53
aI76
aI58
aI69
aI29
aI36
aI51
aI50
aI73
aI57
aI39
aI30
aI69
aI37
aI30
aI58
aI53
aI47
aI51
aI62
aI56
aI52
aI53
aI51
aI46
aI53
aI60
aI34
aI80
aI41
aI25
aI67
aI52
aI13
aI24
aI57
aI53
aI39
aI32
aI63
aI53
aI39
aI39
aI63
aI71
aI69
aI63
aI47
aI29
aI78
aI67
aI58
aI21
aI51
aI74
aI69
aI49
aI62
aI32
aI89
aI63
aI64
aI74
aI29
aI48
aI18
aI43
aI48
aI36
aI61
aI33
aI96
aI73
aI81
aI60
aI11
aI63
aI49
aI72
aI74
aI46
aI32
aI85
aI86
aI41
aI32
aI26
aI35
aI63
aI53
aI86
aI73
aI45
aI61
aI46
aI2
aI2
aI3
aI1
aI2
aI4
aI5
aI3
aI3
aI4
aI1
aI5
aI5
aI1
aI1
aI1
aI1
aI2
aI2
aI1
aI2
aa(lp58
I4
aI9
aI30
aI36
aI45
aI20
aI65
aI31
aI44
aI53
aI55
aI26
aI38
aI78
aI30
aI61
aI42
aI36
aI49
aI49
aI49
aI37
aI72
aI84
aI36
aI33
aI65
aI44
aI42
aI11
aI66
aI62
aI40
aI75
aI59
aI55
aI60
aI93
aI42
aI77
aI35
aI59
aI59
aI34
aI20
aI14
aI4
aI16
aI4
aI20
aI16
aI8
aI15
aI19
aI4
aI7
aI17
aI17
aI3
aI2
aI15
aI4
aI16
aI11
aI3
aI7
aI8
aI8
aI5
aI4
aI2
aI5
aI66
aI63
aI34
aI66
aI61
aI60
aI61
aI62
aI29
aI35
aI45
aI59
aI63
aI9
aI47
aI42
aI70
aI19
aI74
aI45
aI31
aI80
aI34
aI31
aI38
aI50
aI54
aI89
aI46
aI19
aI33
aI60
aI54
aI46
aI78
aI65
aI72
aI43
aI6
aI23
aI55
aI32
aI92
aI76
aI42
aI76
aI19
aI55
aI40
aI36
aI47
aI43
aI53
aI76
aI58
aI69
aI29
aI36
aI51
aI50
aI73
aI57
aI39
aI30
aI69
aI37
aI30
aI58
aI53
aI47
aI51
aI62
aI56
aI52
aI52
aI51
aI46
aI53
aI60
aI34
aI80
aI41
aI25
aI67
aI52
aI13
aI24
aI57
aI53
aI39
aI32
aI63
aI53
aI39
aI39
aI63
aI70
aI69
aI63
aI47
aI29
aI78
aI67
aI58
aI21
aI51
aI74
aI69
aI49
aI62
aI32
aI89
aI63
aI64
aI74
aI29
aI48
aI18
aI43
aI48
aI36
aI62
aI33
aI96
aI73
aI81
aI60
aI11
aI63
aI49
aI72
aI74
aI46
aI32
aI85
aI86
aI41
aI32
aI26
aI35
aI63
aI53
aI86
aI73
aI45
aI61
aI46
aI2
aI2
aI3
aI1
aI2
aI4
aI5
aI3
aI3
aI4
aI1
aI5
aI5
aI1
aI1
aI1
aI1
aI2
aI2
aI1
aI2
aa(lp59
I4
aI9
aI30
aI36
aI45
aI20
aI65
aI31
aI44
aI53
aI55
aI26
aI38
aI78
aI30
aI61
aI42
aI36
aI49
aI49
aI49
aI37
aI72
aI84
aI36
aI33
aI65
aI44
aI42
aI11
aI66
aI62
aI40
aI75
aI59
aI55
aI60
aI93
aI42
aI77
aI35
aI59
aI59
aI34
aI20
aI14
aI4
aI16
aI4
aI20
aI16
aI8
aI15
aI19
aI4
aI7
aI17
aI17
aI3
aI2
aI15
aI4
aI16
aI11
aI3
aI7
aI8
aI8
aI5
aI4
aI2
aI5
aI66
aI63
aI34
aI66
aI61
aI60
aI61
aI62
aI29
aI35
aI45
aI59
aI63
aI9
aI47
aI42
aI70
aI19
aI74
aI45
aI31
aI80
aI34
aI31
aI38
aI50
aI54
aI89
aI46
aI19
aI33
aI60
aI54
aI46
aI78
aI65
aI72
aI43
aI6
aI23
aI55
aI32
aI92
aI76
aI42
aI76
aI19
aI55
aI40
aI36
aI47
aI43
aI53
aI76
aI58
aI69
aI29
aI36
aI51
aI50
aI73
aI57
aI39
aI30
aI69
aI37
aI30
aI58
aI53
aI47
aI51
aI62
aI56
aI52
aI52
aI51
aI46
aI53
aI60
aI34
aI80
aI41
aI25
aI67
aI52
aI13
aI24
aI57
aI53
aI39
aI32
aI63
aI53
aI39
aI39
aI63
aI70
aI69
aI63
aI47
aI29
aI78
aI67
aI58
aI21
aI51
aI74
aI69
aI49
aI62
aI32
aI89
aI63
aI64
aI74
aI29
aI48
aI18
aI43
aI48
aI36
aI62
aI33
aI96
aI73
aI81
aI60
aI11
aI63
aI49
aI72
aI74
aI46
aI32
aI85
aI86
aI41
aI32
aI26
aI35
aI63
aI53
aI86
aI73
aI45
aI61
aI46
aI2
aI2
aI3
aI1
aI2
aI4
aI5
aI3
aI3
aI4
aI1
aI5
aI5
aI1
aI1
aI1
aI1
aI2
aI2
aI1
aI2
aa(lp60
I4
aI9
aI30
aI36
aI45
aI20
aI65
aI31
aI44
aI53
aI55
aI26
aI38
aI78
aI30
aI61
aI42
aI36
aI49
aI49
aI49
aI37
aI72
aI84
aI36
aI33
aI65
aI44
aI42
aI11
aI66
aI62
aI40
aI75
aI59
aI55
aI60
aI93
aI42
aI77
aI35
aI59
aI59
aI34
aI20
aI14
aI4
aI16
aI4
aI20
aI16
aI8
aI15
aI19
aI4
aI7
aI17
aI17
aI3
aI2
aI15
aI4
aI16
aI11
aI3
aI7
aI8
aI8
aI5
aI4
aI2
aI5
aI66
aI63
aI34
aI66
aI61
aI60
aI61
aI62
aI29
aI35
aI45
aI59
aI63
aI9
aI47
aI42
aI70
aI19
aI74
aI45
aI31
aI80
aI34
aI31
aI38
aI50
aI54
aI89
aI46
aI19
aI33
aI60
aI54
aI46
aI78
aI65
aI72
aI43
aI6
aI23
aI55
aI32
aI92
aI76
aI42
aI76
aI19
aI55
aI40
aI36
aI47
aI43
aI53
aI76
aI58
aI69
aI29
aI36
aI51
aI50
aI73
aI57
aI39
aI30
aI69
aI37
aI30
aI58
aI53
aI47
aI51
aI62
aI56
aI52
aI52
aI51
aI46
aI53
aI60
aI34
aI80
aI41
aI25
aI67
aI52
aI13
aI24
aI57
aI53
aI39
aI32
aI63
aI53
aI39
aI39
aI63
aI70
aI69
aI63
aI47
aI29
aI78
aI67
aI58
aI21
aI51
aI74
aI69
aI49
aI62
aI32
aI89
aI63
aI64
aI74
aI29
aI48
aI18
aI43
aI48
aI36
aI62
aI33
aI96
aI73
aI81
aI60
aI11
aI63
aI49
aI72
aI74
aI46
aI32
aI85
aI86
aI41
aI32
aI26
aI35
aI63
aI53
aI86
aI73
aI45
aI61
aI46
aI2
aI2
aI3
aI1
aI2
aI4
aI5
aI3
aI3
aI4
aI1
aI5
aI5
aI1
aI1
aI1
aI1
aI2
aI2
aI1
aI2
aa(lp61
I4
aI9
aI30
aI36
aI45
aI20
aI65
aI31
aI44
aI53
aI55
aI26
aI38
aI78
aI30
aI61
aI42
aI36
aI49
aI49
aI49
aI37
aI72
aI84
aI36
aI33
aI65
aI44
aI42
aI11
aI66
aI62
aI40
aI75
aI59
aI55
aI60
aI93
aI42
aI77
aI35
aI59
aI59
aI34
aI20
aI14
aI4
aI16
aI4
aI20
aI16
aI8
aI15
aI19
aI4
aI7
aI17
aI17
aI3
aI2
aI15
aI4
aI16
aI11
aI3
aI7
aI8
aI8
aI5
aI4
aI2
aI5
aI66
aI63
aI34
aI66
aI61
aI60
aI61
aI62
aI29
aI35
aI45
aI59
aI63
aI9
aI47
aI42
aI70
aI19
aI74
aI45
aI31
aI80
aI34
aI31
aI38
aI50
aI54
aI89
aI46
aI19
aI33
aI60
aI54
aI46
aI78
aI65
aI72
aI43
aI6
aI23
aI55
aI32
aI92
aI76
aI42
aI76
aI19
aI55
aI40
aI36
aI47
aI43
aI53
aI76
aI58
aI69
aI29
aI36
aI51
aI50
aI73
aI57
aI39
aI30
aI69
aI37
aI30
aI58
aI53
aI47
aI51
aI62
aI56
aI52
aI52
aI51
aI46
aI53
aI60
aI34
aI80
aI41
aI25
aI67
aI52
aI13
aI24
aI57
aI53
aI39
aI32
aI63
aI53
aI39
aI39
aI63
aI70
aI69
aI63
aI47
aI29
aI78
aI67
aI58
aI21
aI51
aI74
aI69
aI49
aI62
aI32
aI89
aI63
aI64
aI74
aI29
aI48
aI18
aI43
aI48
aI36
aI62
aI33
aI96
aI73
aI81
aI60
aI11
aI63
aI49
aI72
aI74
aI46
aI32
aI85
aI86
aI41
aI32
aI26
aI35
aI63
aI53
aI86
aI73
aI45
aI61
aI46
aI2
aI2
aI3
aI1
aI2
aI4
aI5
aI3
aI3
aI4
aI1
aI5
aI5
aI1
aI1
aI1
aI1
aI2
aI2
aI1
aI2
aa(lp62
I4
aI9
aI30
aI36
aI45
aI20
aI65
aI31
aI44
aI53
aI55
aI26
aI38
aI78
aI30
aI61
aI42
aI36
aI49
aI49
aI49
aI37
aI72
aI84
aI36
aI33
aI65
aI44
aI42
aI11
aI66
aI62
aI40
aI75
aI59
aI55
aI60
aI93
aI42
aI77
aI35
aI59
aI59
aI34
aI20
aI14
aI4
aI16
aI4
aI20
aI16
aI8
aI15
aI19
aI4
aI7
aI17
aI17
aI3
aI2
aI15
aI4
aI16
aI11
aI3
aI7
aI8
aI8
aI5
aI4
aI2
aI5
aI66
aI63
aI34
aI66
aI61
aI60
aI61
aI62
aI29
aI35
aI45
aI59
aI63
aI9
aI47
aI42
aI70
aI19
aI74
aI45
aI31
aI80
aI34
aI31
aI38
aI50
aI54
aI89
aI46
aI19
aI33
aI60
aI54
aI46
aI78
aI65
aI72
aI43
aI6
aI23
aI55
aI32
aI92
aI76
aI42
aI76
aI19
aI55
aI40
aI36
aI47
aI43
aI53
aI76
aI58
aI69
aI29
aI36
aI51
aI50
aI73
aI57
aI39
aI30
aI69
aI37
aI30
aI58
aI53
aI47
aI51
aI62
aI56
aI52
aI52
aI51
aI46
aI53
aI60
aI34
aI80
aI41
aI25
aI67
aI52
aI13
aI24
aI57
aI53
aI39
aI32
aI63
aI53
aI39
aI39
aI63
aI70
aI69
aI63
aI47
aI29
aI78
aI67
aI58
aI21
aI51
aI74
aI69
aI49
aI62
aI32
aI89
aI63
aI64
aI74
aI29
aI48
aI18
aI43
aI48
aI36
aI62
aI33
aI96
aI73
aI81
aI60
aI11
aI63
aI49
aI72
aI74
aI46
aI32
aI85
aI86
aI41
aI32
aI26
aI35
aI63
aI53
aI86
aI73
aI45
aI61
aI46
aI2
aI2
aI3
aI1
aI2
aI4
aI5
aI3
aI3
aI4
aI1
aI5
aI5
aI1
aI1
aI1
aI1
aI2
aI2
aI1
aI2
aa(lp63
I4
aI9
aI30
aI36
aI45
aI20
aI65
aI31
aI44
aI53
aI55
aI26
aI38
aI78
aI30
aI61
aI42
aI36
aI49
aI49
aI49
aI37
aI72
aI84
aI36
aI33
aI65
aI44
aI42
aI11
aI66
aI62
aI40
aI75
aI59
aI55
aI60
aI93
aI42
aI77
aI35
aI59
aI59
aI34
aI20
aI14
aI4
aI16
aI4
aI20
aI16
aI8
aI15
aI19
aI4
aI7
aI17
aI17
aI3
aI2
aI15
aI4
aI16
aI11
aI3
aI7
aI8
aI8
aI5
aI4
aI2
aI5
aI66
aI63
aI34
aI66
aI61
aI60
aI61
aI62
aI29
aI35
aI45
aI59
aI63
aI9
aI47
aI42
aI70
aI19
aI74
aI45
aI31
aI80
aI34
aI31
aI38
aI50
aI54
aI89
aI46
aI19
aI33
aI60
aI54
aI46
aI78
aI65
aI72
aI43
aI6
aI23
aI55
aI32
aI92
aI76
aI42
aI76
aI19
aI55
aI40
aI36
aI47
aI43
aI53
aI76
aI58
aI69
aI29
aI36
aI51
aI50
aI73
aI57
aI39
aI30
aI69
aI37
aI30
aI58
aI53
aI47
aI51
aI62
aI56
aI52
aI52
aI51
aI46
aI53
aI60
aI34
aI80
aI41
aI25
aI67
aI52
aI13
aI24
aI57
aI53
aI39
aI32
aI63
aI53
aI39
aI39
aI63
aI70
aI69
aI63
aI47
aI29
aI78
aI67
aI58
aI21
aI51
aI74
aI69
aI49
aI62
aI32
aI89
aI63
aI64
aI74
aI29
aI48
aI18
aI43
aI48
aI36
aI62
aI33
aI96
aI73
aI81
aI60
aI11
aI63
aI49
aI72
aI74
aI46
aI32
aI85
aI86
aI41
aI32
aI26
aI35
aI63
aI53
aI86
aI73
aI45
aI61
aI46
aI2
aI2
aI3
aI1
aI2
aI4
aI5
aI3
aI3
aI4
aI1
aI5
aI5
aI1
aI1
aI1
aI1
aI2
aI2
aI1
aI2
aa(lp64
I4
aI9
aI30
aI36
aI45
aI20
aI65
aI31
aI44
aI53
aI55
aI26
aI38
aI78
aI30
aI61
aI42
aI36
aI49
aI49
aI49
aI37
aI72
aI84
aI36
aI33
aI65
aI44
aI42
aI11
aI66
aI62
aI40
aI75
aI59
aI55
aI60
aI93
aI42
aI77
aI35
aI59
aI59
aI34
aI20
aI14
aI4
aI16
aI4
aI20
aI16
aI8
aI15
aI19
aI4
aI7
aI17
aI17
aI3
aI2
aI15
aI4
aI16
aI11
aI3
aI7
aI8
aI8
aI5
aI4
aI2
aI5
aI66
aI63
aI34
aI66
aI61
aI60
aI61
aI62
aI29
aI35
aI45
aI59
aI63
aI9
aI47
aI42
aI70
aI19
aI74
aI45
aI31
aI80
aI34
aI31
aI38
aI50
aI54
aI89
aI46
aI19
aI33
aI60
aI54
aI46
aI78
aI65
aI72
aI43
aI6
aI23
aI55
aI32
aI92
aI76
aI42
aI76
aI19
aI55
aI40
aI36
aI47
aI43
aI53
aI76
aI58
aI69
aI29
aI36
aI51
aI50
aI73
aI57
aI39
aI30
aI69
aI37
aI30
aI58
aI53
aI47
aI51
aI62
aI56
aI52
aI52
aI51
aI46
aI53
aI60
aI34
aI80
aI41
aI25
aI67
aI52
aI13
aI24
aI57
aI53
aI39
aI32
aI63
aI53
aI39
aI39
aI63
aI70
aI69
aI63
aI47
aI29
aI78
aI67
aI58
aI21
aI51
aI74
aI69
aI49
aI62
aI32
aI89
aI63
aI64
aI74
aI29
aI48
aI18
aI43
aI48
aI36
aI62
aI33
aI96
aI73
aI81
aI60
aI11
aI63
aI49
aI72
aI74
aI46
aI32
aI85
aI86
aI41
aI32
aI26
aI35
aI63
aI53
aI86
aI73
aI45
aI61
aI46
aI2
aI2
aI3
aI1
aI2
aI4
aI5
aI3
aI3
aI4
aI1
aI5
aI5
aI1
aI1
aI1
aI1
aI2
aI2
aI1
aI2
aa(lp65
I4
aI9
aI30
aI36
aI45
aI20
aI65
aI31
aI44
aI53
aI55
aI26
aI38
aI78
aI30
aI61
aI42
aI36
aI49
aI49
aI49
aI37
aI72
aI84
aI36
aI33
aI65
aI44
aI42
aI11
aI66
aI62
aI40
aI75
aI59
aI55
aI60
aI93
aI42
aI77
aI35
aI59
aI59
aI34
aI20
aI14
aI4
aI16
aI4
aI20
aI16
aI8
aI15
aI19
aI4
aI7
aI17
aI17
aI3
aI2
aI15
aI4
aI16
aI11
aI3
aI7
aI8
aI8
aI5
aI4
aI2
aI5
aI66
aI63
aI34
aI66
aI61
aI60
aI61
aI62
aI29
aI35
aI45
aI59
aI63
aI9
aI46
aI42
aI70
aI19
aI74
aI45
aI31
aI80
aI34
aI31
aI38
aI51
aI54
aI89
aI46
aI19
aI33
aI60
aI54
aI47
aI78
aI65
aI72
aI43
aI6
aI23
aI55
aI32
aI92
aI76
aI42
aI76
aI19
aI55
aI40
aI36
aI47
aI43
aI53
aI76
aI58
aI69
aI29
aI36
aI51
aI50
aI73
aI57
aI39
aI30
aI69
aI37
aI30
aI58
aI53
aI47
aI51
aI62
aI56
aI52
aI53
aI51
aI46
aI53
aI60
aI34
aI80
aI41
aI25
aI67
aI52
aI13
aI24
aI57
aI53
aI39
aI32
aI63
aI53
aI39
aI39
aI63
aI71
aI69
aI63
aI47
aI29
aI78
aI67
aI58
aI21
aI51
aI74
aI69
aI49
aI62
aI32
aI89
aI63
aI64
aI74
aI29
aI48
aI18
aI43
aI48
aI36
aI61
aI33
aI96
aI73
aI81
aI60
aI11
aI63
aI49
aI72
aI74
aI46
aI32
aI85
aI86
aI41
aI32
aI26
aI35
aI63
aI53
aI86
aI73
aI45
aI61
aI46
aI2
aI2
aI3
aI1
aI2
aI4
aI5
aI3
aI3
aI4
aI1
aI5
aI5
aI1
aI1
aI1
aI1
aI2
aI2
aI1
aI2
aa(lp66
I4
aI9
aI30
aI36
aI45
aI20
aI65
aI31
aI44
aI53
aI55
aI26
aI38
aI78
aI30
aI61
aI42
aI36
aI49
aI49
aI49
aI37
aI72
aI84
aI36
aI33
aI65
aI44
aI42
aI11
aI66
aI62
aI40
aI75
aI59
aI55
aI60
aI93
aI42
aI77
aI35
aI59
aI59
aI34
aI20
aI14
aI4
aI16
aI4
aI20
aI16
aI8
aI15
aI19
aI4
aI7
aI17
aI17
aI3
aI2
aI15
aI4
aI16
aI11
aI3
aI7
aI8
aI8
aI5
aI4
aI2
aI5
aI66
aI63
aI34
aI66
aI61
aI60
aI61
aI62
aI29
aI35
aI45
aI59
aI63
aI9
aI47
aI42
aI70
aI19
aI74
aI45
aI31
aI80
aI34
aI31
aI38
aI50
aI54
aI89
aI46
aI19
aI33
aI60
aI54
aI46
aI78
aI65
aI72
aI43
aI6
aI23
aI55
aI32
aI92
aI76
aI42
aI76
aI19
aI55
aI40
aI36
aI47
aI43
aI53
aI76
aI58
aI69
aI29
aI36
aI51
aI50
aI73
aI57
aI39
aI30
aI69
aI37
aI30
aI58
aI53
aI47
aI51
aI62
aI56
aI52
aI52
aI51
aI46
aI53
aI60
aI34
aI80
aI41
aI25
aI67
aI52
aI13
aI24
aI57
aI53
aI39
aI32
aI63
aI53
aI39
aI39
aI63
aI70
aI69
aI63
aI47
aI29
aI78
aI67
aI58
aI21
aI51
aI74
aI69
aI49
aI62
aI32
aI89
aI63
aI64
aI74
aI29
aI48
aI18
aI43
aI48
aI36
aI62
aI33
aI96
aI73
aI81
aI60
aI11
aI63
aI49
aI72
aI74
aI46
aI32
aI85
aI86
aI41
aI32
aI26
aI35
aI63
aI53
aI86
aI73
aI45
aI61
aI46
aI2
aI2
aI3
aI1
aI2
aI4
aI5
aI3
aI3
aI4
aI1
aI5
aI5
aI1
aI1
aI1
aI1
aI2
aI2
aI1
aI2
aa(lp67
I4
aI9
aI30
aI36
aI45
aI20
aI65
aI31
aI44
aI53
aI55
aI26
aI38
aI78
aI30
aI61
aI42
aI36
aI49
aI49
aI49
aI37
aI72
aI84
aI36
aI33
aI65
aI44
aI42
aI11
aI66
aI62
aI40
aI75
aI59
aI55
aI60
aI93
aI42
aI77
aI35
aI59
aI59
aI34
aI20
aI14
aI4
aI16
aI4
aI20
aI16
aI8
aI15
aI19
aI4
aI7
aI17
aI17
aI3
aI2
aI15
aI4
aI16
aI11
aI3
aI7
aI8
aI8
aI5
aI4
aI2
aI5
aI66
aI63
aI34
aI66
aI61
aI60
aI61
aI62
aI29
aI35
aI45
aI59
aI63
aI9
aI47
aI42
aI70
aI19
aI74
aI45
aI31
aI80
aI34
aI31
aI38
aI50
aI54
aI89
aI46
aI19
aI33
aI60
aI54
aI46
aI78
aI65
aI72
aI43
aI6
aI23
aI55
aI32
aI92
aI76
aI42
aI76
aI19
aI55
aI40
aI36
aI47
aI43
aI53
aI76
aI58
aI69
aI29
aI36
aI51
aI50
aI73
aI57
aI39
aI30
aI69
aI37
aI30
aI58
aI53
aI47
aI51
aI62
aI56
aI52
aI52
aI51
aI46
aI53
aI60
aI34
aI80
aI41
aI25
aI67
aI52
aI13
aI24
aI57
aI53
aI39
aI32
aI63
aI53
aI39
aI39
aI63
aI70
aI69
aI63
aI47
aI29
aI78
aI67
aI58
aI21
aI51
aI74
aI69
aI49
aI62
aI32
aI89
aI63
aI64
aI74
aI29
aI48
aI18
aI43
aI48
aI36
aI62
aI33
aI96
aI73
aI81
aI60
aI11
aI63
aI49
aI72
aI74
aI46
aI32
aI85
aI86
aI41
aI32
aI26
aI35
aI63
aI53
aI86
aI73
aI45
aI61
aI46
aI2
aI2
aI3
aI1
aI2
aI4
aI5
aI3
aI3
aI4
aI1
aI5
aI5
aI1
aI1
aI1
aI1
aI2
aI2
aI1
aI2
aa(lp68
I4
aI9
aI30
aI36
aI45
aI20
aI65
aI31
aI44
aI53
aI55
aI26
aI38
aI78
aI30
aI61
aI42
aI36
aI49
aI49
aI49
aI37
aI72
aI84
aI36
aI33
aI65
aI44
aI42
aI11
aI66
aI62
aI40
aI75
aI59
aI55
aI60
aI93
aI42
aI77
aI35
aI59
aI59
aI34
aI20
aI14
aI4
aI16
aI4
aI20
aI16
aI8
aI15
aI19
aI4
aI7
aI17
aI17
aI3
aI2
aI15
aI4
aI16
aI11
aI3
aI7
aI8
aI8
aI5
aI4
aI2
aI5
aI66
aI63
aI34
aI66
aI61
aI60
aI61
aI62
aI29
aI35
aI45
aI59
aI63
aI9
aI47
aI42
aI70
aI19
aI74
aI45
aI31
aI80
aI34
aI31
aI38
aI50
aI54
aI89
aI46
aI19
aI33
aI60
aI54
aI46
aI78
aI65
aI72
aI43
aI6
aI23
aI55
aI32
aI92
aI76
aI42
aI76
aI19
aI55
aI40
aI36
aI47
aI43
aI53
aI76
aI58
aI69
aI29
aI36
aI51
aI50
aI73
aI57
aI39
aI30
aI69
aI37
aI30
aI58
aI53
aI47
aI51
aI62
aI56
aI52
aI52
aI51
aI46
aI53
aI60
aI34
aI80
aI41
aI25
aI67
aI52
aI13
aI24
aI57
aI53
aI39
aI32
aI63
aI53
aI39
aI39
aI63
aI70
aI69
aI63
aI47
aI29
aI78
aI67
aI58
aI21
aI51
aI74
aI69
aI49
aI62
aI32
aI89
aI63
aI64
aI74
aI29
aI48
aI18
aI43
aI48
aI36
aI62
aI33
aI96
aI73
aI81
aI60
aI11
aI63
aI49
aI72
aI74
aI46
aI32
aI85
aI86
aI41
aI32
aI26
aI35
aI63
aI53
aI86
aI73
aI45
aI61
aI46
aI2
aI2
aI3
aI1
aI2
aI4
aI5
aI3
aI3
aI4
aI1
aI5
aI5
aI1
aI1
aI1
aI1
aI2
aI2
aI1
aI2
aa(lp69
I4
aI9
aI30
aI36
aI45
aI20
aI65
aI31
aI44
aI53
aI55
aI26
aI38
aI78
aI30
aI61
aI42
aI36
aI49
aI49
aI49
aI37
aI72
aI84
aI36
aI33
aI65
aI44
aI42
aI11
aI66
aI62
aI40
aI75
aI59
aI55
aI60
aI93
aI42
aI77
aI35
aI59
aI59
aI34
aI20
aI14
aI4
aI16
aI4
aI20
aI16
aI8
aI15
aI19
aI4
aI7
aI17
aI17
aI3
aI2
aI15
aI4
aI16
aI11
aI3
aI7
aI8
aI8
aI5
aI4
aI2
aI5
aI66
aI63
aI34
aI66
aI61
aI60
aI61
aI62
aI29
aI35
aI45
aI59
aI63
aI9
aI47
aI42
aI70
aI19
aI74
aI45
aI31
aI80
aI34
aI31
aI38
aI50
aI54
aI89
aI46
aI19
aI33
aI60
aI54
aI46
aI78
aI65
aI72
aI43
aI6
aI23
aI55
aI32
aI92
aI76
aI42
aI76
aI19
aI55
aI40
aI36
aI47
aI43
aI53
aI76
aI58
aI69
aI29
aI36
aI51
aI50
aI73
aI57
aI39
aI30
aI69
aI37
aI30
aI58
aI53
aI47
aI51
aI62
aI56
aI52
aI52
aI51
aI46
aI53
aI60
aI34
aI80
aI41
aI25
aI67
aI52
aI13
aI24
aI57
aI53
aI39
aI32
aI63
aI53
aI39
aI39
aI63
aI70
aI69
aI63
aI47
aI29
aI78
aI67
aI58
aI21
aI51
aI74
aI69
aI49
aI62
aI32
aI89
aI63
aI64
aI74
aI29
aI48
aI18
aI43
aI48
aI36
aI62
aI33
aI96
aI73
aI81
aI60
aI11
aI63
aI49
aI72
aI74
aI46
aI32
aI85
aI86
aI41
aI32
aI26
aI35
aI63
aI53
aI86
aI73
aI45
aI61
aI46
aI2
aI2
aI3
aI1
aI2
aI4
aI5
aI3
aI3
aI4
aI1
aI5
aI5
aI1
aI1
aI1
aI1
aI2
aI2
aI1
aI2
aa(lp70
I4
aI9
aI30
aI36
aI45
aI20
aI65
aI31
aI44
aI53
aI55
aI26
aI38
aI78
aI30
aI61
aI42
aI36
aI49
aI49
aI49
aI37
aI72
aI84
aI36
aI33
aI65
aI44
aI42
aI11
aI66
aI62
aI40
aI75
aI59
aI55
aI60
aI93
aI42
aI77
aI35
aI59
aI59
aI34
aI20
aI14
aI4
aI16
aI4
aI20
aI16
aI8
aI15
aI19
aI4
aI7
aI17
aI17
aI3
aI2
aI15
aI4
aI16
aI11
aI3
aI7
aI8
aI8
aI5
aI4
aI2
aI5
aI66
aI63
aI34
aI66
aI61
aI60
aI61
aI62
aI29
aI35
aI45
aI59
aI63
aI9
aI46
aI42
aI70
aI19
aI74
aI45
aI31
aI80
aI34
aI31
aI38
aI51
aI54
aI89
aI46
aI19
aI33
aI60
aI54
aI47
aI78
aI65
aI72
aI43
aI6
aI23
aI55
aI32
aI92
aI76
aI42
aI76
aI19
aI55
aI40
aI36
aI47
aI43
aI53
aI76
aI58
aI69
aI29
aI36
aI51
aI50
aI73
aI57
aI39
aI30
aI69
aI37
aI30
aI58
aI53
aI47
aI51
aI62
aI56
aI52
aI53
aI51
aI46
aI53
aI60
aI34
aI80
aI41
aI25
aI67
aI52
aI13
aI24
aI57
aI53
aI39
aI32
aI63
aI53
aI39
aI39
aI63
aI71
aI69
aI63
aI47
aI29
aI78
aI67
aI58
aI21
aI51
aI74
aI69
aI49
aI62
aI32
aI89
aI63
aI64
aI74
aI29
aI48
aI18
aI43
aI48
aI36
aI61
aI33
aI96
aI73
aI81
aI60
aI11
aI63
aI49
aI72
aI74
aI46
aI32
aI85
aI86
aI41
aI32
aI26
aI35
aI63
aI53
aI86
aI73
aI45
aI61
aI46
aI2
aI2
aI3
aI1
aI2
aI4
aI5
aI3
aI3
aI4
aI1
aI5
aI5
aI1
aI1
aI1
aI1
aI2
aI2
aI1
aI2
aa(lp71
I4
aI10
aI30
aI35
aI42
aI20
aI65
aI31
aI43
aI54
aI55
aI26
aI38
aI81
aI30
aI64
aI42
aI36
aI48
aI49
aI49
aI36
aI73
aI84
aI36
aI33
aI65
aI44
aI41
aI11
aI66
aI62
aI40
aI74
aI59
aI55
aI60
aI94
aI43
aI78
aI35
aI59
aI59
aI31
aI21
aI14
aI4
aI13
aI4
aI19
aI16
aI8
aI15
aI19
aI4
aI6
aI17
aI15
aI3
aI2
aI15
aI4
aI16
aI11
aI4
aI7
aI8
aI9
aI6
aI4
aI2
aI6
aI66
aI63
aI34
aI66
aI61
aI60
aI59
aI62
aI29
aI36
aI45
aI59
aI63
aI11
aI43
aI43
aI70
aI19
aI74
aI44
aI31
aI80
aI34
aI31
aI38
aI53
aI54
aI89
aI46
aI19
aI33
aI60
aI53
aI49
aI79
aI65
aI72
aI43
aI6
aI23
aI55
aI33
aI92
aI76
aI43
aI76
aI19
aI55
aI37
aI36
aI47
aI43
aI53
aI76
aI58
aI69
aI30
aI35
aI51
aI48
aI73
aI57
aI39
aI30
aI68
aI37
aI30
aI58
aI53
aI47
aI51
aI62
aI56
aI53
aI55
aI52
aI46
aI53
aI60
aI34
aI80
aI41
aI24
aI67
aI52
aI12
aI25
aI57
aI53
aI39
aI32
aI63
aI52
aI38
aI39
aI63
aI73
aI69
aI63
aI47
aI29
aI78
aI67
aI59
aI21
aI52
aI74
aI70
aI49
aI62
aI34
aI89
aI64
aI67
aI73
aI29
aI48
aI18
aI46
aI47
aI36
aI59
aI36
aI95
aI73
aI81
aI59
aI12
aI63
aI50
aI72
aI74
aI46
aI32
aI82
aI86
aI41
aI32
aI26
aI35
aI63
aI53
aI86
aI72
aI45
aI62
aI46
aI2
aI2
aI2
aI1
aI2
aI3
aI5
aI2
aI3
aI4
aI3
aI5
aI5
aI1
aI1
aI1
aI1
aI2
aI1
aI1
aI2
aa(lp72
I4
aI10
aI30
aI35
aI42
aI20
aI65
aI31
aI43
aI54
aI55
aI26
aI38
aI81
aI30
aI64
aI42
aI36
aI48
aI49
aI49
aI36
aI73
aI84
aI36
aI33
aI65
aI44
aI41
aI11
aI66
aI62
aI40
aI74
aI59
aI55
aI60
aI94
aI43
aI78
aI35
aI59
aI59
aI31
aI21
aI14
aI4
aI13
aI4
aI19
aI16
aI8
aI15
aI19
aI4
aI6
aI17
aI15
aI3
aI2
aI15
aI4
aI16
aI11
aI4
aI7
aI8
aI9
aI6
aI4
aI2
aI6
aI66
aI63
aI34
aI66
aI61
aI60
aI59
aI62
aI29
aI36
aI45
aI59
aI63
aI11
aI43
aI43
aI70
aI19
aI74
aI44
aI31
aI80
aI34
aI31
aI38
aI53
aI54
aI89
aI46
aI19
aI33
aI60
aI53
aI49
aI79
aI65
aI72
aI43
aI6
aI23
aI55
aI33
aI92
aI76
aI43
aI76
aI19
aI55
aI37
aI36
aI47
aI43
aI53
aI76
aI58
aI69
aI30
aI35
aI51
aI48
aI73
aI57
aI39
aI30
aI68
aI37
aI30
aI58
aI53
aI47
aI51
aI62
aI56
aI53
aI55
aI52
aI46
aI53
aI60
aI34
aI80
aI41
aI24
aI67
aI52
aI12
aI25
aI57
aI53
aI39
aI32
aI63
aI52
aI38
aI39
aI63
aI73
aI69
aI63
aI47
aI29
aI78
aI67
aI59
aI21
aI52
aI74
aI70
aI49
aI62
aI34
aI89
aI64
aI67
aI73
aI29
aI48
aI18
aI46
aI47
aI36
aI59
aI36
aI95
aI73
aI81
aI59
aI12
aI63
aI50
aI72
aI74
aI46
aI32
aI82
aI86
aI41
aI32
aI26
aI35
aI63
aI53
aI86
aI72
aI45
aI62
aI46
aI2
aI2
aI2
aI1
aI2
aI3
aI5
aI2
aI3
aI4
aI3
aI5
aI5
aI1
aI1
aI1
aI1
aI2
aI1
aI1
aI2
aa(lp73
I4
aI9
aI30
aI36
aI45
aI20
aI65
aI31
aI43
aI53
aI55
aI26
aI37
aI78
aI30
aI61
aI42
aI34
aI49
aI49
aI49
aI37
aI74
aI84
aI36
aI33
aI65
aI44
aI40
aI11
aI66
aI62
aI40
aI77
aI59
aI54
aI60
aI93
aI43
aI77
aI35
aI59
aI59
aI34
aI20
aI14
aI4
aI16
aI2
aI18
aI16
aI8
aI15
aI19
aI4
aI7
aI17
aI17
aI3
aI2
aI15
aI4
aI16
aI11
aI3
aI7
aI8
aI8
aI6
aI4
aI2
aI5
aI68
aI63
aI34
aI66
aI61
aI60
aI60
aI62
aI29
aI36
aI45
aI59
aI64
aI9
aI46
aI43
aI70
aI19
aI74
aI44
aI31
aI80
aI34
aI31
aI38
aI51
aI54
aI89
aI46
aI19
aI33
aI60
aI52
aI46
aI78
aI65
aI74
aI43
aI6
aI23
aI55
aI32
aI92
aI76
aI44
aI76
aI19
aI54
aI39
aI36
aI47
aI43
aI53
aI76
aI58
aI69
aI31
aI36
aI51
aI50
aI73
aI57
aI39
aI30
aI69
aI37
aI30
aI57
aI53
aI48
aI50
aI62
aI56
aI53
aI52
aI53
aI47
aI53
aI61
aI34
aI80
aI41
aI24
aI69
aI52
aI12
aI25
aI55
aI53
aI39
aI32
aI63
aI51
aI37
aI39
aI62
aI72
aI71
aI63
aI47
aI29
aI78
aI67
aI60
aI21
aI53
aI76
aI70
aI49
aI62
aI35
aI89
aI65
aI65
aI72
aI30
aI48
aI18
aI43
aI48
aI36
aI60
aI35
aI94
aI73
aI81
aI58
aI11
aI63
aI50
aI72
aI74
aI46
aI32
aI85
aI86
aI41
aI32
aI26
aI35
aI63
aI53
aI86
aI71
aI45
aI63
aI44
aI2
aI2
aI3
aI1
aI2
aI3
aI5
aI3
aI3
aI4
aI1
aI5
aI5
aI1
aI1
aI1
aI1
aI2
aI2
aI1
aI2
aa(lp74
I4
aI10
aI30
aI35
aI43
aI20
aI65
aI31
aI43
aI54
aI55
aI26
aI38
aI80
aI30
aI63
aI42
aI36
aI48
aI49
aI49
aI36
aI73
aI84
aI36
aI33
aI65
aI44
aI41
aI11
aI66
aI62
aI40
aI74
aI59
aI55
aI60
aI94
aI43
aI78
aI35
aI59
aI59
aI32
aI21
aI14
aI4
aI14
aI4
aI19
aI16
aI8
aI15
aI19
aI4
aI6
aI17
aI15
aI3
aI2
aI15
aI4
aI16
aI11
aI4
aI7
aI8
aI9
aI6
aI4
aI2
aI6
aI66
aI63
aI34
aI66
aI61
aI60
aI59
aI62
aI29
aI36
aI45
aI59
aI63
aI11
aI44
aI43
aI70
aI19
aI74
aI44
aI31
aI80
aI34
aI31
aI38
aI53
aI54
aI89
aI46
aI19
aI33
aI60
aI53
aI49
aI79
aI65
aI72
aI43
aI6
aI23
aI55
aI33
aI92
aI76
aI43
aI76
aI19
aI55
aI38
aI36
aI47
aI43
aI53
aI76
aI58
aI69
aI30
aI35
aI51
aI48
aI73
aI57
aI39
aI30
aI68
aI37
aI30
aI58
aI53
aI47
aI51
aI62
aI56
aI53
aI55
aI52
aI46
aI53
aI60
aI34
aI80
aI41
aI24
aI67
aI52
aI12
aI25
aI57
aI53
aI39
aI32
aI63
aI52
aI38
aI39
aI63
aI73
aI69
aI63
aI47
aI29
aI78
aI67
aI59
aI21
aI52
aI74
aI70
aI49
aI62
aI34
aI89
aI64
aI66
aI73
aI29
aI48
aI18
aI45
aI47
aI36
aI59
aI35
aI95
aI73
aI81
aI59
aI12
aI63
aI50
aI72
aI74
aI46
aI32
aI83
aI86
aI41
aI32
aI26
aI35
aI63
aI53
aI86
aI72
aI45
aI62
aI46
aI2
aI2
aI2
aI1
aI2
aI3
aI5
aI2
aI3
aI4
aI3
aI5
aI5
aI1
aI1
aI1
aI1
aI2
aI1
aI1
aI2
aa(lp75
I4
aI10
aI30
aI35
aI43
aI20
aI65
aI31
aI43
aI54
aI55
aI26
aI38
aI80
aI30
aI63
aI42
aI36
aI48
aI49
aI49
aI36
aI73
aI84
aI36
aI33
aI65
aI44
aI41
aI11
aI66
aI62
aI40
aI74
aI59
aI55
aI60
aI94
aI43
aI78
aI35
aI59
aI59
aI32
aI21
aI14
aI4
aI14
aI4
aI19
aI16
aI8
aI15
aI19
aI4
aI6
aI17
aI16
aI3
aI2
aI15
aI4
aI16
aI11
aI4
aI7
aI8
aI9
aI6
aI4
aI2
aI6
aI66
aI63
aI34
aI66
aI61
aI60
aI60
aI62
aI29
aI36
aI45
aI59
aI63
aI10
aI44
aI43
aI70
aI19
aI74
aI44
aI31
aI80
aI34
aI31
aI38
aI52
aI54
aI89
aI46
aI19
aI33
aI60
aI53
aI48
aI79
aI65
aI72
aI43
aI6
aI23
aI55
aI33
aI92
aI76
aI43
aI76
aI19
aI55
aI38
aI36
aI47
aI43
aI53
aI76
aI58
aI69
aI30
aI35
aI51
aI49
aI73
aI57
aI39
aI30
aI68
aI37
aI30
aI58
aI53
aI47
aI51
aI62
aI56
aI53
aI54
aI52
aI46
aI53
aI60
aI34
aI80
aI41
aI24
aI67
aI52
aI12
aI25
aI57
aI53
aI39
aI32
aI63
aI52
aI38
aI39
aI63
aI72
aI69
aI63
aI47
aI29
aI78
aI67
aI59
aI21
aI52
aI74
aI70
aI49
aI62
aI33
aI89
aI64
aI66
aI73
aI29
aI48
aI18
aI45
aI47
aI36
aI60
aI35
aI95
aI73
aI81
aI59
aI12
aI63
aI50
aI72
aI74
aI46
aI32
aI83
aI86
aI41
aI32
aI26
aI35
aI63
aI53
aI86
aI72
aI45
aI62
aI46
aI2
aI2
aI2
aI1
aI2
aI3
aI5
aI2
aI3
aI4
aI2
aI5
aI5
aI1
aI1
aI1
aI1
aI2
aI1
aI1
aI2
aa(lp76
I4
aI10
aI30
aI35
aI43
aI20
aI65
aI31
aI45
aI54
aI55
aI26
aI38
aI80
aI30
aI63
aI42
aI36
aI48
aI49
aI49
aI36
aI73
aI84
aI36
aI33
aI65
aI43
aI41
aI11
aI66
aI62
aI40
aI74
aI59
aI55
aI60
aI94
aI43
aI78
aI35
aI59
aI59
aI32
aI21
aI14
aI4
aI14
aI4
aI19
aI14
aI8
aI15
aI19
aI4
aI6
aI17
aI15
aI3
aI2
aI15
aI4
aI16
aI11
aI4
aI7
aI8
aI9
aI6
aI5
aI2
aI6
aI66
aI63
aI34
aI66
aI61
aI60
aI59
aI62
aI29
aI36
aI45
aI59
aI63
aI11
aI44
aI43
aI73
aI19
aI74
aI44
aI34
aI80
aI34
aI31
aI38
aI53
aI54
aI89
aI46
aI19
aI33
aI60
aI53
aI49
aI79
aI65
aI72
aI43
aI6
aI23
aI55
aI33
aI92
aI76
aI43
aI76
aI19
aI55
aI38
aI38
aI47
aI43
aI51
aI76
aI58
aI67
aI30
aI35
aI51
aI50
aI73
aI57
aI39
aI33
aI68
aI37
aI30
aI59
aI53
aI47
aI51
aI62
aI56
aI53
aI55
aI52
aI46
aI53
aI60
aI34
aI80
aI41
aI24
aI67
aI52
aI12
aI25
aI57
aI53
aI39
aI32
aI63
aI50
aI40
aI42
aI64
aI73
aI69
aI63
aI48
aI30
aI78
aI67
aI59
aI21
aI52
aI74
aI70
aI49
aI62
aI34
aI90
aI64
aI66
aI73
aI29
aI48
aI18
aI45
aI47
aI36
aI61
aI35
aI95
aI73
aI82
aI59
aI12
aI63
aI50
aI72
aI74
aI46
aI32
aI83
aI86
aI41
aI32
aI26
aI35
aI63
aI53
aI86
aI72
aI45
aI62
aI46
aI2
aI2
aI2
aI1
aI2
aI3
aI5
aI2
aI3
aI4
aI3
aI5
aI5
aI1
aI1
aI1
aI1
aI2
aI1
aI1
aI2
aa(lp77
I4
aI10
aI30
aI35
aI43
aI20
aI65
aI31
aI43
aI54
aI55
aI26
aI38
aI80
aI30
aI63
aI42
aI36
aI48
aI49
aI49
aI36
aI73
aI84
aI36
aI33
aI65
aI44
aI41
aI11
aI66
aI62
aI40
aI74
aI59
aI55
aI60
aI94
aI43
aI78
aI35
aI59
aI59
aI32
aI21
aI14
aI4
aI14
aI4
aI19
aI16
aI8
aI15
aI19
aI4
aI6
aI17
aI15
aI3
aI2
aI15
aI4
aI16
aI11
aI4
aI7
aI8
aI9
aI6
aI4
aI2
aI6
aI66
aI63
aI34
aI66
aI61
aI60
aI59
aI62
aI29
aI36
aI45
aI59
aI63
aI11
aI44
aI43
aI70
aI19
aI74
aI44
aI31
aI80
aI34
aI31
aI38
aI53
aI54
aI89
aI46
aI19
aI33
aI60
aI53
aI49
aI79
aI65
aI72
aI43
aI6
aI23
aI55
aI33
aI92
aI76
aI43
aI76
aI19
aI55
aI38
aI36
aI47
aI43
aI53
aI76
aI58
aI69
aI30
aI35
aI51
aI48
aI73
aI57
aI39
aI30
aI68
aI37
aI30
aI58
aI53
aI47
aI51
aI62
aI56
aI53
aI55
aI52
aI46
aI53
aI60
aI34
aI80
aI41
aI24
aI67
aI52
aI12
aI25
aI57
aI53
aI39
aI32
aI63
aI52
aI38
aI39
aI63
aI73
aI69
aI63
aI47
aI29
aI78
aI67
aI59
aI21
aI52
aI74
aI70
aI49
aI62
aI34
aI89
aI64
aI66
aI73
aI29
aI48
aI18
aI45
aI47
aI36
aI59
aI35
aI95
aI73
aI81
aI59
aI12
aI63
aI50
aI72
aI74
aI46
aI32
aI83
aI86
aI41
aI32
aI26
aI35
aI63
aI53
aI86
aI72
aI45
aI62
aI46
aI2
aI2
aI2
aI1
aI2
aI3
aI5
aI2
aI3
aI4
aI3
aI5
aI5
aI1
aI1
aI1
aI1
aI2
aI1
aI1
aI2
aa(lp78
I4
aI10
aI30
aI35
aI43
aI20
aI65
aI31
aI43
aI54
aI55
aI26
aI38
aI80
aI30
aI63
aI42
aI36
aI48
aI49
aI49
aI36
aI73
aI84
aI36
aI33
aI65
aI44
aI41
aI11
aI66
aI62
aI40
aI74
aI59
aI55
aI60
aI94
aI43
aI78
aI35
aI59
aI59
aI32
aI21
aI14
aI4
aI14
aI4
aI19
aI16
aI8
aI15
aI19
aI4
aI6
aI17
aI16
aI3
aI2
aI15
aI4
aI16
aI11
aI4
aI7
aI8
aI9
aI6
aI4
aI2
aI6
aI66
aI63
aI34
aI66
aI61
aI60
aI60
aI62
aI29
aI36
aI45
aI59
aI63
aI10
aI44
aI43
aI70
aI19
aI74
aI44
aI31
aI80
aI34
aI31
aI38
aI52
aI54
aI89
aI46
aI19
aI33
aI60
aI53
aI48
aI79
aI65
aI72
aI43
aI6
aI23
aI55
aI33
aI92
aI76
aI43
aI76
aI19
aI55
aI38
aI36
aI47
aI43
aI53
aI76
aI58
aI69
aI30
aI35
aI51
aI49
aI73
aI57
aI39
aI30
aI68
aI37
aI30
aI58
aI53
aI47
aI51
aI62
aI56
aI53
aI54
aI52
aI46
aI53
aI60
aI34
aI80
aI41
aI24
aI67
aI52
aI12
aI25
aI57
aI53
aI39
aI32
aI63
aI52
aI38
aI39
aI63
aI72
aI69
aI63
aI47
aI29
aI78
aI67
aI59
aI21
aI52
aI74
aI70
aI49
aI62
aI33
aI89
aI64
aI66
aI73
aI29
aI48
aI18
aI45
aI47
aI36
aI60
aI35
aI95
aI73
aI81
aI59
aI12
aI63
aI50
aI72
aI74
aI46
aI32
aI83
aI86
aI41
aI32
aI26
aI35
aI63
aI53
aI86
aI72
aI45
aI62
aI46
aI2
aI2
aI2
aI1
aI2
aI3
aI5
aI2
aI3
aI4
aI2
aI5
aI5
aI1
aI1
aI1
aI1
aI2
aI1
aI1
aI2
aa(lp79
I4
aI10
aI30
aI35
aI43
aI20
aI65
aI31
aI43
aI54
aI55
aI26
aI38
aI80
aI30
aI63
aI42
aI36
aI48
aI49
aI49
aI36
aI73
aI84
aI36
aI33
aI65
aI44
aI41
aI11
aI66
aI62
aI40
aI74
aI59
aI55
aI60
aI94
aI43
aI78
aI35
aI59
aI59
aI32
aI21
aI14
aI4
aI14
aI4
aI19
aI16
aI8
aI15
aI19
aI4
aI6
aI17
aI16
aI3
aI2
aI15
aI4
aI16
aI11
aI4
aI7
aI8
aI9
aI6
aI4
aI2
aI6
aI66
aI63
aI34
aI66
aI61
aI60
aI60
aI62
aI29
aI36
aI45
aI59
aI63
aI10
aI43
aI43
aI70
aI19
aI74
aI44
aI31
aI80
aI34
aI31
aI38
aI53
aI54
aI89
aI46
aI19
aI33
aI60
aI53
aI49
aI79
aI65
aI72
aI43
aI6
aI23
aI55
aI33
aI92
aI76
aI43
aI76
aI19
aI55
aI38
aI36
aI47
aI43
aI53
aI76
aI58
aI69
aI30
aI35
aI51
aI49
aI73
aI57
aI39
aI30
aI68
aI37
aI30
aI58
aI53
aI47
aI51
aI62
aI56
aI53
aI55
aI52
aI46
aI53
aI60
aI34
aI80
aI41
aI24
aI67
aI52
aI12
aI25
aI57
aI53
aI39
aI32
aI63
aI52
aI38
aI39
aI63
aI73
aI69
aI63
aI47
aI29
aI78
aI67
aI59
aI21
aI52
aI74
aI70
aI49
aI62
aI33
aI89
aI64
aI66
aI73
aI29
aI48
aI18
aI45
aI47
aI36
aI59
aI35
aI95
aI73
aI81
aI59
aI12
aI63
aI50
aI72
aI74
aI46
aI32
aI83
aI86
aI41
aI32
aI26
aI35
aI63
aI53
aI86
aI72
aI45
aI62
aI46
aI2
aI2
aI2
aI1
aI2
aI3
aI5
aI2
aI3
aI4
aI2
aI5
aI5
aI1
aI1
aI1
aI1
aI2
aI1
aI1
aI2
aa(lp80
I4
aI10
aI30
aI35
aI43
aI20
aI65
aI31
aI43
aI54
aI55
aI26
aI38
aI80
aI30
aI63
aI42
aI36
aI48
aI49
aI49
aI36
aI73
aI84
aI36
aI33
aI65
aI44
aI41
aI11
aI66
aI62
aI40
aI74
aI59
aI55
aI60
aI94
aI43
aI78
aI35
aI59
aI59
aI32
aI21
aI14
aI4
aI14
aI4
aI19
aI16
aI8
aI15
aI19
aI4
aI6
aI17
aI16
aI3
aI2
aI15
aI4
aI16
aI11
aI4
aI7
aI8
aI9
aI6
aI4
aI2
aI6
aI66
aI63
aI34
aI66
aI61
aI60
aI60
aI62
aI29
aI36
aI45
aI59
aI63
aI10
aI43
aI43
aI70
aI19
aI74
aI44
aI31
aI80
aI34
aI31
aI38
aI53
aI54
aI89
aI46
aI19
aI33
aI60
aI53
aI49
aI79
aI65
aI72
aI43
aI6
aI23
aI55
aI33
aI92
aI76
aI43
aI76
aI19
aI55
aI38
aI36
aI47
aI43
aI53
aI76
aI58
aI69
aI30
aI35
aI51
aI49
aI73
aI57
aI39
aI30
aI68
aI37
aI30
aI58
aI53
aI47
aI51
aI62
aI56
aI53
aI55
aI52
aI46
aI53
aI60
aI34
aI80
aI41
aI24
aI67
aI52
aI12
aI25
aI57
aI53
aI39
aI32
aI63
aI52
aI38
aI39
aI63
aI73
aI69
aI63
aI47
aI29
aI78
aI67
aI59
aI21
aI52
aI74
aI70
aI49
aI62
aI33
aI89
aI64
aI66
aI73
aI29
aI48
aI18
aI45
aI47
aI36
aI59
aI35
aI95
aI73
aI81
aI59
aI12
aI63
aI50
aI72
aI74
aI46
aI32
aI83
aI86
aI41
aI32
aI26
aI35
aI63
aI53
aI86
aI72
aI45
aI62
aI46
aI2
aI2
aI2
aI1
aI2
aI3
aI5
aI2
aI3
aI4
aI2
aI5
aI5
aI1
aI1
aI1
aI1
aI2
aI1
aI1
aI2
aa(lp81
I4
aI9
aI30
aI36
aI44
aI20
aI65
aI31
aI42
aI53
aI55
aI26
aI37
aI79
aI30
aI62
aI42
aI32
aI48
aI49
aI49
aI36
aI75
aI84
aI37
aI33
aI65
aI44
aI39
aI11
aI66
aI62
aI40
aI78
aI60
aI54
aI61
aI93
aI44
aI78
aI35
aI58
aI58
aI33
aI21
aI14
aI4
aI14
aI1
aI16
aI16
aI8
aI15
aI19
aI4
aI6
aI17
aI16
aI3
aI2
aI15
aI4
aI16
aI11
aI3
aI7
aI8
aI9
aI7
aI4
aI2
aI6
aI69
aI63
aI35
aI66
aI61
aI60
aI59
aI62
aI29
aI37
aI45
aI59
aI64
aI10
aI44
aI45
aI70
aI20
aI74
aI43
aI31
aI80
aI34
aI31
aI38
aI54
aI54
aI89
aI46
aI19
aI33
aI60
aI50
aI48
aI78
aI65
aI76
aI43
aI6
aI23
aI55
aI33
aI92
aI76
aI45
aI76
aI19
aI54
aI37
aI36
aI47
aI43
aI53
aI77
aI58
aI68
aI33
aI35
aI51
aI49
aI73
aI57
aI39
aI30
aI68
aI37
aI30
aI57
aI53
aI49
aI49
aI62
aI56
aI54
aI53
aI54
aI47
aI53
aI61
aI34
aI80
aI41
aI23
aI70
aI52
aI11
aI26
aI54
aI53
aI39
aI32
aI63
aI49
aI36
aI39
aI62
aI75
aI73
aI63
aI47
aI29
aI78
aI67
aI61
aI21
aI55
aI77
aI71
aI49
aI62
aI37
aI89
aI67
aI67
aI70
aI30
aI48
aI18
aI44
aI47
aI36
aI57
aI37
aI92
aI73
aI81
aI56
aI11
aI63
aI51
aI72
aI74
aI46
aI32
aI84
aI86
aI41
aI32
aI26
aI35
aI63
aI53
aI86
aI69
aI45
aI64
aI43
aI2
aI2
aI3
aI1
aI2
aI2
aI5
aI2
aI3
aI4
aI2
aI5
aI5
aI1
aI1
aI1
aI1
aI2
aI1
aI1
aI2
aa(lp82
I4
aI9
aI30
aI37
aI45
aI20
aI65
aI31
aI42
aI53
aI55
aI26
aI36
aI78
aI30
aI61
aI42
aI32
aI48
aI49
aI49
aI36
aI75
aI84
aI37
aI33
aI65
aI44
aI39
aI11
aI66
aI62
aI40
aI79
aI60
aI53
aI61
aI93
aI44
aI78
aI35
aI58
aI58
aI34
aI20
aI14
aI4
aI15
aI1
aI16
aI16
aI8
aI15
aI19
aI4
aI7
aI17
aI17
aI3
aI2
aI15
aI4
aI16
aI11
aI3
aI7
aI8
aI8
aI7
aI4
aI2
aI6
aI69
aI63
aI35
aI66
aI61
aI60
aI59
aI62
aI29
aI37
aI45
aI59
aI65
aI9
aI45
aI44
aI70
aI20
aI74
aI43
aI31
aI80
aI34
aI31
aI38
aI52
aI54
aI89
aI46
aI19
aI33
aI60
aI50
aI47
aI78
aI65
aI76
aI43
aI6
aI23
aI55
aI32
aI92
aI76
aI45
aI76
aI19
aI53
aI38
aI36
aI47
aI43
aI53
aI77
aI58
aI68
aI33
aI36
aI51
aI50
aI73
aI57
aI39
aI30
aI68
aI37
aI30
aI56
aI53
aI49
aI49
aI62
aI56
aI54
aI52
aI54
aI48
aI53
aI62
aI34
aI80
aI41
aI23
aI70
aI52
aI11
aI26
aI54
aI53
aI39
aI32
aI63
aI49
aI36
aI39
aI61
aI74
aI73
aI63
aI47
aI29
aI78
aI67
aI61
aI21
aI55
aI77
aI71
aI49
aI62
aI37
aI89
aI67
aI66
aI70
aI31
aI48
aI18
aI43
aI47
aI36
aI58
aI36
aI92
aI73
aI81
aI56
aI11
aI63
aI51
aI72
aI74
aI46
aI32
aI85
aI86
aI41
aI32
aI26
aI35
aI63
aI53
aI86
aI69
aI45
aI64
aI43
aI2
aI2
aI3
aI1
aI2
aI2
aI5
aI3
aI3
aI4
aI1
aI5
aI5
aI1
aI1
aI1
aI1
aI2
aI1
aI1
aI2
aa(lp83
I4
aI9
aI30
aI36
aI43
aI20
aI65
aI31
aI44
aI53
aI55
aI26
aI38
aI80
aI30
aI63
aI42
aI36
aI49
aI49
aI49
aI36
aI72
aI84
aI36
aI33
aI65
aI44
aI41
aI11
aI66
aI62
aI40
aI75
aI59
aI55
aI60
aI93
aI43
aI77
aI35
aI59
aI59
aI32
aI21
aI14
aI4
aI14
aI4
aI19
aI16
aI8
aI15
aI19
aI4
aI6
aI17
aI16
aI3
aI2
aI15
aI4
aI16
aI11
aI3
aI7
aI8
aI9
aI5
aI4
aI2
aI5
aI66
aI63
aI34
aI66
aI61
aI60
aI60
aI62
aI29
aI35
aI45
aI59
aI63
aI10
aI44
aI43
aI70
aI19
aI74
aI45
aI31
aI80
aI34
aI31
aI38
aI52
aI54
aI89
aI46
aI19
aI33
aI60
aI53
aI48
aI78
aI65
aI72
aI43
aI6
aI23
aI55
aI33
aI92
aI76
aI43
aI76
aI19
aI55
aI38
aI36
aI47
aI43
aI53
aI76
aI58
aI69
aI30
aI35
aI51
aI49
aI73
aI57
aI39
aI30
aI69
aI37
aI30
aI58
aI53
aI47
aI51
aI62
aI56
aI52
aI54
aI52
aI46
aI53
aI60
aI34
aI80
aI41
aI24
aI67
aI52
aI13
aI24
aI57
aI53
aI39
aI32
aI63
aI52
aI38
aI39
aI63
aI72
aI69
aI63
aI47
aI29
aI78
aI67
aI58
aI21
aI52
aI74
aI69
aI49
aI62
aI33
aI89
aI64
aI66
aI73
aI29
aI48
aI18
aI45
aI48
aI36
aI60
aI35
aI95
aI73
aI81
aI59
aI11
aI63
aI49
aI72
aI74
aI46
aI32
aI83
aI86
aI41
aI32
aI26
aI35
aI63
aI53
aI86
aI72
aI45
aI62
aI46
aI2
aI2
aI3
aI1
aI2
aI4
aI5
aI2
aI3
aI4
aI2
aI5
aI5
aI1
aI1
aI1
aI1
aI2
aI2
aI1
aI2
aa(lp84
I4
aI9
aI30
aI36
aI43
aI20
aI65
aI31
aI44
aI53
aI55
aI26
aI38
aI80
aI30
aI63
aI42
aI36
aI49
aI49
aI49
aI36
aI72
aI84
aI36
aI33
aI65
aI44
aI41
aI11
aI66
aI62
aI40
aI75
aI59
aI55
aI60
aI93
aI43
aI77
aI35
aI59
aI59
aI32
aI21
aI14
aI4
aI14
aI4
aI19
aI15
aI8
aI15
aI19
aI4
aI6
aI17
aI16
aI3
aI2
aI15
aI4
aI16
aI11
aI3
aI7
aI8
aI9
aI5
aI4
aI2
aI5
aI66
aI63
aI34
aI66
aI61
aI60
aI60
aI62
aI29
aI35
aI45
aI59
aI63
aI10
aI44
aI43
aI72
aI19
aI74
aI44
aI33
aI80
aI34
aI31
aI38
aI52
aI54
aI89
aI46
aI19
aI33
aI60
aI53
aI48
aI78
aI65
aI72
aI43
aI6
aI23
aI55
aI33
aI92
aI76
aI43
aI76
aI19
aI55
aI38
aI38
aI47
aI43
aI51
aI76
aI58
aI68
aI30
aI35
aI51
aI50
aI73
aI57
aI39
aI32
aI69
aI37
aI30
aI58
aI53
aI47
aI51
aI62
aI56
aI52
aI54
aI52
aI46
aI53
aI60
aI34
aI80
aI41
aI24
aI67
aI52
aI13
aI24
aI57
aI53
aI39
aI32
aI63
aI50
aI39
aI41
aI64
aI72
aI69
aI63
aI47
aI29
aI78
aI67
aI58
aI21
aI52
aI74
aI69
aI49
aI62
aI33
aI90
aI64
aI66
aI73
aI29
aI48
aI18
aI45
aI48
aI36
aI62
aI35
aI95
aI73
aI81
aI59
aI11
aI63
aI49
aI72
aI74
aI46
aI32
aI83
aI86
aI41
aI32
aI26
aI35
aI63
aI53
aI86
aI72
aI45
aI62
aI46
aI2
aI2
aI3
aI1
aI2
aI4
aI5
aI2
aI3
aI4
aI2
aI5
aI5
aI1
aI1
aI1
aI1
aI2
aI2
aI1
aI2
aa(lp85
I4
aI9
aI30
aI36
aI43
aI20
aI65
aI31
aI44
aI53
aI55
aI26
aI38
aI80
aI30
aI63
aI42
aI36
aI49
aI49
aI49
aI36
aI72
aI84
aI36
aI33
aI65
aI44
aI41
aI11
aI66
aI62
aI40
aI75
aI59
aI55
aI60
aI93
aI43
aI77
aI35
aI59
aI59
aI32
aI21
aI14
aI4
aI14
aI4
aI19
aI16
aI8
aI15
aI19
aI4
aI6
aI17
aI16
aI3
aI2
aI15
aI4
aI16
aI11
aI3
aI7
aI8
aI9
aI5
aI4
aI2
aI5
aI66
aI63
aI34
aI66
aI61
aI60
aI60
aI62
aI29
aI35
aI45
aI59
aI63
aI10
aI44
aI43
aI70
aI19
aI74
aI45
aI31
aI80
aI34
aI31
aI38
aI52
aI54
aI89
aI46
aI19
aI33
aI60
aI53
aI48
aI78
aI65
aI72
aI43
aI6
aI23
aI55
aI33
aI92
aI76
aI43
aI76
aI19
aI55
aI38
aI36
aI47
aI43
aI53
aI76
aI58
aI69
aI30
aI35
aI51
aI49
aI73
aI57
aI39
aI30
aI69
aI37
aI30
aI58
aI53
aI47
aI51
aI62
aI56
aI52
aI54
aI52
aI46
aI53
aI60
aI34
aI80
aI41
aI24
aI67
aI52
aI13
aI24
aI57
aI53
aI39
aI32
aI63
aI52
aI38
aI39
aI63
aI72
aI69
aI63
aI47
aI29
aI78
aI67
aI58
aI21
aI52
aI74
aI69
aI49
aI62
aI33
aI89
aI64
aI66
aI73
aI29
aI48
aI18
aI45
aI48
aI36
aI60
aI35
aI95
aI73
aI81
aI59
aI11
aI63
aI49
aI72
aI74
aI46
aI32
aI83
aI86
aI41
aI32
aI26
aI35
aI63
aI53
aI86
aI72
aI45
aI62
aI46
aI2
aI2
aI3
aI1
aI2
aI4
aI5
aI2
aI3
aI4
aI2
aI5
aI5
aI1
aI1
aI1
aI1
aI2
aI2
aI1
aI2
aa(lp86
I4
aI9
aI30
aI37
aI45
aI20
aI65
aI31
aI41
aI53
aI55
aI26
aI36
aI78
aI30
aI61
aI42
aI32
aI48
aI49
aI49
aI36
aI75
aI84
aI37
aI33
aI65
aI44
aI39
aI11
aI66
aI62
aI40
aI79
aI60
aI53
aI61
aI93
aI44
aI78
aI35
aI58
aI58
aI34
aI20
aI14
aI4
aI15
aI1
aI16
aI16
aI8
aI15
aI19
aI4
aI7
aI17
aI17
aI3
aI2
aI15
aI4
aI16
aI11
aI3
aI7
aI8
aI8
aI7
aI4
aI2
aI6
aI69
aI63
aI35
aI66
aI61
aI60
aI59
aI62
aI29
aI38
aI45
aI59
aI65
aI9
aI45
aI45
aI70
aI20
aI74
aI43
aI31
aI80
aI34
aI31
aI38
aI53
aI54
aI89
aI46
aI19
aI33
aI60
aI50
aI47
aI78
aI65
aI76
aI43
aI6
aI23
aI55
aI32
aI92
aI76
aI45
aI76
aI19
aI53
aI37
aI36
aI47
aI43
aI53
aI77
aI58
aI68
aI33
aI36
aI51
aI50
aI73
aI57
aI39
aI30
aI68
aI37
aI30
aI56
aI53
aI50
aI48
aI62
aI56
aI54
aI52
aI54
aI48
aI53
aI62
aI34
aI80
aI41
aI23
aI70
aI52
aI11
aI26
aI54
aI53
aI39
aI32
aI63
aI49
aI36
aI39
aI61
aI74
aI73
aI63
aI47
aI29
aI78
aI67
aI61
aI21
aI55
aI77
aI72
aI49
aI62
aI37
aI89
aI67
aI66
aI70
aI31
aI48
aI18
aI43
aI47
aI36
aI58
aI36
aI92
aI73
aI81
aI56
aI11
aI63
aI51
aI72
aI74
aI46
aI32
aI85
aI86
aI41
aI32
aI26
aI35
aI63
aI53
aI86
aI69
aI45
aI64
aI43
aI2
aI2
aI3
aI1
aI2
aI1
aI5
aI3
aI3
aI4
aI1
aI5
aI5
aI1
aI1
aI1
aI1
aI2
aI1
aI1
aI2
aa(lp87
I4
aI9
aI30
aI37
aI45
aI20
aI65
aI31
aI42
aI53
aI55
aI26
aI36
aI78
aI30
aI61
aI42
aI32
aI48
aI49
aI49
aI36
aI75
aI84
aI37
aI33
aI65
aI44
aI39
aI11
aI66
aI62
aI40
aI79
aI60
aI53
aI61
aI93
aI44
aI78
aI35
aI58
aI58
aI34
aI20
aI14
aI4
aI15
aI1
aI16
aI16
aI8
aI15
aI19
aI4
aI7
aI17
aI17
aI3
aI2
aI15
aI4
aI16
aI11
aI3
aI7
aI8
aI8
aI7
aI4
aI2
aI6
aI69
aI63
aI35
aI66
aI61
aI60
aI59
aI62
aI29
aI37
aI45
aI59
aI65
aI9
aI45
aI44
aI70
aI20
aI74
aI43
aI31
aI80
aI34
aI31
aI38
aI52
aI54
aI89
aI46
aI19
aI33
aI60
aI50
aI47
aI78
aI65
aI76
aI43
aI6
aI23
aI55
aI32
aI92
aI76
aI45
aI76
aI19
aI53
aI38
aI36
aI47
aI43
aI53
aI77
aI58
aI68
aI33
aI36
aI51
aI50
aI73
aI57
aI39
aI30
aI68
aI37
aI30
aI56
aI53
aI49
aI49
aI62
aI56
aI54
aI52
aI54
aI48
aI53
aI62
aI34
aI80
aI41
aI23
aI70
aI52
aI11
aI26
aI54
aI53
aI39
aI32
aI63
aI49
aI36
aI39
aI61
aI74
aI73
aI63
aI47
aI29
aI78
aI67
aI61
aI21
aI55
aI77
aI71
aI49
aI62
aI37
aI89
aI67
aI66
aI70
aI31
aI48
aI18
aI43
aI47
aI36
aI58
aI36
aI92
aI73
aI81
aI56
aI11
aI63
aI51
aI72
aI74
aI46
aI32
aI85
aI86
aI41
aI32
aI26
aI35
aI63
aI53
aI86
aI69
aI45
aI64
aI43
aI2
aI2
aI3
aI1
aI2
aI2
aI5
aI3
aI3
aI4
aI1
aI5
aI5
aI1
aI1
aI1
aI1
aI2
aI1
aI1
aI2
aa(lp88
I4
aI9
aI30
aI37
aI45
aI20
aI65
aI31
aI42
aI53
aI55
aI26
aI37
aI78
aI30
aI61
aI42
aI33
aI48
aI49
aI49
aI36
aI74
aI84
aI37
aI33
aI65
aI44
aI40
aI11
aI66
aI62
aI40
aI78
aI60
aI54
aI61
aI93
aI43
aI78
aI35
aI58
aI58
aI34
aI20
aI14
aI4
aI15
aI2
aI17
aI16
aI8
aI15
aI19
aI4
aI7
aI17
aI17
aI3
aI2
aI15
aI4
aI16
aI11
aI3
aI7
aI8
aI8
aI6
aI4
aI2
aI6
aI68
aI63
aI35
aI66
aI61
aI60
aI60
aI62
aI29
aI37
aI45
aI59
aI64
aI9
aI46
aI44
aI70
aI20
aI74
aI44
aI31
aI80
aI34
aI31
aI38
aI52
aI54
aI89
aI46
aI19
aI33
aI60
aI51
aI47
aI78
aI65
aI75
aI43
aI6
aI23
aI55
aI32
aI92
aI76
aI44
aI76
aI19
aI54
aI38
aI36
aI47
aI43
aI53
aI77
aI58
aI68
aI32
aI36
aI51
aI50
aI73
aI57
aI39
aI30
aI68
aI37
aI30
aI57
aI53
aI49
aI49
aI62
aI56
aI53
aI52
aI53
aI47
aI53
aI61
aI34
aI80
aI41
aI24
aI69
aI52
aI12
aI25
aI55
aI53
aI39
aI32
aI63
aI50
aI37
aI39
aI62
aI73
aI72
aI63
aI47
aI29
aI78
aI67
aI60
aI21
aI54
aI76
aI71
aI49
aI62
aI35
aI89
aI66
aI65
aI71
aI30
aI48
aI18
aI43
aI47
aI36
aI59
aI35
aI93
aI73
aI81
aI57
aI11
aI63
aI50
aI72
aI74
aI46
aI32
aI85
aI86
aI41
aI32
aI26
aI35
aI63
aI53
aI86
aI70
aI45
aI63
aI44
aI2
aI2
aI3
aI1
aI2
aI2
aI5
aI3
aI3
aI4
aI1
aI5
aI5
aI1
aI1
aI1
aI1
aI2
aI1
aI1
aI2
aa(lp89
I4
aI9
aI30
aI36
aI44
aI20
aI65
aI31
aI44
aI53
aI55
aI26
aI38
aI79
aI30
aI62
aI42
aI36
aI49
aI49
aI49
aI36
aI72
aI84
aI36
aI33
aI65
aI44
aI41
aI11
aI66
aI62
aI40
aI75
aI59
aI55
aI60
aI93
aI43
aI77
aI35
aI59
aI59
aI33
aI21
aI14
aI4
aI15
aI4
aI19
aI16
aI8
aI15
aI19
aI4
aI6
aI17
aI16
aI3
aI2
aI15
aI4
aI16
aI11
aI3
aI7
aI8
aI9
aI5
aI4
aI2
aI5
aI66
aI63
aI34
aI66
aI61
aI60
aI60
aI62
aI29
aI35
aI45
aI59
aI63
aI10
aI45
aI43
aI70
aI19
aI74
aI45
aI31
aI80
aI34
aI31
aI38
aI52
aI54
aI89
aI46
aI19
aI33
aI60
aI53
aI48
aI78
aI65
aI72
aI43
aI6
aI23
aI55
aI33
aI92
aI76
aI43
aI76
aI19
aI55
aI39
aI36
aI47
aI43
aI53
aI76
aI58
aI69
aI30
aI35
aI51
aI49
aI73
aI57
aI39
aI30
aI69
aI37
aI30
aI58
aI53
aI47
aI51
aI62
aI56
aI52
aI54
aI52
aI46
aI53
aI60
aI34
aI80
aI41
aI24
aI67
aI52
aI13
aI24
aI57
aI53
aI39
aI32
aI63
aI52
aI38
aI39
aI63
aI72
aI69
aI63
aI47
aI29
aI78
aI67
aI58
aI21
aI52
aI74
aI69
aI49
aI62
aI33
aI89
aI64
aI65
aI73
aI29
aI48
aI18
aI44
aI48
aI36
aI60
aI34
aI95
aI73
aI81
aI59
aI11
aI63
aI49
aI72
aI74
aI46
aI32
aI84
aI86
aI41
aI32
aI26
aI35
aI63
aI53
aI86
aI72
aI45
aI62
aI46
aI2
aI2
aI3
aI1
aI2
aI4
aI5
aI2
aI3
aI4
aI2
aI5
aI5
aI1
aI1
aI1
aI1
aI2
aI2
aI1
aI2
aa(lp90
I4
aI9
aI30
aI36
aI44
aI20
aI65
aI31
aI44
aI53
aI55
aI26
aI38
aI79
aI30
aI62
aI42
aI36
aI49
aI49
aI49
aI36
aI72
aI84
aI36
aI33
aI65
aI44
aI41
aI11
aI66
aI62
aI40
aI75
aI59
aI55
aI60
aI93
aI43
aI77
aI35
aI59
aI59
aI33
aI21
aI14
aI4
aI15
aI4
aI19
aI16
aI8
aI15
aI19
aI4
aI6
aI17
aI16
aI3
aI2
aI15
aI4
aI16
aI11
aI3
aI7
aI8
aI9
aI5
aI4
aI2
aI5
aI66
aI63
aI34
aI66
aI61
aI60
aI60
aI62
aI29
aI35
aI45
aI59
aI63
aI10
aI45
aI43
aI70
aI19
aI74
aI45
aI31
aI80
aI34
aI31
aI38
aI52
aI54
aI89
aI46
aI19
aI33
aI60
aI53
aI48
aI78
aI65
aI72
aI43
aI6
aI23
aI55
aI33
aI92
aI76
aI43
aI76
aI19
aI55
aI39
aI36
aI47
aI43
aI53
aI76
aI58
aI69
aI30
aI35
aI51
aI49
aI73
aI57
aI39
aI30
aI69
aI37
aI30
aI58
aI53
aI47
aI51
aI62
aI56
aI52
aI54
aI52
aI46
aI53
aI60
aI34
aI80
aI41
aI24
aI67
aI52
aI13
aI24
aI57
aI53
aI39
aI32
aI63
aI52
aI38
aI39
aI63
aI72
aI69
aI63
aI47
aI29
aI78
aI67
aI58
aI21
aI52
aI74
aI69
aI49
aI62
aI33
aI89
aI64
aI65
aI73
aI29
aI48
aI18
aI44
aI48
aI36
aI60
aI34
aI95
aI73
aI81
aI59
aI11
aI63
aI49
aI72
aI74
aI46
aI32
aI84
aI86
aI41
aI32
aI26
aI35
aI63
aI53
aI86
aI72
aI45
aI62
aI46
aI2
aI2
aI3
aI1
aI2
aI4
aI5
aI2
aI3
aI4
aI2
aI5
aI5
aI1
aI1
aI1
aI1
aI2
aI2
aI1
aI2
aa(lp91
I4
aI9
aI30
aI36
aI44
aI20
aI65
aI31
aI44
aI53
aI55
aI26
aI38
aI79
aI30
aI62
aI42
aI36
aI49
aI49
aI49
aI36
aI72
aI84
aI36
aI33
aI65
aI44
aI41
aI11
aI66
aI62
aI40
aI75
aI59
aI55
aI60
aI93
aI43
aI77
aI35
aI59
aI59
aI33
aI21
aI14
aI4
aI15
aI4
aI19
aI16
aI8
aI15
aI19
aI4
aI6
aI17
aI16
aI3
aI2
aI15
aI4
aI16
aI11
aI3
aI7
aI8
aI9
aI5
aI4
aI2
aI5
aI66
aI63
aI34
aI66
aI61
aI60
aI60
aI62
aI29
aI35
aI45
aI59
aI63
aI10
aI45
aI43
aI70
aI19
aI74
aI45
aI31
aI80
aI34
aI31
aI38
aI52
aI54
aI89
aI46
aI19
aI33
aI60
aI53
aI48
aI78
aI65
aI72
aI43
aI6
aI23
aI55
aI33
aI92
aI76
aI43
aI76
aI19
aI55
aI39
aI36
aI47
aI43
aI53
aI76
aI58
aI69
aI30
aI35
aI51
aI49
aI73
aI57
aI39
aI30
aI69
aI37
aI30
aI58
aI53
aI47
aI51
aI62
aI56
aI52
aI54
aI52
aI46
aI53
aI60
aI34
aI80
aI41
aI24
aI67
aI52
aI13
aI24
aI57
aI53
aI39
aI32
aI63
aI52
aI38
aI39
aI63
aI72
aI69
aI63
aI47
aI29
aI78
aI67
aI58
aI21
aI52
aI74
aI69
aI49
aI62
aI33
aI89
aI64
aI65
aI73
aI29
aI48
aI18
aI44
aI48
aI36
aI60
aI34
aI95
aI73
aI81
aI59
aI11
aI63
aI49
aI72
aI74
aI46
aI32
aI84
aI86
aI41
aI32
aI26
aI35
aI63
aI53
aI86
aI72
aI45
aI62
aI46
aI2
aI2
aI3
aI1
aI2
aI4
aI5
aI2
aI3
aI4
aI2
aI5
aI5
aI1
aI1
aI1
aI1
aI2
aI2
aI1
aI2
aa(lp92
I4
aI9
aI30
aI36
aI44
aI20
aI65
aI31
aI44
aI53
aI55
aI26
aI38
aI79
aI30
aI62
aI42
aI36
aI49
aI49
aI49
aI36
aI72
aI84
aI36
aI33
aI65
aI44
aI41
aI11
aI66
aI62
aI40
aI75
aI59
aI55
aI60
aI93
aI43
aI77
aI35
aI59
aI59
aI33
aI21
aI14
aI4
aI15
aI4
aI19
aI16
aI8
aI15
aI19
aI4
aI6
aI17
aI16
aI3
aI2
aI15
aI4
aI16
aI11
aI3
aI7
aI8
aI9
aI5
aI4
aI2
aI5
aI66
aI63
aI34
aI66
aI61
aI60
aI60
aI62
aI29
aI35
aI45
aI59
aI63
aI10
aI45
aI43
aI70
aI19
aI74
aI45
aI31
aI80
aI34
aI31
aI38
aI52
aI54
aI89
aI46
aI19
aI33
aI60
aI53
aI48
aI78
aI65
aI72
aI43
aI6
aI23
aI55
aI33
aI92
aI76
aI43
aI76
aI19
aI55
aI39
aI36
aI47
aI43
aI53
aI76
aI58
aI69
aI30
aI35
aI51
aI49
aI73
aI57
aI39
aI30
aI69
aI37
aI30
aI58
aI53
aI47
aI51
aI62
aI56
aI52
aI54
aI52
aI46
aI53
aI60
aI34
aI80
aI41
aI24
aI67
aI52
aI13
aI24
aI57
aI53
aI39
aI32
aI63
aI52
aI38
aI39
aI63
aI72
aI69
aI63
aI47
aI29
aI78
aI67
aI58
aI21
aI52
aI74
aI69
aI49
aI62
aI33
aI89
aI64
aI65
aI73
aI29
aI48
aI18
aI44
aI48
aI36
aI60
aI34
aI95
aI73
aI81
aI59
aI11
aI63
aI49
aI72
aI74
aI46
aI32
aI84
aI86
aI41
aI32
aI26
aI35
aI63
aI53
aI86
aI72
aI45
aI62
aI46
aI2
aI2
aI3
aI1
aI2
aI4
aI5
aI2
aI3
aI4
aI2
aI5
aI5
aI1
aI1
aI1
aI1
aI2
aI2
aI1
aI2
aa(lp93
I4
aI9
aI30
aI36
aI44
aI20
aI65
aI31
aI44
aI53
aI55
aI26
aI38
aI79
aI30
aI62
aI42
aI36
aI49
aI49
aI49
aI36
aI72
aI84
aI36
aI33
aI65
aI44
aI41
aI11
aI66
aI62
aI40
aI75
aI59
aI55
aI60
aI93
aI43
aI77
aI35
aI59
aI59
aI33
aI21
aI14
aI4
aI15
aI4
aI19
aI16
aI8
aI15
aI19
aI4
aI6
aI17
aI16
aI3
aI2
aI15
aI4
aI16
aI11
aI3
aI7
aI8
aI9
aI5
aI4
aI2
aI5
aI66
aI63
aI34
aI66
aI61
aI60
aI60
aI62
aI29
aI35
aI45
aI59
aI63
aI10
aI46
aI43
aI70
aI19
aI74
aI45
aI31
aI80
aI34
aI31
aI38
aI51
aI54
aI89
aI46
aI19
aI33
aI60
aI53
aI47
aI78
aI65
aI72
aI43
aI6
aI23
aI55
aI33
aI92
aI76
aI43
aI76
aI19
aI55
aI39
aI36
aI47
aI43
aI53
aI76
aI58
aI69
aI30
aI35
aI51
aI49
aI73
aI57
aI39
aI30
aI69
aI37
aI30
aI58
aI53
aI47
aI51
aI62
aI56
aI52
aI53
aI52
aI46
aI53
aI60
aI34
aI80
aI41
aI24
aI67
aI52
aI13
aI24
aI57
aI53
aI39
aI32
aI63
aI52
aI38
aI39
aI63
aI71
aI69
aI63
aI47
aI29
aI78
aI67
aI58
aI21
aI52
aI74
aI69
aI49
aI62
aI33
aI89
aI64
aI65
aI73
aI29
aI48
aI18
aI44
aI48
aI36
aI61
aI34
aI95
aI73
aI81
aI59
aI11
aI63
aI49
aI72
aI74
aI46
aI32
aI84
aI86
aI41
aI32
aI26
aI35
aI63
aI53
aI86
aI72
aI45
aI62
aI46
aI2
aI2
aI3
aI1
aI2
aI4
aI5
aI2
aI3
aI4
aI2
aI5
aI5
aI1
aI1
aI1
aI1
aI2
aI2
aI1
aI2
aa(lp94
I4
aI9
aI30
aI36
aI45
aI20
aI65
aI31
aI43
aI53
aI55
aI26
aI38
aI78
aI30
aI61
aI42
aI35
aI49
aI49
aI49
aI37
aI73
aI84
aI36
aI33
aI65
aI44
aI41
aI11
aI66
aI62
aI40
aI76
aI59
aI55
aI60
aI93
aI42
aI77
aI35
aI59
aI59
aI34
aI20
aI14
aI4
aI16
aI3
aI19
aI16
aI8
aI15
aI19
aI4
aI7
aI17
aI17
aI3
aI2
aI15
aI4
aI16
aI11
aI3
aI7
aI8
aI8
aI5
aI4
aI2
aI5
aI67
aI63
aI34
aI66
aI61
aI60
aI61
aI62
aI29
aI36
aI45
aI59
aI63
aI9
aI47
aI43
aI70
aI19
aI74
aI45
aI31
aI80
aI34
aI31
aI38
aI51
aI54
aI89
aI46
aI19
aI33
aI60
aI53
aI46
aI78
aI65
aI73
aI43
aI6
aI23
aI55
aI32
aI92
aI76
aI43
aI76
aI19
aI55
aI39
aI36
aI47
aI43
aI53
aI76
aI58
aI69
aI30
aI36
aI51
aI50
aI73
aI57
aI39
aI30
aI69
aI37
aI30
aI58
aI53
aI48
aI50
aI62
aI56
aI52
aI52
aI52
aI46
aI53
aI60
aI34
aI80
aI41
aI25
aI68
aI52
aI13
aI24
aI56
aI53
aI39
aI32
aI63
aI52
aI38
aI39
aI63
aI71
aI70
aI63
aI47
aI29
aI78
aI67
aI59
aI21
aI52
aI75
aI70
aI49
aI62
aI33
aI89
aI64
aI64
aI73
aI29
aI48
aI18
aI43
aI48
aI36
aI61
aI34
aI95
aI73
aI81
aI59
aI11
aI63
aI49
aI72
aI74
aI46
aI32
aI85
aI86
aI41
aI32
aI26
aI35
aI63
aI53
aI86
aI72
aI45
aI62
aI45
aI2
aI2
aI3
aI1
aI2
aI3
aI5
aI3
aI3
aI4
aI1
aI5
aI5
aI1
aI1
aI1
aI1
aI2
aI2
aI1
aI2
aa(lp95
I4
aI9
aI30
aI36
aI45
aI20
aI65
aI31
aI44
aI53
aI55
aI26
aI38
aI78
aI30
aI61
aI42
aI35
aI49
aI49
aI49
aI37
aI73
aI84
aI36
aI33
aI65
aI44
aI41
aI11
aI66
aI62
aI40
aI76
aI59
aI55
aI60
aI93
aI42
aI77
aI35
aI59
aI59
aI34
aI20
aI14
aI4
aI16
aI3
aI19
aI16
aI8
aI15
aI19
aI4
aI7
aI17
aI17
aI3
aI2
aI15
aI4
aI16
aI11
aI3
aI7
aI8
aI8
aI5
aI4
aI2
aI5
aI67
aI63
aI34
aI66
aI61
aI60
aI61
aI62
aI29
aI35
aI45
aI59
aI63
aI9
aI47
aI42
aI70
aI19
aI74
aI45
aI31
aI80
aI34
aI31
aI38
aI50
aI54
aI89
aI46
aI19
aI33
aI60
aI53
aI46
aI78
aI65
aI73
aI43
aI6
aI23
aI55
aI32
aI92
aI76
aI43
aI76
aI19
aI55
aI40
aI36
aI47
aI43
aI53
aI76
aI58
aI69
aI30
aI36
aI51
aI50
aI73
aI57
aI39
aI30
aI69
aI37
aI30
aI58
aI53
aI47
aI51
aI62
aI56
aI52
aI52
aI52
aI46
aI53
aI60
aI34
aI80
aI41
aI25
aI68
aI52
aI13
aI24
aI56
aI53
aI39
aI32
aI63
aI52
aI38
aI39
aI63
aI71
aI70
aI63
aI47
aI29
aI78
aI67
aI59
aI21
aI52
aI75
aI69
aI49
aI62
aI33
aI89
aI64
aI64
aI73
aI29
aI48
aI18
aI43
aI48
aI36
aI61
aI34
aI95
aI73
aI81
aI59
aI11
aI63
aI49
aI72
aI74
aI46
aI32
aI85
aI86
aI41
aI32
aI26
aI35
aI63
aI53
aI86
aI72
aI45
aI62
aI45
aI2
aI2
aI3
aI1
aI2
aI4
aI5
aI3
aI3
aI4
aI1
aI5
aI5
aI1
aI1
aI1
aI1
aI2
aI2
aI1
aI2
aa(lp96
I4
aI9
aI30
aI36
aI45
aI20
aI65
aI31
aI43
aI53
aI55
aI26
aI38
aI78
aI30
aI61
aI42
aI35
aI49
aI49
aI49
aI37
aI73
aI84
aI36
aI33
aI65
aI44
aI41
aI11
aI66
aI62
aI40
aI76
aI59
aI55
aI60
aI93
aI42
aI77
aI35
aI59
aI59
aI34
aI20
aI14
aI4
aI16
aI3
aI19
aI16
aI8
aI15
aI19
aI4
aI7
aI17
aI17
aI3
aI2
aI15
aI4
aI16
aI11
aI3
aI7
aI8
aI8
aI5
aI4
aI2
aI5
aI67
aI63
aI34
aI66
aI61
aI60
aI61
aI62
aI29
aI36
aI45
aI59
aI63
aI9
aI47
aI43
aI70
aI19
aI74
aI45
aI31
aI80
aI34
aI31
aI38
aI51
aI54
aI89
aI46
aI19
aI33
aI60
aI53
aI46
aI78
aI65
aI73
aI43
aI6
aI23
aI55
aI32
aI92
aI76
aI43
aI76
aI19
aI55
aI39
aI36
aI47
aI43
aI53
aI76
aI58
aI69
aI30
aI36
aI51
aI50
aI73
aI57
aI39
aI30
aI69
aI37
aI30
aI58
aI53
aI48
aI50
aI62
aI56
aI52
aI52
aI52
aI46
aI53
aI60
aI34
aI80
aI41
aI25
aI68
aI52
aI13
aI24
aI56
aI53
aI39
aI32
aI63
aI52
aI38
aI39
aI63
aI71
aI70
aI63
aI47
aI29
aI78
aI67
aI59
aI21
aI52
aI75
aI70
aI49
aI62
aI33
aI89
aI64
aI64
aI73
aI29
aI48
aI18
aI43
aI48
aI36
aI61
aI34
aI95
aI73
aI81
aI59
aI11
aI63
aI49
aI72
aI74
aI46
aI32
aI85
aI86
aI41
aI32
aI26
aI35
aI63
aI53
aI86
aI72
aI45
aI62
aI45
aI2
aI2
aI3
aI1
aI2
aI3
aI5
aI3
aI3
aI4
aI1
aI5
aI5
aI1
aI1
aI1
aI1
aI2
aI2
aI1
aI2
aa(lp97
I4
aI10
aI30
aI35
aI42
aI20
aI65
aI31
aI43
aI54
aI55
aI26
aI38
aI81
aI30
aI64
aI42
aI36
aI48
aI49
aI52
aI35
aI72
aI84
aI36
aI33
aI65
aI44
aI40
aI11
aI70
aI62
aI40
aI74
aI59
aI58
aI60
aI94
aI44
aI78
aI35
aI59
aI59
aI31
aI22
aI14
aI4
aI13
aI4
aI18
aI16
aI8
aI15
aI19
aI4
aI5
aI17
aI15
aI3
aI2
aI15
aI4
aI16
aI14
aI4
aI7
aI8
aI10
aI6
aI4
aI0
aI6
aI66
aI63
aI34
aI66
aI61
aI60
aI59
aI62
aI29
aI36
aI45
aI59
aI63
aI11
aI37
aI44
aI70
aI14
aI74
aI44
aI31
aI80
aI34
aI31
aI38
aI54
aI54
aI90
aI46
aI15
aI33
aI60
aI52
aI50
aI79
aI67
aI72
aI43
aI6
aI23
aI52
aI34
aI92
aI76
aI44
aI76
aI19
aI55
aI37
aI36
aI47
aI43
aI53
aI76
aI58
aI69
aI31
aI31
aI51
aI48
aI73
aI57
aI39
aI30
aI68
aI36
aI30
aI58
aI53
aI47
aI51
aI62
aI56
aI53
aI56
aI53
aI46
aI53
aI60
aI34
aI80
aI41
aI22
aI67
aI52
aI12
aI23
aI57
aI53
aI39
aI33
aI63
aI51
aI37
aI37
aI63
aI74
aI69
aI63
aI47
aI29
aI78
aI67
aI59
aI21
aI53
aI74
aI70
aI49
aI62
aI34
aI90
aI65
aI67
aI74
aI29
aI48
aI18
aI46
aI47
aI36
aI58
aI36
aI94
aI73
aI81
aI58
aI12
aI63
aI51
aI72
aI74
aI46
aI32
aI82
aI86
aI41
aI32
aI26
aI35
aI63
aI53
aI86
aI71
aI45
aI63
aI46
aI2
aI2
aI2
aI1
aI2
aI3
aI5
aI1
aI3
aI4
aI3
aI5
aI5
aI1
aI1
aI1
aI1
aI2
aI1
aI1
aI1
aag97
a(lp98
I4
aI9
aI30
aI36
aI44
aI20
aI65
aI34
aI44
aI53
aI55
aI26
aI34
aI79
aI30
aI62
aI42
aI36
aI49
aI49
aI49
aI37
aI72
aI84
aI36
aI33
aI65
aI44
aI42
aI11
aI66
aI62
aI40
aI75
aI59
aI51
aI60
aI93
aI42
aI77
aI35
aI59
aI59
aI33
aI20
aI15
aI4
aI15
aI4
aI20
aI16
aI9
aI15
aI19
aI4
aI7
aI17
aI17
aI3
aI2
aI15
aI4
aI16
aI11
aI3
aI7
aI8
aI8
aI5
aI3
aI2
aI1
aI66
aI63
aI34
aI66
aI61
aI60
aI61
aI62
aI29
aI35
aI45
aI59
aI63
aI9
aI46
aI42
aI71
aI19
aI74
aI45
aI32
aI80
aI34
aI31
aI38
aI51
aI54
aI89
aI46
aI19
aI33
aI60
aI54
aI47
aI78
aI65
aI72
aI43
aI6
aI23
aI55
aI33
aI92
aI76
aI42
aI76
aI19
aI55
aI39
aI37
aI48
aI43
aI52
aI76
aI58
aI69
aI29
aI31
aI51
aI50
aI73
aI57
aI39
aI31
aI69
aI37
aI30
aI58
aI53
aI47
aI51
aI64
aI56
aI49
aI53
aI51
aI46
aI53
aI60
aI34
aI82
aI41
aI25
aI69
aI52
aI13
aI24
aI57
aI53
aI39
aI32
aI63
aI52
aI39
aI40
aI65
aI72
aI69
aI63
aI47
aI29
aI78
aI67
aI58
aI21
aI51
aI74
aI69
aI49
aI62
aI32
aI89
aI61
aI65
aI74
aI29
aI48
aI18
aI44
aI46
aI36
aI59
aI34
aI96
aI73
aI81
aI60
aI11
aI63
aI49
aI77
aI74
aI46
aI32
aI84
aI86
aI41
aI32
aI26
aI35
aI67
aI53
aI86
aI73
aI45
aI61
aI46
aI2
aI5
aI1
aI1
aI2
aI4
aI5
aI3
aI3
aI4
aI1
aI5
aI5
aI1
aI1
aI1
aI1
aI2
aI2
aI1
aI2
aa.(lp0
F13473.83
aF13473.83
aF13473.83
aF13473.83
aF13473.83
aF13473.83
aF13473.83
aF13473.83
aF13473.83
aF13473.83
aF13473.83
aF13473.83
aF13473.83
aF13473.83
aF13473.83
aF13473.83
aF13473.83
aF13473.83
aF13473.83
aF13473.83
aF13473.83
aF13470.87
aF13470.87
aF13470.87
aF13470.87
aF13470.87
aF13470.87
aF13470.87
aF13467.92
aF13466.18
aF13465.04
aF13465.04
aF13465.04
aF13465.04
aF13465.04
aF13465.04
aF13462.22
aF13462.22
aF13462.22
aF13462.08
aF13462.08
aF13462.08
aF13462.08
aF13462.08
aF13462.08
aF13462.08
aF13462.08
aF13462.08
aF13462.08
aF13462.08
aF13462.08
aF13462.08
aF13462.08
aF13462.08
aF13462.08
aF13462.08
aF13462.08
aF13462.08
aF13462.08
aF13462.08
aF13462.08
aF13462.08
aF13462.08
aF13462.08
aF13462.08
aF13462.08
aF13462.08
aF13462.08
aF13462.08
aF13462.08
aF13462.08
aF13455.67
aF13455.67
aF13454.3
aF13452.72
aF13452.72
aF13452.72
aF13452.72
aF13452.72
aF13452.72
aF13452.72
aF13450.2
aF13448.02
aF13448.02
aF13448.02
aF13448.02
aF13448.02
aF13448.02
aF13447.63
aF13445.59
aF13445.59
aF13445.59
aF13445.59
aF13445.59
aF13440.18
aF13440.18
aF13440.18
aF13003.78
aF13003.78
aF12530.67
a.